
BeatOS-STM32.elf:     file format elf32-littlearm
BeatOS-STM32.elf
architecture: arm, flags 0x00000112:
EXEC_P, HAS_SYMS, D_PAGED
start address 0x08001699

Program Header:
    LOAD off    0x00008000 vaddr 0x08000000 paddr 0x08000000 align 2**15
         filesz 0x00007778 memsz 0x00007778 flags r-x
    LOAD off    0x00010000 vaddr 0x20000000 paddr 0x08007778 align 2**15
         filesz 0x000008a4 memsz 0x00000ce4 flags rw-
private flags = 5000002: [Version5 EABI] [has entry point]

Sections:
Idx Name          Size      VMA       LMA       File off  Algn  Flags
  0 .isr_vector   000001e4  08000000  08000000  00008000  2**0  CONTENTS, ALLOC, LOAD, READONLY, DATA
  1 .text         00007588  080001e8  080001e8  000081e8  2**3  CONTENTS, ALLOC, LOAD, READONLY, CODE
  2 .ARM          00000008  08007770  08007770  0000f770  2**2  CONTENTS, ALLOC, LOAD, READONLY, DATA
  3 .ARM.attributes 00000031  08007778  08007778  000108a4  2**0  CONTENTS, READONLY
  4 .data         000008a4  20000000  08007778  00010000  2**3  CONTENTS, ALLOC, LOAD, DATA
  5 .bss          00000040  200008a4  0800801c  000108a4  2**2  ALLOC
  6 ._user_heap_stack 00000400  200008e4  0800805c  000108a4  2**0  ALLOC
  7 .stab         00000084  00000000  00000000  000108d8  2**2  CONTENTS, READONLY, DEBUGGING
  8 .stabstr      00000117  00000000  00000000  0001095c  2**0  CONTENTS, READONLY, DEBUGGING
  9 .comment      00000070  00000000  00000000  00010a73  2**0  CONTENTS, READONLY
 10 .debug_aranges 00000310  00000000  00000000  00010ae8  2**3  CONTENTS, READONLY, DEBUGGING
 11 .debug_info   000023e7  00000000  00000000  00010df8  2**0  CONTENTS, READONLY, DEBUGGING
 12 .debug_abbrev 00000928  00000000  00000000  000131df  2**0  CONTENTS, READONLY, DEBUGGING
 13 .debug_line   00002932  00000000  00000000  00013b07  2**0  CONTENTS, READONLY, DEBUGGING
 14 .debug_frame  00001710  00000000  00000000  0001643c  2**2  CONTENTS, READONLY, DEBUGGING
 15 .debug_str    00050611  00000000  00000000  00017b4c  2**0  CONTENTS, READONLY, DEBUGGING
 16 .debug_loc    00000f84  00000000  00000000  0006815d  2**0  CONTENTS, READONLY, DEBUGGING
 17 .debug_ranges 000002a8  00000000  00000000  000690e8  2**3  CONTENTS, READONLY, DEBUGGING
 18 .debug_macro  000017f4  00000000  00000000  00069390  2**0  CONTENTS, READONLY, DEBUGGING
SYMBOL TABLE:
08000000 l    d  .isr_vector	00000000 .isr_vector
080001e8 l    d  .text	00000000 .text
08007770 l    d  .ARM	00000000 .ARM
08007778 l    d  .ARM.attributes	00000000 .ARM.attributes
20000000 l    d  .data	00000000 .data
200008a4 l    d  .bss	00000000 .bss
200008e4 l    d  ._user_heap_stack	00000000 ._user_heap_stack
00000000 l    d  .stab	00000000 .stab
00000000 l    d  .stabstr	00000000 .stabstr
00000000 l    d  .comment	00000000 .comment
00000000 l    d  .debug_aranges	00000000 .debug_aranges
00000000 l    d  .debug_info	00000000 .debug_info
00000000 l    d  .debug_abbrev	00000000 .debug_abbrev
00000000 l    d  .debug_line	00000000 .debug_line
00000000 l    d  .debug_frame	00000000 .debug_frame
00000000 l    d  .debug_str	00000000 .debug_str
00000000 l    d  .debug_loc	00000000 .debug_loc
00000000 l    d  .debug_ranges	00000000 .debug_ranges
00000000 l    d  .debug_macro	00000000 .debug_macro
f1e0f85f l       *ABS*	00000000 BootRAM
080016a6 l       .text	00000000 LoopCopyDataInit
0800169e l       .text	00000000 CopyDataInit
080016be l       .text	00000000 LoopFillZerobss
080016b8 l       .text	00000000 FillZerobss
080016e8 l       .text	00000000 Infinite_Loop
00000000 l    df *ABS*	00000000 bpabi.c
00000000 l    df *ABS*	00000000 libgcc2.c
00000000 l    df *ABS*	00000000 libgcc2.c
00000000 l    df *ABS*	00000000 stm32f10x_gpio.c
00000000 l    df *ABS*	00000000 stm32f10x_rcc.c
00000000 l    df *ABS*	00000000 ITM.c
080012f0 l     F .text	0000005e ITM_SendChar
00000000 l    df *ABS*	00000000 system_stm32f10x.c
08001474 l     F .text	0000000a SetSysClock
08001480 l     F .text	000001aa SetSysClockTo72
00000000 l    df *ABS*	00000000 Interrupt.c
00000000 l    df *ABS*	00000000 BeatOS_Main.c
080016ec l     F .text	0000005c NVIC_SetPriority
08001748 l     F .text	00000062 SysTick_Config
0800185c l     F .text	0000002e Delay
200008a4 l     O .bss	00000004 uwTimingDelay
0800188c l     F .text	00000030 TimingDelay_Decrement
00000000 l    df *ABS*	00000000 init.c
00000000 l    df *ABS*	00000000 printf.c
00000000 l    df *ABS*	00000000 puts.c
00000000 l    df *ABS*	00000000 strlen.c
00000000 l    df *ABS*	00000000 vfprintf.c
080036a8 l     F .text	0000007e __sbprintf
080075ec l     O .text	00000010 blanks.6735
08007640 l     O .text	00000010 zeroes.6736
00000000 l    df *ABS*	00000000 wsetup.c
00000000 l    df *ABS*	00000000 dtoa.c
080037ec l     F .text	000002ec quorem
00000000 l    df *ABS*	00000000 fflush.c
00000000 l    df *ABS*	00000000 findfp.c
08004e40 l     F .text	00000050 std.isra.0
00000000 l    df *ABS*	00000000 mallocr.c
00000000 l    df *ABS*	00000000 fvwrite.c
00000000 l    df *ABS*	00000000 fwalk.c
00000000 l    df *ABS*	00000000 locale.c
20000434 l     O .data	00000038 lconv
2000046c l     O .data	00000020 lc_ctype_charset
00000000 l    df *ABS*	00000000 makebuf.c
00000000 l    df *ABS*	00000000 mallocr.c
00000000 l    df *ABS*	00000000 memchr.c
00000000 l    df *ABS*	00000000 memcpy.c
00000000 l    df *ABS*	00000000 memmove.c
00000000 l    df *ABS*	00000000 memset.c
00000000 l    df *ABS*	00000000 mlock.c
00000000 l    df *ABS*	00000000 mprec.c
08007670 l     O .text	0000000c p05.5242
00000000 l    df *ABS*	00000000 mallocr.c
00000000 l    df *ABS*	00000000 s_fpclassify.c
00000000 l    df *ABS*	00000000 sbrkr.c
00000000 l    df *ABS*	00000000 stdio.c
00000000 l    df *ABS*	00000000 vfprintf.c
00000000 l    df *ABS*	00000000 writer.c
00000000 l    df *ABS*	00000000 mallocr.c
00000000 l    df *ABS*	00000000 closer.c
00000000 l    df *ABS*	00000000 fclose.c
00000000 l    df *ABS*	00000000 fputwc.c
00000000 l    df *ABS*	00000000 fstatr.c
00000000 l    df *ABS*	00000000 isattyr.c
00000000 l    df *ABS*	00000000 lseekr.c
00000000 l    df *ABS*	00000000 readr.c
00000000 l    df *ABS*	00000000 wbuf.c
00000000 l    df *ABS*	00000000 wcrtomb.c
00000000 l    df *ABS*	00000000 wctomb_r.c
00000000 l    df *ABS*	00000000 close.c
00000000 l    df *ABS*	00000000 fstat.c
00000000 l    df *ABS*	00000000 isatty.c
00000000 l    df *ABS*	00000000 lseek.c
00000000 l    df *ABS*	00000000 read.c
00000000 l    df *ABS*	00000000 sbrk.c
200008dc l     O .bss	00000004 heap_end.4231
00000000 l    df *ABS*	00000000 impure.c
20000008 l     O .data	00000428 impure_data
00000000 l    df *ABS*	00000000 reent.c
08007778 l       .ARM.attributes	00000000 __init_array_end
08007778 l       .ARM.attributes	00000000 __preinit_array_end
08007778 l       .ARM.attributes	00000000 __init_array_start
08007778 l       .ARM.attributes	00000000 __preinit_array_start
080016e8  w    F .text	00000004 EXTI2_IRQHandler
080016e8  w    F .text	00000004 TIM8_TRG_COM_IRQHandler
080016e8  w    F .text	00000004 TIM8_CC_IRQHandler
08007398 g     F .text	00000024 _isatty_r
08000a50 g     F .text	00000012 __aeabi_dcmple
08000b38 g     F .text	0000002e __gnu_uldivmod_helper
08001988 g     F .text	00000068 _puts_r
0800098c g     F .text	0000007a __cmpdf2
080073bc g     F .text	00000028 _lseek_r
0800165c g     F .text	0000000a DebugMon_Handler
0800098c g     F .text	0000007a __eqdf2
08000b6c g     F .text	000002bc __divdi3
080004fc g     F .text	0000005a __floatdidf
0800195c g     F .text	0000002a printf
080074c8 g     F .text	00000050 _wcrtomb_r
080016e8  w    F .text	00000004 TIM1_CC_IRQHandler
08006f84 g     F .text	00000024 __sseek
08004e90 g     F .text	0000004c __sinit
0800740c g     F .text	000000bc __swbuf_r
080016e8  w    F .text	00000004 HardFault_Handler
08006094 g     F .text	00000002 __malloc_unlock
00000400 g       *ABS*	00000000 _Min_Stack_Size
080016e8  w    F .text	00000004 TIM6_IRQHandler
080018bc g     F .text	0000000a SysTick_Handler
080016e8  w    F .text	00000004 PVD_IRQHandler
08001674 g     F .text	0000000a SDIO_IRQHandler
08005db4 g     F .text	000001ae memmove
08007778 g       *ABS*	00000000 _sidata
08001668 g     F .text	0000000a PendSV_Handler
0800162c g     F .text	0000000a NMI_Handler
08006098 g     F .text	0000004c _Balloc
08007778 g       .ARM	00000000 __exidx_end
080016e8  w    F .text	00000004 EXTI3_IRQHandler
0800097c g     F .text	0000008a __gtdf2
08007370 g     F .text	00000028 _fstat_r
200008e0 g     O .bss	00000004 errno
08007770 g       .text	00000000 _etext
200008a4 g       .bss	00000000 _sbss
08000a18 g     F .text	00000010 __aeabi_cdcmple
08005c58 g     F .text	0000015a memcpy
08000a08 g     F .text	00000020 __aeabi_cdrcmple
08004e34 g     F .text	0000000c _cleanup_r
0800048c g     F .text	00000022 __floatsidf
08000984 g     F .text	00000082 __ltdf2
080016e8  w    F .text	00000004 EXTI0_IRQHandler
080016e8  w    F .text	00000004 I2C2_EV_IRQHandler
08000adc g     F .text	00000000 __aeabi_uldivmod
080019f0 g     F .text	00000010 puts
20000000 g     O .data	00000004 SystemCoreClock
08006e90 g     F .text	00000068 __fpclassifyd
08007548 g     F .text	00000012 _fstat
08007680 g     O .text	000000c8 __mprec_tens
08001648 g     F .text	00000006 UsageFault_Handler
080054dc g     F .text	0000000a __locale_charset
0800129c g     F .text	00000052 RCC_APB2PeriphClockCmd
080016e8  w    F .text	00000004 ADC1_2_IRQHandler
200008b0 g     O .bss	00000004 __malloc_top_pad
080010b4 g     F .text	000001b0 GPIO_Init
200008a4 g       .bss	00000000 __bss_start__
2000048c g     O .data	00000004 __mb_cur_max
0800046c g     F .text	0000001e __aeabi_ui2d
080054f4 g     F .text	0000000a _localeconv_r
0800628c g     F .text	00000012 __i2b
08005110 g     F .text	00000314 __sfvwrite_r
20000000 g       .data	00000000 _sdata
080016e8  w    F .text	00000004 SPI1_IRQHandler
080001e8 g     F .text	00000000 __aeabi_drsub
08006ef8 g     F .text	00000024 _sbrk_r
080016e8  w    F .text	00000004 TAMPER_IRQHandler
080073e4 g     F .text	00000028 _read_r
08000a3c g     F .text	00000012 __aeabi_dcmplt
0800711c g     F .text	00000094 _fclose_r
200008ac g     O .bss	00000004 __malloc_max_sbrked_mem
080004b0 g     F .text	0000003a __extendsfdf2
080007ac g     F .text	000001d0 __aeabi_ddiv
080016e8  w    F .text	00000004 TIM8_UP_IRQHandler
080001f4 g     F .text	00000276 __adddf3
08007770 g       .ARM	00000000 __exidx_start
08000558 g     F .text	00000254 __aeabi_dmul
0800755c g     F .text	00000010 _isatty
08006aa4 g     F .text	000003ec _realloc_r
080018c8 g     F .text	00000094 __libc_init_array
080016e8  w    F .text	00000004 DMA2_Channel2_IRQHandler
08000e28 g     F .text	0000028c __udivdi3
080016e8  w    F .text	00000004 DMA1_Channel4_IRQHandler
080071c0 g     F .text	000001ae _fputwc_r
08007748 g     O .text	00000028 __mprec_bigtens
0800046c g     F .text	0000001e __floatunsidf
08007594 g     F .text	00000034 _sbrk
08006770 g     F .text	0000005a __mcmp
080013c0 g     F .text	0000000c _init
080016e8  w    F .text	00000004 USART3_IRQHandler
080016e8  w    F .text	00000004 RTC_IRQHandler
200008e4 g       .bss	00000000 _ebss
080016e8  w    F .text	00000004 DMA1_Channel7_IRQHandler
08001698  w    F .text	0000003c Reset_Handler
080061f4 g     F .text	0000003c __hi0bits
080016e8  w    F .text	00000004 CAN1_RX1_IRQHandler
08000a8c g     F .text	0000004e __fixdfsi
080016e8  w    F .text	00000004 UART5_IRQHandler
080016e8  w    F .text	00000004 ADC3_IRQHandler
08001264 g     F .text	0000001c GPIO_SetBits
080016e8  w    F .text	00000004 TIM4_IRQHandler
080001f4 g     F .text	00000276 __aeabi_dadd
08000984 g     F .text	00000082 __ledf2
080016e8  w    F .text	00000004 DMA2_Channel1_IRQHandler
08006570 g     F .text	00000094 __pow5mult
08001350 g     F .text	00000042 _write_trace_swo
080004ec g     F .text	0000006a __aeabi_ul2d
200008e4 g       .bss	00000000 end
080016e8  w    F .text	00000004 I2C1_EV_IRQHandler
08000a78 g     F .text	00000012 __aeabi_dcmpgt
080016e8  w    F .text	00000004 DMA1_Channel6_IRQHandler
080016e8  w    F .text	00000004 UART4_IRQHandler
08004edc g     F .text	00000002 __sfp_lock_acquire
08005b18 g     F .text	0000013e memchr
200008e4 g       .bss	00000000 __bss_end__
08004f7c g     F .text	00000194 _free_r
080016e8  w    F .text	00000004 TIM3_IRQHandler
080016e8  w    F .text	00000004 RCC_IRQHandler
080054e8 g     F .text	0000000c __locale_mb_cur_max
08000a64 g     F .text	00000012 __aeabi_dcmpge
080016e8  w    F .text	00000004 TIM1_TRG_COM_IRQHandler
00000000 g       *ABS*	00000000 _Min_Heap_Size
080016e8  w    F .text	00000004 DMA1_Channel1_IRQHandler
080001f0 g     F .text	0000027a __aeabi_dsub
080016e8 g       .text	00000004 Default_Handler
2000089c g     O .data	00000004 __malloc_sbrk_base
080004ec g     F .text	0000006a __floatundidf
0800756c g     F .text	00000012 _lseek
08006604 g     F .text	0000016c __lshift
080016e8  w    F .text	00000004 EXTI15_10_IRQHandler
080062a0 g     F .text	000002d0 __multiply
200008b4 g     O .bss	00000028 __malloc_current_mallinfo
080069e4 g     F .text	000000be __d2b
08001280 g     F .text	0000001c GPIO_ResetBits
080016e8  w    F .text	00000004 TIM7_IRQHandler
080070f8 g     F .text	00000024 _close_r
0800048c g     F .text	00000022 __aeabi_i2d
080016e8  w    F .text	00000004 TIM5_IRQHandler
08003728 g     F .text	000000c4 __swsetup_r
08000b68  w    F .text	00000002 __aeabi_ldiv0
0800168c g     F .text	0000000a EXTI9_5_IRQHandler
080007ac g     F .text	000001d0 __divdf3
20000490 g     O .data	00000408 __malloc_av_
08000558 g     F .text	00000254 __muldf3
08006f1c g     F .text	00000022 __sread
08006090 g     F .text	00000002 __malloc_lock
08004cd0 g     F .text	00000164 _fflush_r
08007098 g     F .text	0000005e _calloc_r
080016e8  w    F .text	00000004 SPI2_IRQHandler
08005f64 g     F .text	0000012a memset
08001638 g     F .text	00000006 MemManage_Handler
080017ac g     F .text	000000ae main
200008a8 g     O .bss	00000004 __malloc_max_total_mem
08001650 g     F .text	0000000a SVC_Handler
08006fa8 g     F .text	00000008 __sclose
080071b0 g     F .text	00000010 fclose
08003ad8 g     F .text	000011f8 _dtoa_r
080055e8 g     F .text	00000530 _malloc_r
08007518 g     F .text	0000001a __ascii_wctomb
080004fc g     F .text	0000005a __aeabi_l2d
08005424 g     F .text	000000b6 _fwalk
080016e8  w    F .text	00000004 DMA1_Channel5_IRQHandler
080016e8  w    F .text	00000004 EXTI4_IRQHandler
080016e8  w    F .text	00000004 USB_LP_CAN1_RX0_IRQHandler
08004ee4 g     F .text	00000098 _malloc_trim_r
080013cc g     F .text	000000a8 SystemInit
0800098c g     F .text	0000007a __nedf2
080016e8  w    F .text	00000004 USB_HP_CAN1_TX_IRQHandler
08007070 g     F .text	00000028 _write_r
080016e8  w    F .text	00000004 DMA1_Channel3_IRQHandler
080016e8  w    F .text	00000004 FSMC_IRQHandler
20000430 g     O .data	00000004 _impure_ptr
080016e8  w    F .text	00000004 TIM1_UP_IRQHandler
080016e8  w    F .text	00000004 WWDG_IRQHandler
080016e8  w    F .text	00000004 TIM2_IRQHandler
080016e8  w    F .text	00000004 TIM1_BRK_IRQHandler
20010000 g       *ABS*	00000000 _estack
080016e8  w    F .text	00000004 EXTI1_IRQHandler
08000a28 g     F .text	00000012 __aeabi_dcmpeq
08001394 g     F .text	0000002c _write
200008a4 g       .data	00000000 _edata
080016e8  w    F .text	00000004 RTCAlarm_IRQHandler
080016e8  w    F .text	00000004 DMA2_Channel4_5_IRQHandler
080016e8  w    F .text	00000004 USART2_IRQHandler
08006f40 g     F .text	00000042 __swrite
20000898 g     O .data	00000004 __malloc_trim_threshold
08000000 g     O .isr_vector	00000000 g_pfnVectors
080067cc g     F .text	00000218 __mdiff
08000a8c g     F .text	0000004e __aeabi_d2iz
080016e8  w    F .text	00000004 I2C2_ER_IRQHandler
080016e8  w    F .text	00000004 DMA1_Channel2_IRQHandler
08004ee0 g     F .text	00000002 __sfp_lock_release
080016e8  w    F .text	00000004 TIM8_BRK_IRQHandler
08007580 g     F .text	00000012 _read
08000b68  w    F .text	00000002 __aeabi_idiv0
080016e8  w    F .text	00000004 CAN1_SCE_IRQHandler
080016e8  w    F .text	00000004 FLASH_IRQHandler
08001640 g     F .text	00000006 BusFault_Handler
08001680 g     F .text	0000000a USART1_IRQHandler
08005500 g     F .text	000000e8 __smakebuf_r
08001a00 g     F .text	0000005e strlen
080016e8  w    F .text	00000004 SPI3_IRQHandler
08000a18 g     F .text	00000010 __aeabi_cdcmpeq
0800097c g     F .text	0000008a __gedf2
200008a0 g     O .data	00000004 __wctomb
08000b08 g     F .text	0000002e __gnu_ldivmod_helper
080016e8  w    F .text	00000004 I2C1_ER_IRQHandler
08006fb0 g     F .text	000000c0 __sprint_r
080004b0 g     F .text	0000003a __aeabi_f2d
080001f0 g     F .text	0000027a __subdf3
08001a60 g     F .text	00001c48 _vfprintf_r
08006230 g     F .text	0000005a __lo0bits
080016e8  w    F .text	00000004 USBWakeUp_IRQHandler
08007534 g     F .text	00000012 _close
080016e8  w    F .text	00000004 DMA2_Channel3_IRQHandler
080060f8 g     F .text	000000fa __multadd
080060e4 g     F .text	00000012 _Bfree



Disassembly of section .text:

080001e8 <__aeabi_drsub>:
__aeabi_drsub():
 80001e8:	f081 4100 	eor.w	r1, r1, #2147483648	; 0x80000000
 80001ec:	e002      	b.n	80001f4 <__adddf3>
 80001ee:	bf00      	nop

080001f0 <__aeabi_dsub>:
__subdf3():
 80001f0:	f083 4300 	eor.w	r3, r3, #2147483648	; 0x80000000

080001f4 <__adddf3>:
__aeabi_dadd():
 80001f4:	b530      	push	{r4, r5, lr}
 80001f6:	ea4f 0441 	mov.w	r4, r1, lsl #1
 80001fa:	ea4f 0543 	mov.w	r5, r3, lsl #1
 80001fe:	ea94 0f05 	teq	r4, r5
 8000202:	bf08      	it	eq
 8000204:	ea90 0f02 	teqeq	r0, r2
 8000208:	bf1f      	itttt	ne
 800020a:	ea54 0c00 	orrsne.w	ip, r4, r0
 800020e:	ea55 0c02 	orrsne.w	ip, r5, r2
 8000212:	ea7f 5c64 	mvnsne.w	ip, r4, asr #21
 8000216:	ea7f 5c65 	mvnsne.w	ip, r5, asr #21
 800021a:	f000 80e2 	beq.w	80003e2 <__adddf3+0x1ee>
 800021e:	ea4f 5454 	mov.w	r4, r4, lsr #21
 8000222:	ebd4 5555 	rsbs	r5, r4, r5, lsr #21
 8000226:	bfb8      	it	lt
 8000228:	426d      	neglt	r5, r5
 800022a:	dd0c      	ble.n	8000246 <__adddf3+0x52>
 800022c:	442c      	add	r4, r5
 800022e:	ea80 0202 	eor.w	r2, r0, r2
 8000232:	ea81 0303 	eor.w	r3, r1, r3
 8000236:	ea82 0000 	eor.w	r0, r2, r0
 800023a:	ea83 0101 	eor.w	r1, r3, r1
 800023e:	ea80 0202 	eor.w	r2, r0, r2
 8000242:	ea81 0303 	eor.w	r3, r1, r3
 8000246:	2d36      	cmp	r5, #54	; 0x36
 8000248:	bf88      	it	hi
 800024a:	bd30      	pophi	{r4, r5, pc}
 800024c:	f011 4f00 	tst.w	r1, #2147483648	; 0x80000000
 8000250:	ea4f 3101 	mov.w	r1, r1, lsl #12
 8000254:	f44f 1c80 	mov.w	ip, #1048576	; 0x100000
 8000258:	ea4c 3111 	orr.w	r1, ip, r1, lsr #12
 800025c:	d002      	beq.n	8000264 <__adddf3+0x70>
 800025e:	4240      	negs	r0, r0
 8000260:	eb61 0141 	sbc.w	r1, r1, r1, lsl #1
 8000264:	f013 4f00 	tst.w	r3, #2147483648	; 0x80000000
 8000268:	ea4f 3303 	mov.w	r3, r3, lsl #12
 800026c:	ea4c 3313 	orr.w	r3, ip, r3, lsr #12
 8000270:	d002      	beq.n	8000278 <__adddf3+0x84>
 8000272:	4252      	negs	r2, r2
 8000274:	eb63 0343 	sbc.w	r3, r3, r3, lsl #1
 8000278:	ea94 0f05 	teq	r4, r5
 800027c:	f000 80a7 	beq.w	80003ce <__adddf3+0x1da>
 8000280:	f1a4 0401 	sub.w	r4, r4, #1
 8000284:	f1d5 0e20 	rsbs	lr, r5, #32
 8000288:	db0d      	blt.n	80002a6 <__adddf3+0xb2>
 800028a:	fa02 fc0e 	lsl.w	ip, r2, lr
 800028e:	fa22 f205 	lsr.w	r2, r2, r5
 8000292:	1880      	adds	r0, r0, r2
 8000294:	f141 0100 	adc.w	r1, r1, #0
 8000298:	fa03 f20e 	lsl.w	r2, r3, lr
 800029c:	1880      	adds	r0, r0, r2
 800029e:	fa43 f305 	asr.w	r3, r3, r5
 80002a2:	4159      	adcs	r1, r3
 80002a4:	e00e      	b.n	80002c4 <__adddf3+0xd0>
 80002a6:	f1a5 0520 	sub.w	r5, r5, #32
 80002aa:	f10e 0e20 	add.w	lr, lr, #32
 80002ae:	2a01      	cmp	r2, #1
 80002b0:	fa03 fc0e 	lsl.w	ip, r3, lr
 80002b4:	bf28      	it	cs
 80002b6:	f04c 0c02 	orrcs.w	ip, ip, #2
 80002ba:	fa43 f305 	asr.w	r3, r3, r5
 80002be:	18c0      	adds	r0, r0, r3
 80002c0:	eb51 71e3 	adcs.w	r1, r1, r3, asr #31
 80002c4:	f001 4500 	and.w	r5, r1, #2147483648	; 0x80000000
 80002c8:	d507      	bpl.n	80002da <__adddf3+0xe6>
 80002ca:	f04f 0e00 	mov.w	lr, #0
 80002ce:	f1dc 0c00 	rsbs	ip, ip, #0
 80002d2:	eb7e 0000 	sbcs.w	r0, lr, r0
 80002d6:	eb6e 0101 	sbc.w	r1, lr, r1
 80002da:	f5b1 1f80 	cmp.w	r1, #1048576	; 0x100000
 80002de:	d31b      	bcc.n	8000318 <__adddf3+0x124>
 80002e0:	f5b1 1f00 	cmp.w	r1, #2097152	; 0x200000
 80002e4:	d30c      	bcc.n	8000300 <__adddf3+0x10c>
 80002e6:	0849      	lsrs	r1, r1, #1
 80002e8:	ea5f 0030 	movs.w	r0, r0, rrx
 80002ec:	ea4f 0c3c 	mov.w	ip, ip, rrx
 80002f0:	f104 0401 	add.w	r4, r4, #1
 80002f4:	ea4f 5244 	mov.w	r2, r4, lsl #21
 80002f8:	f512 0f80 	cmn.w	r2, #4194304	; 0x400000
 80002fc:	f080 809a 	bcs.w	8000434 <__adddf3+0x240>
 8000300:	f1bc 4f00 	cmp.w	ip, #2147483648	; 0x80000000
 8000304:	bf08      	it	eq
 8000306:	ea5f 0c50 	movseq.w	ip, r0, lsr #1
 800030a:	f150 0000 	adcs.w	r0, r0, #0
 800030e:	eb41 5104 	adc.w	r1, r1, r4, lsl #20
 8000312:	ea41 0105 	orr.w	r1, r1, r5
 8000316:	bd30      	pop	{r4, r5, pc}
 8000318:	ea5f 0c4c 	movs.w	ip, ip, lsl #1
 800031c:	4140      	adcs	r0, r0
 800031e:	eb41 0101 	adc.w	r1, r1, r1
 8000322:	f411 1f80 	tst.w	r1, #1048576	; 0x100000
 8000326:	f1a4 0401 	sub.w	r4, r4, #1
 800032a:	d1e9      	bne.n	8000300 <__adddf3+0x10c>
 800032c:	f091 0f00 	teq	r1, #0
 8000330:	bf04      	itt	eq
 8000332:	4601      	moveq	r1, r0
 8000334:	2000      	moveq	r0, #0
 8000336:	fab1 f381 	clz	r3, r1
 800033a:	bf08      	it	eq
 800033c:	3320      	addeq	r3, #32
 800033e:	f1a3 030b 	sub.w	r3, r3, #11
 8000342:	f1b3 0220 	subs.w	r2, r3, #32
 8000346:	da0c      	bge.n	8000362 <__adddf3+0x16e>
 8000348:	320c      	adds	r2, #12
 800034a:	dd08      	ble.n	800035e <__adddf3+0x16a>
 800034c:	f102 0c14 	add.w	ip, r2, #20
 8000350:	f1c2 020c 	rsb	r2, r2, #12
 8000354:	fa01 f00c 	lsl.w	r0, r1, ip
 8000358:	fa21 f102 	lsr.w	r1, r1, r2
 800035c:	e00c      	b.n	8000378 <__adddf3+0x184>
 800035e:	f102 0214 	add.w	r2, r2, #20
 8000362:	bfd8      	it	le
 8000364:	f1c2 0c20 	rsble	ip, r2, #32
 8000368:	fa01 f102 	lsl.w	r1, r1, r2
 800036c:	fa20 fc0c 	lsr.w	ip, r0, ip
 8000370:	bfdc      	itt	le
 8000372:	ea41 010c 	orrle.w	r1, r1, ip
 8000376:	4090      	lslle	r0, r2
 8000378:	1ae4      	subs	r4, r4, r3
 800037a:	bfa2      	ittt	ge
 800037c:	eb01 5104 	addge.w	r1, r1, r4, lsl #20
 8000380:	4329      	orrge	r1, r5
 8000382:	bd30      	popge	{r4, r5, pc}
 8000384:	ea6f 0404 	mvn.w	r4, r4
 8000388:	3c1f      	subs	r4, #31
 800038a:	da1c      	bge.n	80003c6 <__adddf3+0x1d2>
 800038c:	340c      	adds	r4, #12
 800038e:	dc0e      	bgt.n	80003ae <__adddf3+0x1ba>
 8000390:	f104 0414 	add.w	r4, r4, #20
 8000394:	f1c4 0220 	rsb	r2, r4, #32
 8000398:	fa20 f004 	lsr.w	r0, r0, r4
 800039c:	fa01 f302 	lsl.w	r3, r1, r2
 80003a0:	ea40 0003 	orr.w	r0, r0, r3
 80003a4:	fa21 f304 	lsr.w	r3, r1, r4
 80003a8:	ea45 0103 	orr.w	r1, r5, r3
 80003ac:	bd30      	pop	{r4, r5, pc}
 80003ae:	f1c4 040c 	rsb	r4, r4, #12
 80003b2:	f1c4 0220 	rsb	r2, r4, #32
 80003b6:	fa20 f002 	lsr.w	r0, r0, r2
 80003ba:	fa01 f304 	lsl.w	r3, r1, r4
 80003be:	ea40 0003 	orr.w	r0, r0, r3
 80003c2:	4629      	mov	r1, r5
 80003c4:	bd30      	pop	{r4, r5, pc}
 80003c6:	fa21 f004 	lsr.w	r0, r1, r4
 80003ca:	4629      	mov	r1, r5
 80003cc:	bd30      	pop	{r4, r5, pc}
 80003ce:	f094 0f00 	teq	r4, #0
 80003d2:	f483 1380 	eor.w	r3, r3, #1048576	; 0x100000
 80003d6:	bf06      	itte	eq
 80003d8:	f481 1180 	eoreq.w	r1, r1, #1048576	; 0x100000
 80003dc:	3401      	addeq	r4, #1
 80003de:	3d01      	subne	r5, #1
 80003e0:	e74e      	b.n	8000280 <__adddf3+0x8c>
 80003e2:	ea7f 5c64 	mvns.w	ip, r4, asr #21
 80003e6:	bf18      	it	ne
 80003e8:	ea7f 5c65 	mvnsne.w	ip, r5, asr #21
 80003ec:	d029      	beq.n	8000442 <__adddf3+0x24e>
 80003ee:	ea94 0f05 	teq	r4, r5
 80003f2:	bf08      	it	eq
 80003f4:	ea90 0f02 	teqeq	r0, r2
 80003f8:	d005      	beq.n	8000406 <__adddf3+0x212>
 80003fa:	ea54 0c00 	orrs.w	ip, r4, r0
 80003fe:	bf04      	itt	eq
 8000400:	4619      	moveq	r1, r3
 8000402:	4610      	moveq	r0, r2
 8000404:	bd30      	pop	{r4, r5, pc}
 8000406:	ea91 0f03 	teq	r1, r3
 800040a:	bf1e      	ittt	ne
 800040c:	2100      	movne	r1, #0
 800040e:	2000      	movne	r0, #0
 8000410:	bd30      	popne	{r4, r5, pc}
 8000412:	ea5f 5c54 	movs.w	ip, r4, lsr #21
 8000416:	d105      	bne.n	8000424 <__adddf3+0x230>
 8000418:	0040      	lsls	r0, r0, #1
 800041a:	4149      	adcs	r1, r1
 800041c:	bf28      	it	cs
 800041e:	f041 4100 	orrcs.w	r1, r1, #2147483648	; 0x80000000
 8000422:	bd30      	pop	{r4, r5, pc}
 8000424:	f514 0480 	adds.w	r4, r4, #4194304	; 0x400000
 8000428:	bf3c      	itt	cc
 800042a:	f501 1180 	addcc.w	r1, r1, #1048576	; 0x100000
 800042e:	bd30      	popcc	{r4, r5, pc}
 8000430:	f001 4500 	and.w	r5, r1, #2147483648	; 0x80000000
 8000434:	f045 41fe 	orr.w	r1, r5, #2130706432	; 0x7f000000
 8000438:	f441 0170 	orr.w	r1, r1, #15728640	; 0xf00000
 800043c:	f04f 0000 	mov.w	r0, #0
 8000440:	bd30      	pop	{r4, r5, pc}
 8000442:	ea7f 5c64 	mvns.w	ip, r4, asr #21
 8000446:	bf1a      	itte	ne
 8000448:	4619      	movne	r1, r3
 800044a:	4610      	movne	r0, r2
 800044c:	ea7f 5c65 	mvnseq.w	ip, r5, asr #21
 8000450:	bf1c      	itt	ne
 8000452:	460b      	movne	r3, r1
 8000454:	4602      	movne	r2, r0
 8000456:	ea50 3401 	orrs.w	r4, r0, r1, lsl #12
 800045a:	bf06      	itte	eq
 800045c:	ea52 3503 	orrseq.w	r5, r2, r3, lsl #12
 8000460:	ea91 0f03 	teqeq	r1, r3
 8000464:	f441 2100 	orrne.w	r1, r1, #524288	; 0x80000
 8000468:	bd30      	pop	{r4, r5, pc}
 800046a:	bf00      	nop

0800046c <__aeabi_ui2d>:
__floatunsidf():
 800046c:	f090 0f00 	teq	r0, #0
 8000470:	bf04      	itt	eq
 8000472:	2100      	moveq	r1, #0
 8000474:	4770      	bxeq	lr
 8000476:	b530      	push	{r4, r5, lr}
 8000478:	f44f 6480 	mov.w	r4, #1024	; 0x400
 800047c:	f104 0432 	add.w	r4, r4, #50	; 0x32
 8000480:	f04f 0500 	mov.w	r5, #0
 8000484:	f04f 0100 	mov.w	r1, #0
 8000488:	e750      	b.n	800032c <__adddf3+0x138>
 800048a:	bf00      	nop

0800048c <__aeabi_i2d>:
__aeabi_i2d():
 800048c:	f090 0f00 	teq	r0, #0
 8000490:	bf04      	itt	eq
 8000492:	2100      	moveq	r1, #0
 8000494:	4770      	bxeq	lr
 8000496:	b530      	push	{r4, r5, lr}
 8000498:	f44f 6480 	mov.w	r4, #1024	; 0x400
 800049c:	f104 0432 	add.w	r4, r4, #50	; 0x32
 80004a0:	f010 4500 	ands.w	r5, r0, #2147483648	; 0x80000000
 80004a4:	bf48      	it	mi
 80004a6:	4240      	negmi	r0, r0
 80004a8:	f04f 0100 	mov.w	r1, #0
 80004ac:	e73e      	b.n	800032c <__adddf3+0x138>
 80004ae:	bf00      	nop

080004b0 <__aeabi_f2d>:
__aeabi_f2d():
 80004b0:	0042      	lsls	r2, r0, #1
 80004b2:	ea4f 01e2 	mov.w	r1, r2, asr #3
 80004b6:	ea4f 0131 	mov.w	r1, r1, rrx
 80004ba:	ea4f 7002 	mov.w	r0, r2, lsl #28
 80004be:	bf1f      	itttt	ne
 80004c0:	f012 437f 	andsne.w	r3, r2, #4278190080	; 0xff000000
 80004c4:	f093 4f7f 	teqne	r3, #4278190080	; 0xff000000
 80004c8:	f081 5160 	eorne.w	r1, r1, #939524096	; 0x38000000
 80004cc:	4770      	bxne	lr
 80004ce:	f092 0f00 	teq	r2, #0
 80004d2:	bf14      	ite	ne
 80004d4:	f093 4f7f 	teqne	r3, #4278190080	; 0xff000000
 80004d8:	4770      	bxeq	lr
 80004da:	b530      	push	{r4, r5, lr}
 80004dc:	f44f 7460 	mov.w	r4, #896	; 0x380
 80004e0:	f001 4500 	and.w	r5, r1, #2147483648	; 0x80000000
 80004e4:	f021 4100 	bic.w	r1, r1, #2147483648	; 0x80000000
 80004e8:	e720      	b.n	800032c <__adddf3+0x138>
 80004ea:	bf00      	nop

080004ec <__aeabi_ul2d>:
__floatundidf():
 80004ec:	ea50 0201 	orrs.w	r2, r0, r1
 80004f0:	bf08      	it	eq
 80004f2:	4770      	bxeq	lr
 80004f4:	b530      	push	{r4, r5, lr}
 80004f6:	f04f 0500 	mov.w	r5, #0
 80004fa:	e00a      	b.n	8000512 <__aeabi_l2d+0x16>

080004fc <__aeabi_l2d>:
__aeabi_l2d():
 80004fc:	ea50 0201 	orrs.w	r2, r0, r1
 8000500:	bf08      	it	eq
 8000502:	4770      	bxeq	lr
 8000504:	b530      	push	{r4, r5, lr}
 8000506:	f011 4500 	ands.w	r5, r1, #2147483648	; 0x80000000
 800050a:	d502      	bpl.n	8000512 <__aeabi_l2d+0x16>
 800050c:	4240      	negs	r0, r0
 800050e:	eb61 0141 	sbc.w	r1, r1, r1, lsl #1
 8000512:	f44f 6480 	mov.w	r4, #1024	; 0x400
 8000516:	f104 0432 	add.w	r4, r4, #50	; 0x32
 800051a:	ea5f 5c91 	movs.w	ip, r1, lsr #22
 800051e:	f43f aedc 	beq.w	80002da <__adddf3+0xe6>
 8000522:	f04f 0203 	mov.w	r2, #3
 8000526:	ea5f 0cdc 	movs.w	ip, ip, lsr #3
 800052a:	bf18      	it	ne
 800052c:	3203      	addne	r2, #3
 800052e:	ea5f 0cdc 	movs.w	ip, ip, lsr #3
 8000532:	bf18      	it	ne
 8000534:	3203      	addne	r2, #3
 8000536:	eb02 02dc 	add.w	r2, r2, ip, lsr #3
 800053a:	f1c2 0320 	rsb	r3, r2, #32
 800053e:	fa00 fc03 	lsl.w	ip, r0, r3
 8000542:	fa20 f002 	lsr.w	r0, r0, r2
 8000546:	fa01 fe03 	lsl.w	lr, r1, r3
 800054a:	ea40 000e 	orr.w	r0, r0, lr
 800054e:	fa21 f102 	lsr.w	r1, r1, r2
 8000552:	4414      	add	r4, r2
 8000554:	e6c1      	b.n	80002da <__adddf3+0xe6>
 8000556:	bf00      	nop

08000558 <__aeabi_dmul>:
__muldf3():
 8000558:	b570      	push	{r4, r5, r6, lr}
 800055a:	f04f 0cff 	mov.w	ip, #255	; 0xff
 800055e:	f44c 6ce0 	orr.w	ip, ip, #1792	; 0x700
 8000562:	ea1c 5411 	ands.w	r4, ip, r1, lsr #20
 8000566:	bf1d      	ittte	ne
 8000568:	ea1c 5513 	andsne.w	r5, ip, r3, lsr #20
 800056c:	ea94 0f0c 	teqne	r4, ip
 8000570:	ea95 0f0c 	teqne	r5, ip
 8000574:	f000 f8de 	bleq	8000734 <__aeabi_dmul+0x1dc>
 8000578:	442c      	add	r4, r5
 800057a:	ea81 0603 	eor.w	r6, r1, r3
 800057e:	ea21 514c 	bic.w	r1, r1, ip, lsl #21
 8000582:	ea23 534c 	bic.w	r3, r3, ip, lsl #21
 8000586:	ea50 3501 	orrs.w	r5, r0, r1, lsl #12
 800058a:	bf18      	it	ne
 800058c:	ea52 3503 	orrsne.w	r5, r2, r3, lsl #12
 8000590:	f441 1180 	orr.w	r1, r1, #1048576	; 0x100000
 8000594:	f443 1380 	orr.w	r3, r3, #1048576	; 0x100000
 8000598:	d038      	beq.n	800060c <__aeabi_dmul+0xb4>
 800059a:	fba0 ce02 	umull	ip, lr, r0, r2
 800059e:	f04f 0500 	mov.w	r5, #0
 80005a2:	fbe1 e502 	umlal	lr, r5, r1, r2
 80005a6:	f006 4200 	and.w	r2, r6, #2147483648	; 0x80000000
 80005aa:	fbe0 e503 	umlal	lr, r5, r0, r3
 80005ae:	f04f 0600 	mov.w	r6, #0
 80005b2:	fbe1 5603 	umlal	r5, r6, r1, r3
 80005b6:	f09c 0f00 	teq	ip, #0
 80005ba:	bf18      	it	ne
 80005bc:	f04e 0e01 	orrne.w	lr, lr, #1
 80005c0:	f1a4 04ff 	sub.w	r4, r4, #255	; 0xff
 80005c4:	f5b6 7f00 	cmp.w	r6, #512	; 0x200
 80005c8:	f564 7440 	sbc.w	r4, r4, #768	; 0x300
 80005cc:	d204      	bcs.n	80005d8 <__aeabi_dmul+0x80>
 80005ce:	ea5f 0e4e 	movs.w	lr, lr, lsl #1
 80005d2:	416d      	adcs	r5, r5
 80005d4:	eb46 0606 	adc.w	r6, r6, r6
 80005d8:	ea42 21c6 	orr.w	r1, r2, r6, lsl #11
 80005dc:	ea41 5155 	orr.w	r1, r1, r5, lsr #21
 80005e0:	ea4f 20c5 	mov.w	r0, r5, lsl #11
 80005e4:	ea40 505e 	orr.w	r0, r0, lr, lsr #21
 80005e8:	ea4f 2ece 	mov.w	lr, lr, lsl #11
 80005ec:	f1b4 0cfd 	subs.w	ip, r4, #253	; 0xfd
 80005f0:	bf88      	it	hi
 80005f2:	f5bc 6fe0 	cmphi.w	ip, #1792	; 0x700
 80005f6:	d81e      	bhi.n	8000636 <__aeabi_dmul+0xde>
 80005f8:	f1be 4f00 	cmp.w	lr, #2147483648	; 0x80000000
 80005fc:	bf08      	it	eq
 80005fe:	ea5f 0e50 	movseq.w	lr, r0, lsr #1
 8000602:	f150 0000 	adcs.w	r0, r0, #0
 8000606:	eb41 5104 	adc.w	r1, r1, r4, lsl #20
 800060a:	bd70      	pop	{r4, r5, r6, pc}
 800060c:	f006 4600 	and.w	r6, r6, #2147483648	; 0x80000000
 8000610:	ea46 0101 	orr.w	r1, r6, r1
 8000614:	ea40 0002 	orr.w	r0, r0, r2
 8000618:	ea81 0103 	eor.w	r1, r1, r3
 800061c:	ebb4 045c 	subs.w	r4, r4, ip, lsr #1
 8000620:	bfc2      	ittt	gt
 8000622:	ebd4 050c 	rsbsgt	r5, r4, ip
 8000626:	ea41 5104 	orrgt.w	r1, r1, r4, lsl #20
 800062a:	bd70      	popgt	{r4, r5, r6, pc}
 800062c:	f441 1180 	orr.w	r1, r1, #1048576	; 0x100000
 8000630:	f04f 0e00 	mov.w	lr, #0
 8000634:	3c01      	subs	r4, #1
 8000636:	f300 80ab 	bgt.w	8000790 <__aeabi_dmul+0x238>
 800063a:	f114 0f36 	cmn.w	r4, #54	; 0x36
 800063e:	bfde      	ittt	le
 8000640:	2000      	movle	r0, #0
 8000642:	f001 4100 	andle.w	r1, r1, #2147483648	; 0x80000000
 8000646:	bd70      	pople	{r4, r5, r6, pc}
 8000648:	f1c4 0400 	rsb	r4, r4, #0
 800064c:	3c20      	subs	r4, #32
 800064e:	da35      	bge.n	80006bc <__aeabi_dmul+0x164>
 8000650:	340c      	adds	r4, #12
 8000652:	dc1b      	bgt.n	800068c <__aeabi_dmul+0x134>
 8000654:	f104 0414 	add.w	r4, r4, #20
 8000658:	f1c4 0520 	rsb	r5, r4, #32
 800065c:	fa00 f305 	lsl.w	r3, r0, r5
 8000660:	fa20 f004 	lsr.w	r0, r0, r4
 8000664:	fa01 f205 	lsl.w	r2, r1, r5
 8000668:	ea40 0002 	orr.w	r0, r0, r2
 800066c:	f001 4200 	and.w	r2, r1, #2147483648	; 0x80000000
 8000670:	f021 4100 	bic.w	r1, r1, #2147483648	; 0x80000000
 8000674:	eb10 70d3 	adds.w	r0, r0, r3, lsr #31
 8000678:	fa21 f604 	lsr.w	r6, r1, r4
 800067c:	eb42 0106 	adc.w	r1, r2, r6
 8000680:	ea5e 0e43 	orrs.w	lr, lr, r3, lsl #1
 8000684:	bf08      	it	eq
 8000686:	ea20 70d3 	biceq.w	r0, r0, r3, lsr #31
 800068a:	bd70      	pop	{r4, r5, r6, pc}
 800068c:	f1c4 040c 	rsb	r4, r4, #12
 8000690:	f1c4 0520 	rsb	r5, r4, #32
 8000694:	fa00 f304 	lsl.w	r3, r0, r4
 8000698:	fa20 f005 	lsr.w	r0, r0, r5
 800069c:	fa01 f204 	lsl.w	r2, r1, r4
 80006a0:	ea40 0002 	orr.w	r0, r0, r2
 80006a4:	f001 4100 	and.w	r1, r1, #2147483648	; 0x80000000
 80006a8:	eb10 70d3 	adds.w	r0, r0, r3, lsr #31
 80006ac:	f141 0100 	adc.w	r1, r1, #0
 80006b0:	ea5e 0e43 	orrs.w	lr, lr, r3, lsl #1
 80006b4:	bf08      	it	eq
 80006b6:	ea20 70d3 	biceq.w	r0, r0, r3, lsr #31
 80006ba:	bd70      	pop	{r4, r5, r6, pc}
 80006bc:	f1c4 0520 	rsb	r5, r4, #32
 80006c0:	fa00 f205 	lsl.w	r2, r0, r5
 80006c4:	ea4e 0e02 	orr.w	lr, lr, r2
 80006c8:	fa20 f304 	lsr.w	r3, r0, r4
 80006cc:	fa01 f205 	lsl.w	r2, r1, r5
 80006d0:	ea43 0302 	orr.w	r3, r3, r2
 80006d4:	fa21 f004 	lsr.w	r0, r1, r4
 80006d8:	f001 4100 	and.w	r1, r1, #2147483648	; 0x80000000
 80006dc:	fa21 f204 	lsr.w	r2, r1, r4
 80006e0:	ea20 0002 	bic.w	r0, r0, r2
 80006e4:	eb00 70d3 	add.w	r0, r0, r3, lsr #31
 80006e8:	ea5e 0e43 	orrs.w	lr, lr, r3, lsl #1
 80006ec:	bf08      	it	eq
 80006ee:	ea20 70d3 	biceq.w	r0, r0, r3, lsr #31
 80006f2:	bd70      	pop	{r4, r5, r6, pc}
 80006f4:	f094 0f00 	teq	r4, #0
 80006f8:	d10f      	bne.n	800071a <__aeabi_dmul+0x1c2>
 80006fa:	f001 4600 	and.w	r6, r1, #2147483648	; 0x80000000
 80006fe:	0040      	lsls	r0, r0, #1
 8000700:	eb41 0101 	adc.w	r1, r1, r1
 8000704:	f411 1f80 	tst.w	r1, #1048576	; 0x100000
 8000708:	bf08      	it	eq
 800070a:	3c01      	subeq	r4, #1
 800070c:	d0f7      	beq.n	80006fe <__aeabi_dmul+0x1a6>
 800070e:	ea41 0106 	orr.w	r1, r1, r6
 8000712:	f095 0f00 	teq	r5, #0
 8000716:	bf18      	it	ne
 8000718:	4770      	bxne	lr
 800071a:	f003 4600 	and.w	r6, r3, #2147483648	; 0x80000000
 800071e:	0052      	lsls	r2, r2, #1
 8000720:	eb43 0303 	adc.w	r3, r3, r3
 8000724:	f413 1f80 	tst.w	r3, #1048576	; 0x100000
 8000728:	bf08      	it	eq
 800072a:	3d01      	subeq	r5, #1
 800072c:	d0f7      	beq.n	800071e <__aeabi_dmul+0x1c6>
 800072e:	ea43 0306 	orr.w	r3, r3, r6
 8000732:	4770      	bx	lr
 8000734:	ea94 0f0c 	teq	r4, ip
 8000738:	ea0c 5513 	and.w	r5, ip, r3, lsr #20
 800073c:	bf18      	it	ne
 800073e:	ea95 0f0c 	teqne	r5, ip
 8000742:	d00c      	beq.n	800075e <__aeabi_dmul+0x206>
 8000744:	ea50 0641 	orrs.w	r6, r0, r1, lsl #1
 8000748:	bf18      	it	ne
 800074a:	ea52 0643 	orrsne.w	r6, r2, r3, lsl #1
 800074e:	d1d1      	bne.n	80006f4 <__aeabi_dmul+0x19c>
 8000750:	ea81 0103 	eor.w	r1, r1, r3
 8000754:	f001 4100 	and.w	r1, r1, #2147483648	; 0x80000000
 8000758:	f04f 0000 	mov.w	r0, #0
 800075c:	bd70      	pop	{r4, r5, r6, pc}
 800075e:	ea50 0641 	orrs.w	r6, r0, r1, lsl #1
 8000762:	bf06      	itte	eq
 8000764:	4610      	moveq	r0, r2
 8000766:	4619      	moveq	r1, r3
 8000768:	ea52 0643 	orrsne.w	r6, r2, r3, lsl #1
 800076c:	d019      	beq.n	80007a2 <__aeabi_dmul+0x24a>
 800076e:	ea94 0f0c 	teq	r4, ip
 8000772:	d102      	bne.n	800077a <__aeabi_dmul+0x222>
 8000774:	ea50 3601 	orrs.w	r6, r0, r1, lsl #12
 8000778:	d113      	bne.n	80007a2 <__aeabi_dmul+0x24a>
 800077a:	ea95 0f0c 	teq	r5, ip
 800077e:	d105      	bne.n	800078c <__aeabi_dmul+0x234>
 8000780:	ea52 3603 	orrs.w	r6, r2, r3, lsl #12
 8000784:	bf1c      	itt	ne
 8000786:	4610      	movne	r0, r2
 8000788:	4619      	movne	r1, r3
 800078a:	d10a      	bne.n	80007a2 <__aeabi_dmul+0x24a>
 800078c:	ea81 0103 	eor.w	r1, r1, r3
 8000790:	f001 4100 	and.w	r1, r1, #2147483648	; 0x80000000
 8000794:	f041 41fe 	orr.w	r1, r1, #2130706432	; 0x7f000000
 8000798:	f441 0170 	orr.w	r1, r1, #15728640	; 0xf00000
 800079c:	f04f 0000 	mov.w	r0, #0
 80007a0:	bd70      	pop	{r4, r5, r6, pc}
 80007a2:	f041 41fe 	orr.w	r1, r1, #2130706432	; 0x7f000000
 80007a6:	f441 0178 	orr.w	r1, r1, #16252928	; 0xf80000
 80007aa:	bd70      	pop	{r4, r5, r6, pc}

080007ac <__aeabi_ddiv>:
__divdf3():
 80007ac:	b570      	push	{r4, r5, r6, lr}
 80007ae:	f04f 0cff 	mov.w	ip, #255	; 0xff
 80007b2:	f44c 6ce0 	orr.w	ip, ip, #1792	; 0x700
 80007b6:	ea1c 5411 	ands.w	r4, ip, r1, lsr #20
 80007ba:	bf1d      	ittte	ne
 80007bc:	ea1c 5513 	andsne.w	r5, ip, r3, lsr #20
 80007c0:	ea94 0f0c 	teqne	r4, ip
 80007c4:	ea95 0f0c 	teqne	r5, ip
 80007c8:	f000 f8a7 	bleq	800091a <__aeabi_ddiv+0x16e>
 80007cc:	eba4 0405 	sub.w	r4, r4, r5
 80007d0:	ea81 0e03 	eor.w	lr, r1, r3
 80007d4:	ea52 3503 	orrs.w	r5, r2, r3, lsl #12
 80007d8:	ea4f 3101 	mov.w	r1, r1, lsl #12
 80007dc:	f000 8088 	beq.w	80008f0 <__aeabi_ddiv+0x144>
 80007e0:	ea4f 3303 	mov.w	r3, r3, lsl #12
 80007e4:	f04f 5580 	mov.w	r5, #268435456	; 0x10000000
 80007e8:	ea45 1313 	orr.w	r3, r5, r3, lsr #4
 80007ec:	ea43 6312 	orr.w	r3, r3, r2, lsr #24
 80007f0:	ea4f 2202 	mov.w	r2, r2, lsl #8
 80007f4:	ea45 1511 	orr.w	r5, r5, r1, lsr #4
 80007f8:	ea45 6510 	orr.w	r5, r5, r0, lsr #24
 80007fc:	ea4f 2600 	mov.w	r6, r0, lsl #8
 8000800:	f00e 4100 	and.w	r1, lr, #2147483648	; 0x80000000
 8000804:	429d      	cmp	r5, r3
 8000806:	bf08      	it	eq
 8000808:	4296      	cmpeq	r6, r2
 800080a:	f144 04fd 	adc.w	r4, r4, #253	; 0xfd
 800080e:	f504 7440 	add.w	r4, r4, #768	; 0x300
 8000812:	d202      	bcs.n	800081a <__aeabi_ddiv+0x6e>
 8000814:	085b      	lsrs	r3, r3, #1
 8000816:	ea4f 0232 	mov.w	r2, r2, rrx
 800081a:	1ab6      	subs	r6, r6, r2
 800081c:	eb65 0503 	sbc.w	r5, r5, r3
 8000820:	085b      	lsrs	r3, r3, #1
 8000822:	ea4f 0232 	mov.w	r2, r2, rrx
 8000826:	f44f 1080 	mov.w	r0, #1048576	; 0x100000
 800082a:	f44f 2c00 	mov.w	ip, #524288	; 0x80000
 800082e:	ebb6 0e02 	subs.w	lr, r6, r2
 8000832:	eb75 0e03 	sbcs.w	lr, r5, r3
 8000836:	bf22      	ittt	cs
 8000838:	1ab6      	subcs	r6, r6, r2
 800083a:	4675      	movcs	r5, lr
 800083c:	ea40 000c 	orrcs.w	r0, r0, ip
 8000840:	085b      	lsrs	r3, r3, #1
 8000842:	ea4f 0232 	mov.w	r2, r2, rrx
 8000846:	ebb6 0e02 	subs.w	lr, r6, r2
 800084a:	eb75 0e03 	sbcs.w	lr, r5, r3
 800084e:	bf22      	ittt	cs
 8000850:	1ab6      	subcs	r6, r6, r2
 8000852:	4675      	movcs	r5, lr
 8000854:	ea40 005c 	orrcs.w	r0, r0, ip, lsr #1
 8000858:	085b      	lsrs	r3, r3, #1
 800085a:	ea4f 0232 	mov.w	r2, r2, rrx
 800085e:	ebb6 0e02 	subs.w	lr, r6, r2
 8000862:	eb75 0e03 	sbcs.w	lr, r5, r3
 8000866:	bf22      	ittt	cs
 8000868:	1ab6      	subcs	r6, r6, r2
 800086a:	4675      	movcs	r5, lr
 800086c:	ea40 009c 	orrcs.w	r0, r0, ip, lsr #2
 8000870:	085b      	lsrs	r3, r3, #1
 8000872:	ea4f 0232 	mov.w	r2, r2, rrx
 8000876:	ebb6 0e02 	subs.w	lr, r6, r2
 800087a:	eb75 0e03 	sbcs.w	lr, r5, r3
 800087e:	bf22      	ittt	cs
 8000880:	1ab6      	subcs	r6, r6, r2
 8000882:	4675      	movcs	r5, lr
 8000884:	ea40 00dc 	orrcs.w	r0, r0, ip, lsr #3
 8000888:	ea55 0e06 	orrs.w	lr, r5, r6
 800088c:	d018      	beq.n	80008c0 <__aeabi_ddiv+0x114>
 800088e:	ea4f 1505 	mov.w	r5, r5, lsl #4
 8000892:	ea45 7516 	orr.w	r5, r5, r6, lsr #28
 8000896:	ea4f 1606 	mov.w	r6, r6, lsl #4
 800089a:	ea4f 03c3 	mov.w	r3, r3, lsl #3
 800089e:	ea43 7352 	orr.w	r3, r3, r2, lsr #29
 80008a2:	ea4f 02c2 	mov.w	r2, r2, lsl #3
 80008a6:	ea5f 1c1c 	movs.w	ip, ip, lsr #4
 80008aa:	d1c0      	bne.n	800082e <__aeabi_ddiv+0x82>
 80008ac:	f411 1f80 	tst.w	r1, #1048576	; 0x100000
 80008b0:	d10b      	bne.n	80008ca <__aeabi_ddiv+0x11e>
 80008b2:	ea41 0100 	orr.w	r1, r1, r0
 80008b6:	f04f 0000 	mov.w	r0, #0
 80008ba:	f04f 4c00 	mov.w	ip, #2147483648	; 0x80000000
 80008be:	e7b6      	b.n	800082e <__aeabi_ddiv+0x82>
 80008c0:	f411 1f80 	tst.w	r1, #1048576	; 0x100000
 80008c4:	bf04      	itt	eq
 80008c6:	4301      	orreq	r1, r0
 80008c8:	2000      	moveq	r0, #0
 80008ca:	f1b4 0cfd 	subs.w	ip, r4, #253	; 0xfd
 80008ce:	bf88      	it	hi
 80008d0:	f5bc 6fe0 	cmphi.w	ip, #1792	; 0x700
 80008d4:	f63f aeaf 	bhi.w	8000636 <__aeabi_dmul+0xde>
 80008d8:	ebb5 0c03 	subs.w	ip, r5, r3
 80008dc:	bf04      	itt	eq
 80008de:	ebb6 0c02 	subseq.w	ip, r6, r2
 80008e2:	ea5f 0c50 	movseq.w	ip, r0, lsr #1
 80008e6:	f150 0000 	adcs.w	r0, r0, #0
 80008ea:	eb41 5104 	adc.w	r1, r1, r4, lsl #20
 80008ee:	bd70      	pop	{r4, r5, r6, pc}
 80008f0:	f00e 4e00 	and.w	lr, lr, #2147483648	; 0x80000000
 80008f4:	ea4e 3111 	orr.w	r1, lr, r1, lsr #12
 80008f8:	eb14 045c 	adds.w	r4, r4, ip, lsr #1
 80008fc:	bfc2      	ittt	gt
 80008fe:	ebd4 050c 	rsbsgt	r5, r4, ip
 8000902:	ea41 5104 	orrgt.w	r1, r1, r4, lsl #20
 8000906:	bd70      	popgt	{r4, r5, r6, pc}
 8000908:	f441 1180 	orr.w	r1, r1, #1048576	; 0x100000
 800090c:	f04f 0e00 	mov.w	lr, #0
 8000910:	3c01      	subs	r4, #1
 8000912:	e690      	b.n	8000636 <__aeabi_dmul+0xde>
 8000914:	ea45 0e06 	orr.w	lr, r5, r6
 8000918:	e68d      	b.n	8000636 <__aeabi_dmul+0xde>
 800091a:	ea0c 5513 	and.w	r5, ip, r3, lsr #20
 800091e:	ea94 0f0c 	teq	r4, ip
 8000922:	bf08      	it	eq
 8000924:	ea95 0f0c 	teqeq	r5, ip
 8000928:	f43f af3b 	beq.w	80007a2 <__aeabi_dmul+0x24a>
 800092c:	ea94 0f0c 	teq	r4, ip
 8000930:	d10a      	bne.n	8000948 <__aeabi_ddiv+0x19c>
 8000932:	ea50 3401 	orrs.w	r4, r0, r1, lsl #12
 8000936:	f47f af34 	bne.w	80007a2 <__aeabi_dmul+0x24a>
 800093a:	ea95 0f0c 	teq	r5, ip
 800093e:	f47f af25 	bne.w	800078c <__aeabi_dmul+0x234>
 8000942:	4610      	mov	r0, r2
 8000944:	4619      	mov	r1, r3
 8000946:	e72c      	b.n	80007a2 <__aeabi_dmul+0x24a>
 8000948:	ea95 0f0c 	teq	r5, ip
 800094c:	d106      	bne.n	800095c <__aeabi_ddiv+0x1b0>
 800094e:	ea52 3503 	orrs.w	r5, r2, r3, lsl #12
 8000952:	f43f aefd 	beq.w	8000750 <__aeabi_dmul+0x1f8>
 8000956:	4610      	mov	r0, r2
 8000958:	4619      	mov	r1, r3
 800095a:	e722      	b.n	80007a2 <__aeabi_dmul+0x24a>
 800095c:	ea50 0641 	orrs.w	r6, r0, r1, lsl #1
 8000960:	bf18      	it	ne
 8000962:	ea52 0643 	orrsne.w	r6, r2, r3, lsl #1
 8000966:	f47f aec5 	bne.w	80006f4 <__aeabi_dmul+0x19c>
 800096a:	ea50 0441 	orrs.w	r4, r0, r1, lsl #1
 800096e:	f47f af0d 	bne.w	800078c <__aeabi_dmul+0x234>
 8000972:	ea52 0543 	orrs.w	r5, r2, r3, lsl #1
 8000976:	f47f aeeb 	bne.w	8000750 <__aeabi_dmul+0x1f8>
 800097a:	e712      	b.n	80007a2 <__aeabi_dmul+0x24a>

0800097c <__gedf2>:
__gedf2():
 800097c:	f04f 3cff 	mov.w	ip, #4294967295	; 0xffffffff
 8000980:	e006      	b.n	8000990 <__cmpdf2+0x4>
 8000982:	bf00      	nop

08000984 <__ledf2>:
__ledf2():
 8000984:	f04f 0c01 	mov.w	ip, #1
 8000988:	e002      	b.n	8000990 <__cmpdf2+0x4>
 800098a:	bf00      	nop

0800098c <__cmpdf2>:
__nedf2():
 800098c:	f04f 0c01 	mov.w	ip, #1
 8000990:	f84d cd04 	str.w	ip, [sp, #-4]!
 8000994:	ea4f 0c41 	mov.w	ip, r1, lsl #1
 8000998:	ea7f 5c6c 	mvns.w	ip, ip, asr #21
 800099c:	ea4f 0c43 	mov.w	ip, r3, lsl #1
 80009a0:	bf18      	it	ne
 80009a2:	ea7f 5c6c 	mvnsne.w	ip, ip, asr #21
 80009a6:	d01b      	beq.n	80009e0 <__cmpdf2+0x54>
 80009a8:	b001      	add	sp, #4
 80009aa:	ea50 0c41 	orrs.w	ip, r0, r1, lsl #1
 80009ae:	bf0c      	ite	eq
 80009b0:	ea52 0c43 	orrseq.w	ip, r2, r3, lsl #1
 80009b4:	ea91 0f03 	teqne	r1, r3
 80009b8:	bf02      	ittt	eq
 80009ba:	ea90 0f02 	teqeq	r0, r2
 80009be:	2000      	moveq	r0, #0
 80009c0:	4770      	bxeq	lr
 80009c2:	f110 0f00 	cmn.w	r0, #0
 80009c6:	ea91 0f03 	teq	r1, r3
 80009ca:	bf58      	it	pl
 80009cc:	4299      	cmppl	r1, r3
 80009ce:	bf08      	it	eq
 80009d0:	4290      	cmpeq	r0, r2
 80009d2:	bf2c      	ite	cs
 80009d4:	17d8      	asrcs	r0, r3, #31
 80009d6:	ea6f 70e3 	mvncc.w	r0, r3, asr #31
 80009da:	f040 0001 	orr.w	r0, r0, #1
 80009de:	4770      	bx	lr
 80009e0:	ea4f 0c41 	mov.w	ip, r1, lsl #1
 80009e4:	ea7f 5c6c 	mvns.w	ip, ip, asr #21
 80009e8:	d102      	bne.n	80009f0 <__cmpdf2+0x64>
 80009ea:	ea50 3c01 	orrs.w	ip, r0, r1, lsl #12
 80009ee:	d107      	bne.n	8000a00 <__cmpdf2+0x74>
 80009f0:	ea4f 0c43 	mov.w	ip, r3, lsl #1
 80009f4:	ea7f 5c6c 	mvns.w	ip, ip, asr #21
 80009f8:	d1d6      	bne.n	80009a8 <__cmpdf2+0x1c>
 80009fa:	ea52 3c03 	orrs.w	ip, r2, r3, lsl #12
 80009fe:	d0d3      	beq.n	80009a8 <__cmpdf2+0x1c>
 8000a00:	f85d 0b04 	ldr.w	r0, [sp], #4
 8000a04:	4770      	bx	lr
 8000a06:	bf00      	nop

08000a08 <__aeabi_cdrcmple>:
__aeabi_cdrcmple():
 8000a08:	4684      	mov	ip, r0
 8000a0a:	4610      	mov	r0, r2
 8000a0c:	4662      	mov	r2, ip
 8000a0e:	468c      	mov	ip, r1
 8000a10:	4619      	mov	r1, r3
 8000a12:	4663      	mov	r3, ip
 8000a14:	e000      	b.n	8000a18 <__aeabi_cdcmpeq>
 8000a16:	bf00      	nop

08000a18 <__aeabi_cdcmpeq>:
__aeabi_cdcmpeq():
 8000a18:	b501      	push	{r0, lr}
 8000a1a:	f7ff ffb7 	bl	800098c <__cmpdf2>
 8000a1e:	2800      	cmp	r0, #0
 8000a20:	bf48      	it	mi
 8000a22:	f110 0f00 	cmnmi.w	r0, #0
 8000a26:	bd01      	pop	{r0, pc}

08000a28 <__aeabi_dcmpeq>:
__aeabi_dcmpeq():
 8000a28:	f84d ed08 	str.w	lr, [sp, #-8]!
 8000a2c:	f7ff fff4 	bl	8000a18 <__aeabi_cdcmpeq>
 8000a30:	bf0c      	ite	eq
 8000a32:	2001      	moveq	r0, #1
 8000a34:	2000      	movne	r0, #0
 8000a36:	f85d fb08 	ldr.w	pc, [sp], #8
 8000a3a:	bf00      	nop

08000a3c <__aeabi_dcmplt>:
__aeabi_dcmplt():
 8000a3c:	f84d ed08 	str.w	lr, [sp, #-8]!
 8000a40:	f7ff ffea 	bl	8000a18 <__aeabi_cdcmpeq>
 8000a44:	bf34      	ite	cc
 8000a46:	2001      	movcc	r0, #1
 8000a48:	2000      	movcs	r0, #0
 8000a4a:	f85d fb08 	ldr.w	pc, [sp], #8
 8000a4e:	bf00      	nop

08000a50 <__aeabi_dcmple>:
__aeabi_dcmple():
 8000a50:	f84d ed08 	str.w	lr, [sp, #-8]!
 8000a54:	f7ff ffe0 	bl	8000a18 <__aeabi_cdcmpeq>
 8000a58:	bf94      	ite	ls
 8000a5a:	2001      	movls	r0, #1
 8000a5c:	2000      	movhi	r0, #0
 8000a5e:	f85d fb08 	ldr.w	pc, [sp], #8
 8000a62:	bf00      	nop

08000a64 <__aeabi_dcmpge>:
__aeabi_dcmpge():
 8000a64:	f84d ed08 	str.w	lr, [sp, #-8]!
 8000a68:	f7ff ffce 	bl	8000a08 <__aeabi_cdrcmple>
 8000a6c:	bf94      	ite	ls
 8000a6e:	2001      	movls	r0, #1
 8000a70:	2000      	movhi	r0, #0
 8000a72:	f85d fb08 	ldr.w	pc, [sp], #8
 8000a76:	bf00      	nop

08000a78 <__aeabi_dcmpgt>:
__aeabi_dcmpgt():
 8000a78:	f84d ed08 	str.w	lr, [sp, #-8]!
 8000a7c:	f7ff ffc4 	bl	8000a08 <__aeabi_cdrcmple>
 8000a80:	bf34      	ite	cc
 8000a82:	2001      	movcc	r0, #1
 8000a84:	2000      	movcs	r0, #0
 8000a86:	f85d fb08 	ldr.w	pc, [sp], #8
 8000a8a:	bf00      	nop

08000a8c <__aeabi_d2iz>:
__aeabi_d2iz():
 8000a8c:	ea4f 0241 	mov.w	r2, r1, lsl #1
 8000a90:	f512 1200 	adds.w	r2, r2, #2097152	; 0x200000
 8000a94:	d215      	bcs.n	8000ac2 <__aeabi_d2iz+0x36>
 8000a96:	d511      	bpl.n	8000abc <__aeabi_d2iz+0x30>
 8000a98:	f46f 7378 	mvn.w	r3, #992	; 0x3e0
 8000a9c:	ebb3 5262 	subs.w	r2, r3, r2, asr #21
 8000aa0:	d912      	bls.n	8000ac8 <__aeabi_d2iz+0x3c>
 8000aa2:	ea4f 23c1 	mov.w	r3, r1, lsl #11
 8000aa6:	f043 4300 	orr.w	r3, r3, #2147483648	; 0x80000000
 8000aaa:	ea43 5350 	orr.w	r3, r3, r0, lsr #21
 8000aae:	f011 4f00 	tst.w	r1, #2147483648	; 0x80000000
 8000ab2:	fa23 f002 	lsr.w	r0, r3, r2
 8000ab6:	bf18      	it	ne
 8000ab8:	4240      	negne	r0, r0
 8000aba:	4770      	bx	lr
 8000abc:	f04f 0000 	mov.w	r0, #0
 8000ac0:	4770      	bx	lr
 8000ac2:	ea50 3001 	orrs.w	r0, r0, r1, lsl #12
 8000ac6:	d105      	bne.n	8000ad4 <__aeabi_d2iz+0x48>
 8000ac8:	f011 4000 	ands.w	r0, r1, #2147483648	; 0x80000000
 8000acc:	bf08      	it	eq
 8000ace:	f06f 4000 	mvneq.w	r0, #2147483648	; 0x80000000
 8000ad2:	4770      	bx	lr
 8000ad4:	f04f 0000 	mov.w	r0, #0
 8000ad8:	4770      	bx	lr
 8000ada:	bf00      	nop

08000adc <__aeabi_uldivmod>:
__aeabi_uldivmod():
 8000adc:	b94b      	cbnz	r3, 8000af2 <__aeabi_uldivmod+0x16>
 8000ade:	b942      	cbnz	r2, 8000af2 <__aeabi_uldivmod+0x16>
 8000ae0:	2900      	cmp	r1, #0
 8000ae2:	bf08      	it	eq
 8000ae4:	2800      	cmpeq	r0, #0
 8000ae6:	d002      	beq.n	8000aee <__aeabi_uldivmod+0x12>
 8000ae8:	f04f 31ff 	mov.w	r1, #4294967295	; 0xffffffff
 8000aec:	4608      	mov	r0, r1
 8000aee:	f000 b83b 	b.w	8000b68 <__aeabi_idiv0>
 8000af2:	b082      	sub	sp, #8
 8000af4:	46ec      	mov	ip, sp
 8000af6:	e92d 5000 	stmdb	sp!, {ip, lr}
 8000afa:	f000 f81d 	bl	8000b38 <__gnu_uldivmod_helper>
 8000afe:	f8dd e004 	ldr.w	lr, [sp, #4]
 8000b02:	b002      	add	sp, #8
 8000b04:	bc0c      	pop	{r2, r3}
 8000b06:	4770      	bx	lr

08000b08 <__gnu_ldivmod_helper>:
__gnu_ldivmod_helper():
 8000b08:	e92d 41f0 	stmdb	sp!, {r4, r5, r6, r7, r8, lr}
 8000b0c:	4616      	mov	r6, r2
 8000b0e:	4698      	mov	r8, r3
 8000b10:	4604      	mov	r4, r0
 8000b12:	460d      	mov	r5, r1
 8000b14:	f000 f82a 	bl	8000b6c <__divdi3>
 8000b18:	fb06 fc01 	mul.w	ip, r6, r1
 8000b1c:	fba6 2300 	umull	r2, r3, r6, r0
 8000b20:	fb00 c708 	mla	r7, r0, r8, ip
 8000b24:	18fb      	adds	r3, r7, r3
 8000b26:	1aa2      	subs	r2, r4, r2
 8000b28:	eb65 0303 	sbc.w	r3, r5, r3
 8000b2c:	9c06      	ldr	r4, [sp, #24]
 8000b2e:	e9c4 2300 	strd	r2, r3, [r4]
 8000b32:	e8bd 81f0 	ldmia.w	sp!, {r4, r5, r6, r7, r8, pc}
 8000b36:	bf00      	nop

08000b38 <__gnu_uldivmod_helper>:
__gnu_uldivmod_helper():
 8000b38:	e92d 41f0 	stmdb	sp!, {r4, r5, r6, r7, r8, lr}
 8000b3c:	4690      	mov	r8, r2
 8000b3e:	4606      	mov	r6, r0
 8000b40:	460f      	mov	r7, r1
 8000b42:	461d      	mov	r5, r3
 8000b44:	f000 f970 	bl	8000e28 <__udivdi3>
 8000b48:	fb00 f305 	mul.w	r3, r0, r5
 8000b4c:	fba0 4508 	umull	r4, r5, r0, r8
 8000b50:	fb08 3801 	mla	r8, r8, r1, r3
 8000b54:	9b06      	ldr	r3, [sp, #24]
 8000b56:	4445      	add	r5, r8
 8000b58:	1b34      	subs	r4, r6, r4
 8000b5a:	eb67 0505 	sbc.w	r5, r7, r5
 8000b5e:	e9c3 4500 	strd	r4, r5, [r3]
 8000b62:	e8bd 81f0 	ldmia.w	sp!, {r4, r5, r6, r7, r8, pc}
 8000b66:	bf00      	nop

08000b68 <__aeabi_idiv0>:
__aeabi_idiv0():
 8000b68:	4770      	bx	lr
 8000b6a:	bf00      	nop

08000b6c <__divdi3>:
__divdi3():
 8000b6c:	2900      	cmp	r1, #0
 8000b6e:	e92d 0ff0 	stmdb	sp!, {r4, r5, r6, r7, r8, r9, sl, fp}
 8000b72:	461d      	mov	r5, r3
 8000b74:	f2c0 809d 	blt.w	8000cb2 <__divdi3+0x146>
 8000b78:	2400      	movs	r4, #0
 8000b7a:	2d00      	cmp	r5, #0
 8000b7c:	f2c0 8094 	blt.w	8000ca8 <__divdi3+0x13c>
 8000b80:	4680      	mov	r8, r0
 8000b82:	460f      	mov	r7, r1
 8000b84:	4694      	mov	ip, r2
 8000b86:	461e      	mov	r6, r3
 8000b88:	bbe3      	cbnz	r3, 8000c04 <__divdi3+0x98>
 8000b8a:	428a      	cmp	r2, r1
 8000b8c:	d955      	bls.n	8000c3a <__divdi3+0xce>
 8000b8e:	fab2 f782 	clz	r7, r2
 8000b92:	b147      	cbz	r7, 8000ba6 <__divdi3+0x3a>
 8000b94:	f1c7 0520 	rsb	r5, r7, #32
 8000b98:	fa20 f605 	lsr.w	r6, r0, r5
 8000b9c:	fa01 f107 	lsl.w	r1, r1, r7
 8000ba0:	40ba      	lsls	r2, r7
 8000ba2:	40b8      	lsls	r0, r7
 8000ba4:	4331      	orrs	r1, r6
 8000ba6:	0c17      	lsrs	r7, r2, #16
 8000ba8:	fbb1 f6f7 	udiv	r6, r1, r7
 8000bac:	fa1f fc82 	uxth.w	ip, r2
 8000bb0:	fb07 1116 	mls	r1, r7, r6, r1
 8000bb4:	fb0c f506 	mul.w	r5, ip, r6
 8000bb8:	0c03      	lsrs	r3, r0, #16
 8000bba:	ea43 4301 	orr.w	r3, r3, r1, lsl #16
 8000bbe:	429d      	cmp	r5, r3
 8000bc0:	d908      	bls.n	8000bd4 <__divdi3+0x68>
 8000bc2:	1e71      	subs	r1, r6, #1
 8000bc4:	189b      	adds	r3, r3, r2
 8000bc6:	f080 8113 	bcs.w	8000df0 <__divdi3+0x284>
 8000bca:	429d      	cmp	r5, r3
 8000bcc:	f240 8110 	bls.w	8000df0 <__divdi3+0x284>
 8000bd0:	3e02      	subs	r6, #2
 8000bd2:	189b      	adds	r3, r3, r2
 8000bd4:	1b59      	subs	r1, r3, r5
 8000bd6:	fbb1 f5f7 	udiv	r5, r1, r7
 8000bda:	fb07 1315 	mls	r3, r7, r5, r1
 8000bde:	fb0c fc05 	mul.w	ip, ip, r5
 8000be2:	b280      	uxth	r0, r0
 8000be4:	ea40 4103 	orr.w	r1, r0, r3, lsl #16
 8000be8:	458c      	cmp	ip, r1
 8000bea:	d907      	bls.n	8000bfc <__divdi3+0x90>
 8000bec:	1e6b      	subs	r3, r5, #1
 8000bee:	188a      	adds	r2, r1, r2
 8000bf0:	f080 8100 	bcs.w	8000df4 <__divdi3+0x288>
 8000bf4:	4594      	cmp	ip, r2
 8000bf6:	f240 80fd 	bls.w	8000df4 <__divdi3+0x288>
 8000bfa:	3d02      	subs	r5, #2
 8000bfc:	ea45 4106 	orr.w	r1, r5, r6, lsl #16
 8000c00:	2500      	movs	r5, #0
 8000c02:	e003      	b.n	8000c0c <__divdi3+0xa0>
 8000c04:	428b      	cmp	r3, r1
 8000c06:	d90c      	bls.n	8000c22 <__divdi3+0xb6>
 8000c08:	2500      	movs	r5, #0
 8000c0a:	4629      	mov	r1, r5
 8000c0c:	460a      	mov	r2, r1
 8000c0e:	462b      	mov	r3, r5
 8000c10:	b114      	cbz	r4, 8000c18 <__divdi3+0xac>
 8000c12:	4252      	negs	r2, r2
 8000c14:	eb63 0343 	sbc.w	r3, r3, r3, lsl #1
 8000c18:	4610      	mov	r0, r2
 8000c1a:	4619      	mov	r1, r3
 8000c1c:	e8bd 0ff0 	ldmia.w	sp!, {r4, r5, r6, r7, r8, r9, sl, fp}
 8000c20:	4770      	bx	lr
 8000c22:	fab3 f583 	clz	r5, r3
 8000c26:	2d00      	cmp	r5, #0
 8000c28:	f040 8087 	bne.w	8000d3a <__divdi3+0x1ce>
 8000c2c:	428b      	cmp	r3, r1
 8000c2e:	d301      	bcc.n	8000c34 <__divdi3+0xc8>
 8000c30:	4282      	cmp	r2, r0
 8000c32:	d8ea      	bhi.n	8000c0a <__divdi3+0x9e>
 8000c34:	2500      	movs	r5, #0
 8000c36:	2101      	movs	r1, #1
 8000c38:	e7e8      	b.n	8000c0c <__divdi3+0xa0>
 8000c3a:	b912      	cbnz	r2, 8000c42 <__divdi3+0xd6>
 8000c3c:	2601      	movs	r6, #1
 8000c3e:	fbb6 f2f2 	udiv	r2, r6, r2
 8000c42:	fab2 f682 	clz	r6, r2
 8000c46:	2e00      	cmp	r6, #0
 8000c48:	d139      	bne.n	8000cbe <__divdi3+0x152>
 8000c4a:	1a8e      	subs	r6, r1, r2
 8000c4c:	0c13      	lsrs	r3, r2, #16
 8000c4e:	fa1f fc82 	uxth.w	ip, r2
 8000c52:	2501      	movs	r5, #1
 8000c54:	fbb6 f7f3 	udiv	r7, r6, r3
 8000c58:	fb03 6117 	mls	r1, r3, r7, r6
 8000c5c:	fb0c f807 	mul.w	r8, ip, r7
 8000c60:	ea4f 4910 	mov.w	r9, r0, lsr #16
 8000c64:	ea49 4601 	orr.w	r6, r9, r1, lsl #16
 8000c68:	45b0      	cmp	r8, r6
 8000c6a:	d906      	bls.n	8000c7a <__divdi3+0x10e>
 8000c6c:	1e79      	subs	r1, r7, #1
 8000c6e:	18b6      	adds	r6, r6, r2
 8000c70:	d202      	bcs.n	8000c78 <__divdi3+0x10c>
 8000c72:	45b0      	cmp	r8, r6
 8000c74:	f200 80d3 	bhi.w	8000e1e <__divdi3+0x2b2>
 8000c78:	460f      	mov	r7, r1
 8000c7a:	ebc8 0606 	rsb	r6, r8, r6
 8000c7e:	fbb6 f1f3 	udiv	r1, r6, r3
 8000c82:	fb03 6311 	mls	r3, r3, r1, r6
 8000c86:	fb0c fc01 	mul.w	ip, ip, r1
 8000c8a:	b280      	uxth	r0, r0
 8000c8c:	ea40 4303 	orr.w	r3, r0, r3, lsl #16
 8000c90:	459c      	cmp	ip, r3
 8000c92:	d906      	bls.n	8000ca2 <__divdi3+0x136>
 8000c94:	1e4e      	subs	r6, r1, #1
 8000c96:	189a      	adds	r2, r3, r2
 8000c98:	d202      	bcs.n	8000ca0 <__divdi3+0x134>
 8000c9a:	4594      	cmp	ip, r2
 8000c9c:	f200 80c2 	bhi.w	8000e24 <__divdi3+0x2b8>
 8000ca0:	4631      	mov	r1, r6
 8000ca2:	ea41 4107 	orr.w	r1, r1, r7, lsl #16
 8000ca6:	e7b1      	b.n	8000c0c <__divdi3+0xa0>
 8000ca8:	43e4      	mvns	r4, r4
 8000caa:	4252      	negs	r2, r2
 8000cac:	eb63 0343 	sbc.w	r3, r3, r3, lsl #1
 8000cb0:	e766      	b.n	8000b80 <__divdi3+0x14>
 8000cb2:	4240      	negs	r0, r0
 8000cb4:	eb61 0141 	sbc.w	r1, r1, r1, lsl #1
 8000cb8:	f04f 34ff 	mov.w	r4, #4294967295	; 0xffffffff
 8000cbc:	e75d      	b.n	8000b7a <__divdi3+0xe>
 8000cbe:	40b2      	lsls	r2, r6
 8000cc0:	f1c6 0920 	rsb	r9, r6, #32
 8000cc4:	fa21 f709 	lsr.w	r7, r1, r9
 8000cc8:	fa20 f909 	lsr.w	r9, r0, r9
 8000ccc:	fa01 f106 	lsl.w	r1, r1, r6
 8000cd0:	0c13      	lsrs	r3, r2, #16
 8000cd2:	fbb7 f8f3 	udiv	r8, r7, r3
 8000cd6:	fa1f fc82 	uxth.w	ip, r2
 8000cda:	fb03 7718 	mls	r7, r3, r8, r7
 8000cde:	fb0c f508 	mul.w	r5, ip, r8
 8000ce2:	ea49 0901 	orr.w	r9, r9, r1
 8000ce6:	ea4f 4119 	mov.w	r1, r9, lsr #16
 8000cea:	ea41 4707 	orr.w	r7, r1, r7, lsl #16
 8000cee:	40b0      	lsls	r0, r6
 8000cf0:	42bd      	cmp	r5, r7
 8000cf2:	d90a      	bls.n	8000d0a <__divdi3+0x19e>
 8000cf4:	18bf      	adds	r7, r7, r2
 8000cf6:	f108 36ff 	add.w	r6, r8, #4294967295	; 0xffffffff
 8000cfa:	f080 808e 	bcs.w	8000e1a <__divdi3+0x2ae>
 8000cfe:	42bd      	cmp	r5, r7
 8000d00:	f240 808b 	bls.w	8000e1a <__divdi3+0x2ae>
 8000d04:	f1a8 0802 	sub.w	r8, r8, #2
 8000d08:	18bf      	adds	r7, r7, r2
 8000d0a:	1b79      	subs	r1, r7, r5
 8000d0c:	fbb1 f5f3 	udiv	r5, r1, r3
 8000d10:	fb03 1715 	mls	r7, r3, r5, r1
 8000d14:	fb0c f605 	mul.w	r6, ip, r5
 8000d18:	fa1f f989 	uxth.w	r9, r9
 8000d1c:	ea49 4107 	orr.w	r1, r9, r7, lsl #16
 8000d20:	428e      	cmp	r6, r1
 8000d22:	d906      	bls.n	8000d32 <__divdi3+0x1c6>
 8000d24:	1e6f      	subs	r7, r5, #1
 8000d26:	1889      	adds	r1, r1, r2
 8000d28:	d271      	bcs.n	8000e0e <__divdi3+0x2a2>
 8000d2a:	428e      	cmp	r6, r1
 8000d2c:	d96f      	bls.n	8000e0e <__divdi3+0x2a2>
 8000d2e:	3d02      	subs	r5, #2
 8000d30:	1889      	adds	r1, r1, r2
 8000d32:	1b8e      	subs	r6, r1, r6
 8000d34:	ea45 4508 	orr.w	r5, r5, r8, lsl #16
 8000d38:	e78c      	b.n	8000c54 <__divdi3+0xe8>
 8000d3a:	f1c5 0120 	rsb	r1, r5, #32
 8000d3e:	fa22 f301 	lsr.w	r3, r2, r1
 8000d42:	fa06 f605 	lsl.w	r6, r6, r5
 8000d46:	fa27 f201 	lsr.w	r2, r7, r1
 8000d4a:	fa07 f705 	lsl.w	r7, r7, r5
 8000d4e:	fa20 f101 	lsr.w	r1, r0, r1
 8000d52:	431e      	orrs	r6, r3
 8000d54:	ea4f 4916 	mov.w	r9, r6, lsr #16
 8000d58:	fbb2 f8f9 	udiv	r8, r2, r9
 8000d5c:	fa1f fa86 	uxth.w	sl, r6
 8000d60:	fb09 2218 	mls	r2, r9, r8, r2
 8000d64:	fb0a fb08 	mul.w	fp, sl, r8
 8000d68:	430f      	orrs	r7, r1
 8000d6a:	0c3b      	lsrs	r3, r7, #16
 8000d6c:	ea43 4202 	orr.w	r2, r3, r2, lsl #16
 8000d70:	4593      	cmp	fp, r2
 8000d72:	fa0c fc05 	lsl.w	ip, ip, r5
 8000d76:	d908      	bls.n	8000d8a <__divdi3+0x21e>
 8000d78:	1992      	adds	r2, r2, r6
 8000d7a:	f108 31ff 	add.w	r1, r8, #4294967295	; 0xffffffff
 8000d7e:	d24a      	bcs.n	8000e16 <__divdi3+0x2aa>
 8000d80:	4593      	cmp	fp, r2
 8000d82:	d948      	bls.n	8000e16 <__divdi3+0x2aa>
 8000d84:	f1a8 0802 	sub.w	r8, r8, #2
 8000d88:	1992      	adds	r2, r2, r6
 8000d8a:	ebcb 0302 	rsb	r3, fp, r2
 8000d8e:	fbb3 f1f9 	udiv	r1, r3, r9
 8000d92:	fb09 3211 	mls	r2, r9, r1, r3
 8000d96:	fb0a fa01 	mul.w	sl, sl, r1
 8000d9a:	b2bf      	uxth	r7, r7
 8000d9c:	ea47 4302 	orr.w	r3, r7, r2, lsl #16
 8000da0:	459a      	cmp	sl, r3
 8000da2:	d906      	bls.n	8000db2 <__divdi3+0x246>
 8000da4:	1e4a      	subs	r2, r1, #1
 8000da6:	199b      	adds	r3, r3, r6
 8000da8:	d233      	bcs.n	8000e12 <__divdi3+0x2a6>
 8000daa:	459a      	cmp	sl, r3
 8000dac:	d931      	bls.n	8000e12 <__divdi3+0x2a6>
 8000dae:	3902      	subs	r1, #2
 8000db0:	199b      	adds	r3, r3, r6
 8000db2:	ea41 4108 	orr.w	r1, r1, r8, lsl #16
 8000db6:	0c0f      	lsrs	r7, r1, #16
 8000db8:	fa1f f88c 	uxth.w	r8, ip
 8000dbc:	fb08 f607 	mul.w	r6, r8, r7
 8000dc0:	b28a      	uxth	r2, r1
 8000dc2:	ea4f 4c1c 	mov.w	ip, ip, lsr #16
 8000dc6:	fb08 f802 	mul.w	r8, r8, r2
 8000dca:	fb0c 6202 	mla	r2, ip, r2, r6
 8000dce:	fb0c fc07 	mul.w	ip, ip, r7
 8000dd2:	eb02 4218 	add.w	r2, r2, r8, lsr #16
 8000dd6:	4296      	cmp	r6, r2
 8000dd8:	bf88      	it	hi
 8000dda:	f50c 3c80 	addhi.w	ip, ip, #65536	; 0x10000
 8000dde:	ebca 0303 	rsb	r3, sl, r3
 8000de2:	eb0c 4c12 	add.w	ip, ip, r2, lsr #16
 8000de6:	4563      	cmp	r3, ip
 8000de8:	d30e      	bcc.n	8000e08 <__divdi3+0x29c>
 8000dea:	d005      	beq.n	8000df8 <__divdi3+0x28c>
 8000dec:	2500      	movs	r5, #0
 8000dee:	e70d      	b.n	8000c0c <__divdi3+0xa0>
 8000df0:	460e      	mov	r6, r1
 8000df2:	e6ef      	b.n	8000bd4 <__divdi3+0x68>
 8000df4:	461d      	mov	r5, r3
 8000df6:	e701      	b.n	8000bfc <__divdi3+0x90>
 8000df8:	fa00 f005 	lsl.w	r0, r0, r5
 8000dfc:	fa1f f888 	uxth.w	r8, r8
 8000e00:	eb08 4502 	add.w	r5, r8, r2, lsl #16
 8000e04:	42a8      	cmp	r0, r5
 8000e06:	d2f1      	bcs.n	8000dec <__divdi3+0x280>
 8000e08:	3901      	subs	r1, #1
 8000e0a:	2500      	movs	r5, #0
 8000e0c:	e6fe      	b.n	8000c0c <__divdi3+0xa0>
 8000e0e:	463d      	mov	r5, r7
 8000e10:	e78f      	b.n	8000d32 <__divdi3+0x1c6>
 8000e12:	4611      	mov	r1, r2
 8000e14:	e7cd      	b.n	8000db2 <__divdi3+0x246>
 8000e16:	4688      	mov	r8, r1
 8000e18:	e7b7      	b.n	8000d8a <__divdi3+0x21e>
 8000e1a:	46b0      	mov	r8, r6
 8000e1c:	e775      	b.n	8000d0a <__divdi3+0x19e>
 8000e1e:	3f02      	subs	r7, #2
 8000e20:	18b6      	adds	r6, r6, r2
 8000e22:	e72a      	b.n	8000c7a <__divdi3+0x10e>
 8000e24:	3902      	subs	r1, #2
 8000e26:	e73c      	b.n	8000ca2 <__divdi3+0x136>

08000e28 <__udivdi3>:
__udivdi3():
 8000e28:	e92d 07f0 	stmdb	sp!, {r4, r5, r6, r7, r8, r9, sl}
 8000e2c:	4614      	mov	r4, r2
 8000e2e:	4605      	mov	r5, r0
 8000e30:	460e      	mov	r6, r1
 8000e32:	2b00      	cmp	r3, #0
 8000e34:	d13d      	bne.n	8000eb2 <__udivdi3+0x8a>
 8000e36:	428a      	cmp	r2, r1
 8000e38:	d949      	bls.n	8000ece <__udivdi3+0xa6>
 8000e3a:	fab2 f782 	clz	r7, r2
 8000e3e:	b147      	cbz	r7, 8000e52 <__udivdi3+0x2a>
 8000e40:	f1c7 0120 	rsb	r1, r7, #32
 8000e44:	fa20 f201 	lsr.w	r2, r0, r1
 8000e48:	fa06 f607 	lsl.w	r6, r6, r7
 8000e4c:	40bc      	lsls	r4, r7
 8000e4e:	40bd      	lsls	r5, r7
 8000e50:	4316      	orrs	r6, r2
 8000e52:	0c22      	lsrs	r2, r4, #16
 8000e54:	fbb6 f0f2 	udiv	r0, r6, r2
 8000e58:	b2a1      	uxth	r1, r4
 8000e5a:	fb02 6610 	mls	r6, r2, r0, r6
 8000e5e:	fb01 f300 	mul.w	r3, r1, r0
 8000e62:	0c2f      	lsrs	r7, r5, #16
 8000e64:	ea47 4606 	orr.w	r6, r7, r6, lsl #16
 8000e68:	42b3      	cmp	r3, r6
 8000e6a:	d908      	bls.n	8000e7e <__udivdi3+0x56>
 8000e6c:	1e47      	subs	r7, r0, #1
 8000e6e:	1936      	adds	r6, r6, r4
 8000e70:	f080 80fa 	bcs.w	8001068 <__udivdi3+0x240>
 8000e74:	42b3      	cmp	r3, r6
 8000e76:	f240 80f7 	bls.w	8001068 <__udivdi3+0x240>
 8000e7a:	3802      	subs	r0, #2
 8000e7c:	1936      	adds	r6, r6, r4
 8000e7e:	1af6      	subs	r6, r6, r3
 8000e80:	fbb6 f3f2 	udiv	r3, r6, r2
 8000e84:	fb02 6213 	mls	r2, r2, r3, r6
 8000e88:	fb01 f103 	mul.w	r1, r1, r3
 8000e8c:	b2ad      	uxth	r5, r5
 8000e8e:	ea45 4202 	orr.w	r2, r5, r2, lsl #16
 8000e92:	4291      	cmp	r1, r2
 8000e94:	d907      	bls.n	8000ea6 <__udivdi3+0x7e>
 8000e96:	1e5e      	subs	r6, r3, #1
 8000e98:	1912      	adds	r2, r2, r4
 8000e9a:	f080 80e7 	bcs.w	800106c <__udivdi3+0x244>
 8000e9e:	4291      	cmp	r1, r2
 8000ea0:	f240 80e4 	bls.w	800106c <__udivdi3+0x244>
 8000ea4:	3b02      	subs	r3, #2
 8000ea6:	ea43 4000 	orr.w	r0, r3, r0, lsl #16
 8000eaa:	2100      	movs	r1, #0
 8000eac:	e8bd 07f0 	ldmia.w	sp!, {r4, r5, r6, r7, r8, r9, sl}
 8000eb0:	4770      	bx	lr
 8000eb2:	428b      	cmp	r3, r1
 8000eb4:	d843      	bhi.n	8000f3e <__udivdi3+0x116>
 8000eb6:	fab3 f483 	clz	r4, r3
 8000eba:	2c00      	cmp	r4, #0
 8000ebc:	d142      	bne.n	8000f44 <__udivdi3+0x11c>
 8000ebe:	428b      	cmp	r3, r1
 8000ec0:	d302      	bcc.n	8000ec8 <__udivdi3+0xa0>
 8000ec2:	4282      	cmp	r2, r0
 8000ec4:	f200 80e1 	bhi.w	800108a <__udivdi3+0x262>
 8000ec8:	2100      	movs	r1, #0
 8000eca:	2001      	movs	r0, #1
 8000ecc:	e7ee      	b.n	8000eac <__udivdi3+0x84>
 8000ece:	b912      	cbnz	r2, 8000ed6 <__udivdi3+0xae>
 8000ed0:	2701      	movs	r7, #1
 8000ed2:	fbb7 f4f2 	udiv	r4, r7, r2
 8000ed6:	fab4 f284 	clz	r2, r4
 8000eda:	2a00      	cmp	r2, #0
 8000edc:	f040 8089 	bne.w	8000ff2 <__udivdi3+0x1ca>
 8000ee0:	1b0a      	subs	r2, r1, r4
 8000ee2:	0c23      	lsrs	r3, r4, #16
 8000ee4:	b2a7      	uxth	r7, r4
 8000ee6:	2101      	movs	r1, #1
 8000ee8:	fbb2 f6f3 	udiv	r6, r2, r3
 8000eec:	fb03 2216 	mls	r2, r3, r6, r2
 8000ef0:	fb07 f006 	mul.w	r0, r7, r6
 8000ef4:	ea4f 4c15 	mov.w	ip, r5, lsr #16
 8000ef8:	ea4c 4202 	orr.w	r2, ip, r2, lsl #16
 8000efc:	4290      	cmp	r0, r2
 8000efe:	d907      	bls.n	8000f10 <__udivdi3+0xe8>
 8000f00:	1912      	adds	r2, r2, r4
 8000f02:	f106 3cff 	add.w	ip, r6, #4294967295	; 0xffffffff
 8000f06:	d202      	bcs.n	8000f0e <__udivdi3+0xe6>
 8000f08:	4290      	cmp	r0, r2
 8000f0a:	f200 80d0 	bhi.w	80010ae <__udivdi3+0x286>
 8000f0e:	4666      	mov	r6, ip
 8000f10:	1a12      	subs	r2, r2, r0
 8000f12:	fbb2 f0f3 	udiv	r0, r2, r3
 8000f16:	fb03 2310 	mls	r3, r3, r0, r2
 8000f1a:	fb07 f700 	mul.w	r7, r7, r0
 8000f1e:	b2ad      	uxth	r5, r5
 8000f20:	ea45 4303 	orr.w	r3, r5, r3, lsl #16
 8000f24:	429f      	cmp	r7, r3
 8000f26:	d907      	bls.n	8000f38 <__udivdi3+0x110>
 8000f28:	1e42      	subs	r2, r0, #1
 8000f2a:	191b      	adds	r3, r3, r4
 8000f2c:	f080 80a0 	bcs.w	8001070 <__udivdi3+0x248>
 8000f30:	429f      	cmp	r7, r3
 8000f32:	f240 809d 	bls.w	8001070 <__udivdi3+0x248>
 8000f36:	3802      	subs	r0, #2
 8000f38:	ea40 4006 	orr.w	r0, r0, r6, lsl #16
 8000f3c:	e7b6      	b.n	8000eac <__udivdi3+0x84>
 8000f3e:	2100      	movs	r1, #0
 8000f40:	4608      	mov	r0, r1
 8000f42:	e7b3      	b.n	8000eac <__udivdi3+0x84>
 8000f44:	f1c4 0620 	rsb	r6, r4, #32
 8000f48:	fa22 f706 	lsr.w	r7, r2, r6
 8000f4c:	fa03 f304 	lsl.w	r3, r3, r4
 8000f50:	fa21 f506 	lsr.w	r5, r1, r6
 8000f54:	fa01 f104 	lsl.w	r1, r1, r4
 8000f58:	fa20 f606 	lsr.w	r6, r0, r6
 8000f5c:	433b      	orrs	r3, r7
 8000f5e:	ea4f 4c13 	mov.w	ip, r3, lsr #16
 8000f62:	fbb5 f7fc 	udiv	r7, r5, ip
 8000f66:	fa1f f883 	uxth.w	r8, r3
 8000f6a:	fb0c 5517 	mls	r5, ip, r7, r5
 8000f6e:	fb08 f907 	mul.w	r9, r8, r7
 8000f72:	ea46 0a01 	orr.w	sl, r6, r1
 8000f76:	ea4f 411a 	mov.w	r1, sl, lsr #16
 8000f7a:	ea41 4505 	orr.w	r5, r1, r5, lsl #16
 8000f7e:	45a9      	cmp	r9, r5
 8000f80:	fa02 f204 	lsl.w	r2, r2, r4
 8000f84:	d904      	bls.n	8000f90 <__udivdi3+0x168>
 8000f86:	1e7e      	subs	r6, r7, #1
 8000f88:	18ed      	adds	r5, r5, r3
 8000f8a:	f0c0 8081 	bcc.w	8001090 <__udivdi3+0x268>
 8000f8e:	4637      	mov	r7, r6
 8000f90:	ebc9 0105 	rsb	r1, r9, r5
 8000f94:	fbb1 f6fc 	udiv	r6, r1, ip
 8000f98:	fb0c 1516 	mls	r5, ip, r6, r1
 8000f9c:	fb08 f806 	mul.w	r8, r8, r6
 8000fa0:	fa1f fa8a 	uxth.w	sl, sl
 8000fa4:	ea4a 4105 	orr.w	r1, sl, r5, lsl #16
 8000fa8:	4588      	cmp	r8, r1
 8000faa:	d903      	bls.n	8000fb4 <__udivdi3+0x18c>
 8000fac:	1e75      	subs	r5, r6, #1
 8000fae:	18c9      	adds	r1, r1, r3
 8000fb0:	d374      	bcc.n	800109c <__udivdi3+0x274>
 8000fb2:	462e      	mov	r6, r5
 8000fb4:	ea46 4607 	orr.w	r6, r6, r7, lsl #16
 8000fb8:	0c37      	lsrs	r7, r6, #16
 8000fba:	fa1f fc82 	uxth.w	ip, r2
 8000fbe:	fb0c f507 	mul.w	r5, ip, r7
 8000fc2:	0c12      	lsrs	r2, r2, #16
 8000fc4:	b2b3      	uxth	r3, r6
 8000fc6:	fb0c fc03 	mul.w	ip, ip, r3
 8000fca:	fb02 5303 	mla	r3, r2, r3, r5
 8000fce:	fb02 f207 	mul.w	r2, r2, r7
 8000fd2:	eb03 431c 	add.w	r3, r3, ip, lsr #16
 8000fd6:	429d      	cmp	r5, r3
 8000fd8:	bf88      	it	hi
 8000fda:	f502 3280 	addhi.w	r2, r2, #65536	; 0x10000
 8000fde:	ebc8 0101 	rsb	r1, r8, r1
 8000fe2:	eb02 4213 	add.w	r2, r2, r3, lsr #16
 8000fe6:	4291      	cmp	r1, r2
 8000fe8:	d34c      	bcc.n	8001084 <__udivdi3+0x25c>
 8000fea:	d043      	beq.n	8001074 <__udivdi3+0x24c>
 8000fec:	4630      	mov	r0, r6
 8000fee:	2100      	movs	r1, #0
 8000ff0:	e75c      	b.n	8000eac <__udivdi3+0x84>
 8000ff2:	4094      	lsls	r4, r2
 8000ff4:	f1c2 0520 	rsb	r5, r2, #32
 8000ff8:	fa21 f605 	lsr.w	r6, r1, r5
 8000ffc:	fa20 f505 	lsr.w	r5, r0, r5
 8001000:	fa01 f102 	lsl.w	r1, r1, r2
 8001004:	0c23      	lsrs	r3, r4, #16
 8001006:	fbb6 fcf3 	udiv	ip, r6, r3
 800100a:	b2a7      	uxth	r7, r4
 800100c:	fb03 661c 	mls	r6, r3, ip, r6
 8001010:	fb07 f80c 	mul.w	r8, r7, ip
 8001014:	4329      	orrs	r1, r5
 8001016:	0c0d      	lsrs	r5, r1, #16
 8001018:	ea45 4606 	orr.w	r6, r5, r6, lsl #16
 800101c:	45b0      	cmp	r8, r6
 800101e:	fa00 f502 	lsl.w	r5, r0, r2
 8001022:	d908      	bls.n	8001036 <__udivdi3+0x20e>
 8001024:	1936      	adds	r6, r6, r4
 8001026:	f10c 30ff 	add.w	r0, ip, #4294967295	; 0xffffffff
 800102a:	d23e      	bcs.n	80010aa <__udivdi3+0x282>
 800102c:	45b0      	cmp	r8, r6
 800102e:	d93c      	bls.n	80010aa <__udivdi3+0x282>
 8001030:	f1ac 0c02 	sub.w	ip, ip, #2
 8001034:	1936      	adds	r6, r6, r4
 8001036:	ebc8 0206 	rsb	r2, r8, r6
 800103a:	fbb2 f0f3 	udiv	r0, r2, r3
 800103e:	fb03 2610 	mls	r6, r3, r0, r2
 8001042:	fb07 f800 	mul.w	r8, r7, r0
 8001046:	b289      	uxth	r1, r1
 8001048:	ea41 4206 	orr.w	r2, r1, r6, lsl #16
 800104c:	4590      	cmp	r8, r2
 800104e:	d906      	bls.n	800105e <__udivdi3+0x236>
 8001050:	1e46      	subs	r6, r0, #1
 8001052:	1912      	adds	r2, r2, r4
 8001054:	d227      	bcs.n	80010a6 <__udivdi3+0x27e>
 8001056:	4590      	cmp	r8, r2
 8001058:	d925      	bls.n	80010a6 <__udivdi3+0x27e>
 800105a:	3802      	subs	r0, #2
 800105c:	1912      	adds	r2, r2, r4
 800105e:	ebc8 0202 	rsb	r2, r8, r2
 8001062:	ea40 410c 	orr.w	r1, r0, ip, lsl #16
 8001066:	e73f      	b.n	8000ee8 <__udivdi3+0xc0>
 8001068:	4638      	mov	r0, r7
 800106a:	e708      	b.n	8000e7e <__udivdi3+0x56>
 800106c:	4633      	mov	r3, r6
 800106e:	e71a      	b.n	8000ea6 <__udivdi3+0x7e>
 8001070:	4610      	mov	r0, r2
 8001072:	e761      	b.n	8000f38 <__udivdi3+0x110>
 8001074:	fa00 f004 	lsl.w	r0, r0, r4
 8001078:	fa1f fc8c 	uxth.w	ip, ip
 800107c:	eb0c 4303 	add.w	r3, ip, r3, lsl #16
 8001080:	4298      	cmp	r0, r3
 8001082:	d2b3      	bcs.n	8000fec <__udivdi3+0x1c4>
 8001084:	1e70      	subs	r0, r6, #1
 8001086:	2100      	movs	r1, #0
 8001088:	e710      	b.n	8000eac <__udivdi3+0x84>
 800108a:	4621      	mov	r1, r4
 800108c:	4620      	mov	r0, r4
 800108e:	e70d      	b.n	8000eac <__udivdi3+0x84>
 8001090:	45a9      	cmp	r9, r5
 8001092:	f67f af7c 	bls.w	8000f8e <__udivdi3+0x166>
 8001096:	3f02      	subs	r7, #2
 8001098:	18ed      	adds	r5, r5, r3
 800109a:	e779      	b.n	8000f90 <__udivdi3+0x168>
 800109c:	4588      	cmp	r8, r1
 800109e:	d988      	bls.n	8000fb2 <__udivdi3+0x18a>
 80010a0:	3e02      	subs	r6, #2
 80010a2:	18c9      	adds	r1, r1, r3
 80010a4:	e786      	b.n	8000fb4 <__udivdi3+0x18c>
 80010a6:	4630      	mov	r0, r6
 80010a8:	e7d9      	b.n	800105e <__udivdi3+0x236>
 80010aa:	4684      	mov	ip, r0
 80010ac:	e7c3      	b.n	8001036 <__udivdi3+0x20e>
 80010ae:	3e02      	subs	r6, #2
 80010b0:	1912      	adds	r2, r2, r4
 80010b2:	e72d      	b.n	8000f10 <__udivdi3+0xe8>

080010b4 <GPIO_Init>:
GPIO_Init():
/Users/Somebody/Documents/Eclipse/BeatOS-STM32/Debug/../Src/Lib/StdPeriph/Src/stm32f10x_gpio.c:174
  * @param  GPIO_InitStruct: pointer to a GPIO_InitTypeDef structure that
  *         contains the configuration information for the specified GPIO peripheral.
  * @retval None
  */
void GPIO_Init(GPIO_TypeDef* GPIOx, GPIO_InitTypeDef* GPIO_InitStruct)
{
 80010b4:	b480      	push	{r7}
 80010b6:	b089      	sub	sp, #36	; 0x24
 80010b8:	af00      	add	r7, sp, #0
 80010ba:	6078      	str	r0, [r7, #4]
 80010bc:	6039      	str	r1, [r7, #0]
/Users/Somebody/Documents/Eclipse/BeatOS-STM32/Debug/../Src/Lib/StdPeriph/Src/stm32f10x_gpio.c:175
  uint32_t currentmode = 0x00, currentpin = 0x00, pinpos = 0x00, pos = 0x00;
 80010be:	f04f 0300 	mov.w	r3, #0
 80010c2:	61fb      	str	r3, [r7, #28]
 80010c4:	f04f 0300 	mov.w	r3, #0
 80010c8:	613b      	str	r3, [r7, #16]
 80010ca:	f04f 0300 	mov.w	r3, #0
 80010ce:	61bb      	str	r3, [r7, #24]
 80010d0:	f04f 0300 	mov.w	r3, #0
 80010d4:	60fb      	str	r3, [r7, #12]
/Users/Somebody/Documents/Eclipse/BeatOS-STM32/Debug/../Src/Lib/StdPeriph/Src/stm32f10x_gpio.c:176
  uint32_t tmpreg = 0x00, pinmask = 0x00;
 80010d6:	f04f 0300 	mov.w	r3, #0
 80010da:	617b      	str	r3, [r7, #20]
 80010dc:	f04f 0300 	mov.w	r3, #0
 80010e0:	60bb      	str	r3, [r7, #8]
/Users/Somebody/Documents/Eclipse/BeatOS-STM32/Debug/../Src/Lib/StdPeriph/Src/stm32f10x_gpio.c:183
  assert_param(IS_GPIO_ALL_PERIPH(GPIOx));
  assert_param(IS_GPIO_MODE(GPIO_InitStruct->GPIO_Mode));
  assert_param(IS_GPIO_PIN(GPIO_InitStruct->GPIO_Pin));  
  
/*---------------------------- GPIO Mode Configuration -----------------------*/
  currentmode = ((uint32_t)GPIO_InitStruct->GPIO_Mode) & ((uint32_t)0x0F);
 80010e2:	683b      	ldr	r3, [r7, #0]
 80010e4:	78db      	ldrb	r3, [r3, #3]
 80010e6:	f003 030f 	and.w	r3, r3, #15
 80010ea:	61fb      	str	r3, [r7, #28]
/Users/Somebody/Documents/Eclipse/BeatOS-STM32/Debug/../Src/Lib/StdPeriph/Src/stm32f10x_gpio.c:184
  if ((((uint32_t)GPIO_InitStruct->GPIO_Mode) & ((uint32_t)0x10)) != 0x00)
 80010ec:	683b      	ldr	r3, [r7, #0]
 80010ee:	78db      	ldrb	r3, [r3, #3]
 80010f0:	f003 0310 	and.w	r3, r3, #16
 80010f4:	2b00      	cmp	r3, #0
 80010f6:	d004      	beq.n	8001102 <GPIO_Init+0x4e>
/Users/Somebody/Documents/Eclipse/BeatOS-STM32/Debug/../Src/Lib/StdPeriph/Src/stm32f10x_gpio.c:189
  { 
    /* Check the parameters */
    assert_param(IS_GPIO_SPEED(GPIO_InitStruct->GPIO_Speed));
    /* Output mode */
    currentmode |= (uint32_t)GPIO_InitStruct->GPIO_Speed;
 80010f8:	683b      	ldr	r3, [r7, #0]
 80010fa:	789b      	ldrb	r3, [r3, #2]
 80010fc:	69fa      	ldr	r2, [r7, #28]
 80010fe:	4313      	orrs	r3, r2
 8001100:	61fb      	str	r3, [r7, #28]
/Users/Somebody/Documents/Eclipse/BeatOS-STM32/Debug/../Src/Lib/StdPeriph/Src/stm32f10x_gpio.c:193
  }
/*---------------------------- GPIO CRL Configuration ------------------------*/
  /* Configure the eight low port pins */
  if (((uint32_t)GPIO_InitStruct->GPIO_Pin & ((uint32_t)0x00FF)) != 0x00)
 8001102:	683b      	ldr	r3, [r7, #0]
 8001104:	881b      	ldrh	r3, [r3, #0]
 8001106:	b2db      	uxtb	r3, r3
 8001108:	2b00      	cmp	r3, #0
 800110a:	d04e      	beq.n	80011aa <GPIO_Init+0xf6>
/Users/Somebody/Documents/Eclipse/BeatOS-STM32/Debug/../Src/Lib/StdPeriph/Src/stm32f10x_gpio.c:195
  {
    tmpreg = GPIOx->CRL;
 800110c:	687b      	ldr	r3, [r7, #4]
 800110e:	681b      	ldr	r3, [r3, #0]
 8001110:	617b      	str	r3, [r7, #20]
/Users/Somebody/Documents/Eclipse/BeatOS-STM32/Debug/../Src/Lib/StdPeriph/Src/stm32f10x_gpio.c:196
    for (pinpos = 0x00; pinpos < 0x08; pinpos++)
 8001112:	f04f 0300 	mov.w	r3, #0
 8001116:	61bb      	str	r3, [r7, #24]
 8001118:	e041      	b.n	800119e <GPIO_Init+0xea>
/Users/Somebody/Documents/Eclipse/BeatOS-STM32/Debug/../Src/Lib/StdPeriph/Src/stm32f10x_gpio.c:198
    {
      pos = ((uint32_t)0x01) << pinpos;
 800111a:	69bb      	ldr	r3, [r7, #24]
 800111c:	f04f 0201 	mov.w	r2, #1
 8001120:	fa02 f303 	lsl.w	r3, r2, r3
 8001124:	60fb      	str	r3, [r7, #12]
/Users/Somebody/Documents/Eclipse/BeatOS-STM32/Debug/../Src/Lib/StdPeriph/Src/stm32f10x_gpio.c:200
      /* Get the port pins position */
      currentpin = (GPIO_InitStruct->GPIO_Pin) & pos;
 8001126:	683b      	ldr	r3, [r7, #0]
 8001128:	881b      	ldrh	r3, [r3, #0]
 800112a:	461a      	mov	r2, r3
 800112c:	68fb      	ldr	r3, [r7, #12]
 800112e:	4013      	ands	r3, r2
 8001130:	613b      	str	r3, [r7, #16]
/Users/Somebody/Documents/Eclipse/BeatOS-STM32/Debug/../Src/Lib/StdPeriph/Src/stm32f10x_gpio.c:201
      if (currentpin == pos)
 8001132:	693a      	ldr	r2, [r7, #16]
 8001134:	68fb      	ldr	r3, [r7, #12]
 8001136:	429a      	cmp	r2, r3
 8001138:	d12d      	bne.n	8001196 <GPIO_Init+0xe2>
/Users/Somebody/Documents/Eclipse/BeatOS-STM32/Debug/../Src/Lib/StdPeriph/Src/stm32f10x_gpio.c:203
      {
        pos = pinpos << 2;
 800113a:	69bb      	ldr	r3, [r7, #24]
 800113c:	ea4f 0383 	mov.w	r3, r3, lsl #2
 8001140:	60fb      	str	r3, [r7, #12]
/Users/Somebody/Documents/Eclipse/BeatOS-STM32/Debug/../Src/Lib/StdPeriph/Src/stm32f10x_gpio.c:205
        /* Clear the corresponding low control register bits */
        pinmask = ((uint32_t)0x0F) << pos;
 8001142:	68fb      	ldr	r3, [r7, #12]
 8001144:	f04f 020f 	mov.w	r2, #15
 8001148:	fa02 f303 	lsl.w	r3, r2, r3
 800114c:	60bb      	str	r3, [r7, #8]
/Users/Somebody/Documents/Eclipse/BeatOS-STM32/Debug/../Src/Lib/StdPeriph/Src/stm32f10x_gpio.c:206
        tmpreg &= ~pinmask;
 800114e:	68bb      	ldr	r3, [r7, #8]
 8001150:	ea6f 0303 	mvn.w	r3, r3
 8001154:	697a      	ldr	r2, [r7, #20]
 8001156:	4013      	ands	r3, r2
 8001158:	617b      	str	r3, [r7, #20]
/Users/Somebody/Documents/Eclipse/BeatOS-STM32/Debug/../Src/Lib/StdPeriph/Src/stm32f10x_gpio.c:208
        /* Write the mode configuration in the corresponding bits */
        tmpreg |= (currentmode << pos);
 800115a:	68fb      	ldr	r3, [r7, #12]
 800115c:	69fa      	ldr	r2, [r7, #28]
 800115e:	fa02 f303 	lsl.w	r3, r2, r3
 8001162:	697a      	ldr	r2, [r7, #20]
 8001164:	4313      	orrs	r3, r2
 8001166:	617b      	str	r3, [r7, #20]
/Users/Somebody/Documents/Eclipse/BeatOS-STM32/Debug/../Src/Lib/StdPeriph/Src/stm32f10x_gpio.c:210
        /* Reset the corresponding ODR bit */
        if (GPIO_InitStruct->GPIO_Mode == GPIO_Mode_IPD)
 8001168:	683b      	ldr	r3, [r7, #0]
 800116a:	78db      	ldrb	r3, [r3, #3]
 800116c:	2b28      	cmp	r3, #40	; 0x28
 800116e:	d107      	bne.n	8001180 <GPIO_Init+0xcc>
/Users/Somebody/Documents/Eclipse/BeatOS-STM32/Debug/../Src/Lib/StdPeriph/Src/stm32f10x_gpio.c:212
        {
          GPIOx->BRR = (((uint32_t)0x01) << pinpos);
 8001170:	69bb      	ldr	r3, [r7, #24]
 8001172:	f04f 0201 	mov.w	r2, #1
 8001176:	fa02 f203 	lsl.w	r2, r2, r3
 800117a:	687b      	ldr	r3, [r7, #4]
 800117c:	615a      	str	r2, [r3, #20]
 800117e:	e00a      	b.n	8001196 <GPIO_Init+0xe2>
/Users/Somebody/Documents/Eclipse/BeatOS-STM32/Debug/../Src/Lib/StdPeriph/Src/stm32f10x_gpio.c:217
        }
        else
        {
          /* Set the corresponding ODR bit */
          if (GPIO_InitStruct->GPIO_Mode == GPIO_Mode_IPU)
 8001180:	683b      	ldr	r3, [r7, #0]
 8001182:	78db      	ldrb	r3, [r3, #3]
 8001184:	2b48      	cmp	r3, #72	; 0x48
 8001186:	d106      	bne.n	8001196 <GPIO_Init+0xe2>
/Users/Somebody/Documents/Eclipse/BeatOS-STM32/Debug/../Src/Lib/StdPeriph/Src/stm32f10x_gpio.c:219
          {
            GPIOx->BSRR = (((uint32_t)0x01) << pinpos);
 8001188:	69bb      	ldr	r3, [r7, #24]
 800118a:	f04f 0201 	mov.w	r2, #1
 800118e:	fa02 f203 	lsl.w	r2, r2, r3
 8001192:	687b      	ldr	r3, [r7, #4]
 8001194:	611a      	str	r2, [r3, #16]
/Users/Somebody/Documents/Eclipse/BeatOS-STM32/Debug/../Src/Lib/StdPeriph/Src/stm32f10x_gpio.c:196
/*---------------------------- GPIO CRL Configuration ------------------------*/
  /* Configure the eight low port pins */
  if (((uint32_t)GPIO_InitStruct->GPIO_Pin & ((uint32_t)0x00FF)) != 0x00)
  {
    tmpreg = GPIOx->CRL;
    for (pinpos = 0x00; pinpos < 0x08; pinpos++)
 8001196:	69bb      	ldr	r3, [r7, #24]
 8001198:	f103 0301 	add.w	r3, r3, #1
 800119c:	61bb      	str	r3, [r7, #24]
 800119e:	69bb      	ldr	r3, [r7, #24]
 80011a0:	2b07      	cmp	r3, #7
 80011a2:	d9ba      	bls.n	800111a <GPIO_Init+0x66>
/Users/Somebody/Documents/Eclipse/BeatOS-STM32/Debug/../Src/Lib/StdPeriph/Src/stm32f10x_gpio.c:224
            GPIOx->BSRR = (((uint32_t)0x01) << pinpos);
          }
        }
      }
    }
    GPIOx->CRL = tmpreg;
 80011a4:	687b      	ldr	r3, [r7, #4]
 80011a6:	697a      	ldr	r2, [r7, #20]
 80011a8:	601a      	str	r2, [r3, #0]
/Users/Somebody/Documents/Eclipse/BeatOS-STM32/Debug/../Src/Lib/StdPeriph/Src/stm32f10x_gpio.c:228
  }
/*---------------------------- GPIO CRH Configuration ------------------------*/
  /* Configure the eight high port pins */
  if (GPIO_InitStruct->GPIO_Pin > 0x00FF)
 80011aa:	683b      	ldr	r3, [r7, #0]
 80011ac:	881b      	ldrh	r3, [r3, #0]
 80011ae:	2bff      	cmp	r3, #255	; 0xff
 80011b0:	d953      	bls.n	800125a <GPIO_Init+0x1a6>
/Users/Somebody/Documents/Eclipse/BeatOS-STM32/Debug/../Src/Lib/StdPeriph/Src/stm32f10x_gpio.c:230
  {
    tmpreg = GPIOx->CRH;
 80011b2:	687b      	ldr	r3, [r7, #4]
 80011b4:	685b      	ldr	r3, [r3, #4]
 80011b6:	617b      	str	r3, [r7, #20]
/Users/Somebody/Documents/Eclipse/BeatOS-STM32/Debug/../Src/Lib/StdPeriph/Src/stm32f10x_gpio.c:231
    for (pinpos = 0x00; pinpos < 0x08; pinpos++)
 80011b8:	f04f 0300 	mov.w	r3, #0
 80011bc:	61bb      	str	r3, [r7, #24]
 80011be:	e046      	b.n	800124e <GPIO_Init+0x19a>
/Users/Somebody/Documents/Eclipse/BeatOS-STM32/Debug/../Src/Lib/StdPeriph/Src/stm32f10x_gpio.c:233
    {
      pos = (((uint32_t)0x01) << (pinpos + 0x08));
 80011c0:	69bb      	ldr	r3, [r7, #24]
 80011c2:	f103 0308 	add.w	r3, r3, #8
 80011c6:	f04f 0201 	mov.w	r2, #1
 80011ca:	fa02 f303 	lsl.w	r3, r2, r3
 80011ce:	60fb      	str	r3, [r7, #12]
/Users/Somebody/Documents/Eclipse/BeatOS-STM32/Debug/../Src/Lib/StdPeriph/Src/stm32f10x_gpio.c:235
      /* Get the port pins position */
      currentpin = ((GPIO_InitStruct->GPIO_Pin) & pos);
 80011d0:	683b      	ldr	r3, [r7, #0]
 80011d2:	881b      	ldrh	r3, [r3, #0]
 80011d4:	461a      	mov	r2, r3
 80011d6:	68fb      	ldr	r3, [r7, #12]
 80011d8:	4013      	ands	r3, r2
 80011da:	613b      	str	r3, [r7, #16]
/Users/Somebody/Documents/Eclipse/BeatOS-STM32/Debug/../Src/Lib/StdPeriph/Src/stm32f10x_gpio.c:236
      if (currentpin == pos)
 80011dc:	693a      	ldr	r2, [r7, #16]
 80011de:	68fb      	ldr	r3, [r7, #12]
 80011e0:	429a      	cmp	r2, r3
 80011e2:	d130      	bne.n	8001246 <GPIO_Init+0x192>
/Users/Somebody/Documents/Eclipse/BeatOS-STM32/Debug/../Src/Lib/StdPeriph/Src/stm32f10x_gpio.c:238
      {
        pos = pinpos << 2;
 80011e4:	69bb      	ldr	r3, [r7, #24]
 80011e6:	ea4f 0383 	mov.w	r3, r3, lsl #2
 80011ea:	60fb      	str	r3, [r7, #12]
/Users/Somebody/Documents/Eclipse/BeatOS-STM32/Debug/../Src/Lib/StdPeriph/Src/stm32f10x_gpio.c:240
        /* Clear the corresponding high control register bits */
        pinmask = ((uint32_t)0x0F) << pos;
 80011ec:	68fb      	ldr	r3, [r7, #12]
 80011ee:	f04f 020f 	mov.w	r2, #15
 80011f2:	fa02 f303 	lsl.w	r3, r2, r3
 80011f6:	60bb      	str	r3, [r7, #8]
/Users/Somebody/Documents/Eclipse/BeatOS-STM32/Debug/../Src/Lib/StdPeriph/Src/stm32f10x_gpio.c:241
        tmpreg &= ~pinmask;
 80011f8:	68bb      	ldr	r3, [r7, #8]
 80011fa:	ea6f 0303 	mvn.w	r3, r3
 80011fe:	697a      	ldr	r2, [r7, #20]
 8001200:	4013      	ands	r3, r2
 8001202:	617b      	str	r3, [r7, #20]
/Users/Somebody/Documents/Eclipse/BeatOS-STM32/Debug/../Src/Lib/StdPeriph/Src/stm32f10x_gpio.c:243
        /* Write the mode configuration in the corresponding bits */
        tmpreg |= (currentmode << pos);
 8001204:	68fb      	ldr	r3, [r7, #12]
 8001206:	69fa      	ldr	r2, [r7, #28]
 8001208:	fa02 f303 	lsl.w	r3, r2, r3
 800120c:	697a      	ldr	r2, [r7, #20]
 800120e:	4313      	orrs	r3, r2
 8001210:	617b      	str	r3, [r7, #20]
/Users/Somebody/Documents/Eclipse/BeatOS-STM32/Debug/../Src/Lib/StdPeriph/Src/stm32f10x_gpio.c:245
        /* Reset the corresponding ODR bit */
        if (GPIO_InitStruct->GPIO_Mode == GPIO_Mode_IPD)
 8001212:	683b      	ldr	r3, [r7, #0]
 8001214:	78db      	ldrb	r3, [r3, #3]
 8001216:	2b28      	cmp	r3, #40	; 0x28
 8001218:	d108      	bne.n	800122c <GPIO_Init+0x178>
/Users/Somebody/Documents/Eclipse/BeatOS-STM32/Debug/../Src/Lib/StdPeriph/Src/stm32f10x_gpio.c:247
        {
          GPIOx->BRR = (((uint32_t)0x01) << (pinpos + 0x08));
 800121a:	69bb      	ldr	r3, [r7, #24]
 800121c:	f103 0308 	add.w	r3, r3, #8
 8001220:	f04f 0201 	mov.w	r2, #1
 8001224:	fa02 f203 	lsl.w	r2, r2, r3
 8001228:	687b      	ldr	r3, [r7, #4]
 800122a:	615a      	str	r2, [r3, #20]
/Users/Somebody/Documents/Eclipse/BeatOS-STM32/Debug/../Src/Lib/StdPeriph/Src/stm32f10x_gpio.c:250
        }
        /* Set the corresponding ODR bit */
        if (GPIO_InitStruct->GPIO_Mode == GPIO_Mode_IPU)
 800122c:	683b      	ldr	r3, [r7, #0]
 800122e:	78db      	ldrb	r3, [r3, #3]
 8001230:	2b48      	cmp	r3, #72	; 0x48
 8001232:	d108      	bne.n	8001246 <GPIO_Init+0x192>
/Users/Somebody/Documents/Eclipse/BeatOS-STM32/Debug/../Src/Lib/StdPeriph/Src/stm32f10x_gpio.c:252
        {
          GPIOx->BSRR = (((uint32_t)0x01) << (pinpos + 0x08));
 8001234:	69bb      	ldr	r3, [r7, #24]
 8001236:	f103 0308 	add.w	r3, r3, #8
 800123a:	f04f 0201 	mov.w	r2, #1
 800123e:	fa02 f203 	lsl.w	r2, r2, r3
 8001242:	687b      	ldr	r3, [r7, #4]
 8001244:	611a      	str	r2, [r3, #16]
/Users/Somebody/Documents/Eclipse/BeatOS-STM32/Debug/../Src/Lib/StdPeriph/Src/stm32f10x_gpio.c:231
/*---------------------------- GPIO CRH Configuration ------------------------*/
  /* Configure the eight high port pins */
  if (GPIO_InitStruct->GPIO_Pin > 0x00FF)
  {
    tmpreg = GPIOx->CRH;
    for (pinpos = 0x00; pinpos < 0x08; pinpos++)
 8001246:	69bb      	ldr	r3, [r7, #24]
 8001248:	f103 0301 	add.w	r3, r3, #1
 800124c:	61bb      	str	r3, [r7, #24]
 800124e:	69bb      	ldr	r3, [r7, #24]
 8001250:	2b07      	cmp	r3, #7
 8001252:	d9b5      	bls.n	80011c0 <GPIO_Init+0x10c>
/Users/Somebody/Documents/Eclipse/BeatOS-STM32/Debug/../Src/Lib/StdPeriph/Src/stm32f10x_gpio.c:256
        {
          GPIOx->BSRR = (((uint32_t)0x01) << (pinpos + 0x08));
        }
      }
    }
    GPIOx->CRH = tmpreg;
 8001254:	687b      	ldr	r3, [r7, #4]
 8001256:	697a      	ldr	r2, [r7, #20]
 8001258:	605a      	str	r2, [r3, #4]
/Users/Somebody/Documents/Eclipse/BeatOS-STM32/Debug/../Src/Lib/StdPeriph/Src/stm32f10x_gpio.c:258
  }
}
 800125a:	f107 0724 	add.w	r7, r7, #36	; 0x24
 800125e:	46bd      	mov	sp, r7
 8001260:	bc80      	pop	{r7}
 8001262:	4770      	bx	lr

08001264 <GPIO_SetBits>:
GPIO_SetBits():
/Users/Somebody/Documents/Eclipse/BeatOS-STM32/Debug/../Src/Lib/StdPeriph/Src/stm32f10x_gpio.c:359
  * @param  GPIO_Pin: specifies the port bits to be written.
  *   This parameter can be any combination of GPIO_Pin_x where x can be (0..15).
  * @retval None
  */
void GPIO_SetBits(GPIO_TypeDef* GPIOx, uint16_t GPIO_Pin)
{
 8001264:	b480      	push	{r7}
 8001266:	b083      	sub	sp, #12
 8001268:	af00      	add	r7, sp, #0
 800126a:	6078      	str	r0, [r7, #4]
 800126c:	460b      	mov	r3, r1
 800126e:	807b      	strh	r3, [r7, #2]
/Users/Somebody/Documents/Eclipse/BeatOS-STM32/Debug/../Src/Lib/StdPeriph/Src/stm32f10x_gpio.c:364
  /* Check the parameters */
  assert_param(IS_GPIO_ALL_PERIPH(GPIOx));
  assert_param(IS_GPIO_PIN(GPIO_Pin));
  
  GPIOx->BSRR = GPIO_Pin;
 8001270:	887a      	ldrh	r2, [r7, #2]
 8001272:	687b      	ldr	r3, [r7, #4]
 8001274:	611a      	str	r2, [r3, #16]
/Users/Somebody/Documents/Eclipse/BeatOS-STM32/Debug/../Src/Lib/StdPeriph/Src/stm32f10x_gpio.c:365
}
 8001276:	f107 070c 	add.w	r7, r7, #12
 800127a:	46bd      	mov	sp, r7
 800127c:	bc80      	pop	{r7}
 800127e:	4770      	bx	lr

08001280 <GPIO_ResetBits>:
GPIO_ResetBits():
/Users/Somebody/Documents/Eclipse/BeatOS-STM32/Debug/../Src/Lib/StdPeriph/Src/stm32f10x_gpio.c:375
  * @param  GPIO_Pin: specifies the port bits to be written.
  *   This parameter can be any combination of GPIO_Pin_x where x can be (0..15).
  * @retval None
  */
void GPIO_ResetBits(GPIO_TypeDef* GPIOx, uint16_t GPIO_Pin)
{
 8001280:	b480      	push	{r7}
 8001282:	b083      	sub	sp, #12
 8001284:	af00      	add	r7, sp, #0
 8001286:	6078      	str	r0, [r7, #4]
 8001288:	460b      	mov	r3, r1
 800128a:	807b      	strh	r3, [r7, #2]
/Users/Somebody/Documents/Eclipse/BeatOS-STM32/Debug/../Src/Lib/StdPeriph/Src/stm32f10x_gpio.c:380
  /* Check the parameters */
  assert_param(IS_GPIO_ALL_PERIPH(GPIOx));
  assert_param(IS_GPIO_PIN(GPIO_Pin));
  
  GPIOx->BRR = GPIO_Pin;
 800128c:	887a      	ldrh	r2, [r7, #2]
 800128e:	687b      	ldr	r3, [r7, #4]
 8001290:	615a      	str	r2, [r3, #20]
/Users/Somebody/Documents/Eclipse/BeatOS-STM32/Debug/../Src/Lib/StdPeriph/Src/stm32f10x_gpio.c:381
}
 8001292:	f107 070c 	add.w	r7, r7, #12
 8001296:	46bd      	mov	sp, r7
 8001298:	bc80      	pop	{r7}
 800129a:	4770      	bx	lr

0800129c <RCC_APB2PeriphClockCmd>:
RCC_APB2PeriphClockCmd():
/Users/Somebody/Documents/Eclipse/BeatOS-STM32/Debug/../Src/Lib/StdPeriph/Src/stm32f10x_rcc.c:1096
  * @param  NewState: new state of the specified peripheral clock.
  *   This parameter can be: ENABLE or DISABLE.
  * @retval None
  */
void RCC_APB2PeriphClockCmd(uint32_t RCC_APB2Periph, FunctionalState NewState)
{
 800129c:	b480      	push	{r7}
 800129e:	b083      	sub	sp, #12
 80012a0:	af00      	add	r7, sp, #0
 80012a2:	6078      	str	r0, [r7, #4]
 80012a4:	460b      	mov	r3, r1
 80012a6:	70fb      	strb	r3, [r7, #3]
/Users/Somebody/Documents/Eclipse/BeatOS-STM32/Debug/../Src/Lib/StdPeriph/Src/stm32f10x_rcc.c:1100
  /* Check the parameters */
  assert_param(IS_RCC_APB2_PERIPH(RCC_APB2Periph));
  assert_param(IS_FUNCTIONAL_STATE(NewState));
  if (NewState != DISABLE)
 80012a8:	78fb      	ldrb	r3, [r7, #3]
 80012aa:	2b00      	cmp	r3, #0
 80012ac:	d00c      	beq.n	80012c8 <RCC_APB2PeriphClockCmd+0x2c>
/Users/Somebody/Documents/Eclipse/BeatOS-STM32/Debug/../Src/Lib/StdPeriph/Src/stm32f10x_rcc.c:1102
  {
    RCC->APB2ENR |= RCC_APB2Periph;
 80012ae:	f44f 5380 	mov.w	r3, #4096	; 0x1000
 80012b2:	f2c4 0302 	movt	r3, #16386	; 0x4002
 80012b6:	f44f 5280 	mov.w	r2, #4096	; 0x1000
 80012ba:	f2c4 0202 	movt	r2, #16386	; 0x4002
 80012be:	6991      	ldr	r1, [r2, #24]
 80012c0:	687a      	ldr	r2, [r7, #4]
 80012c2:	430a      	orrs	r2, r1
 80012c4:	619a      	str	r2, [r3, #24]
 80012c6:	e00d      	b.n	80012e4 <RCC_APB2PeriphClockCmd+0x48>
/Users/Somebody/Documents/Eclipse/BeatOS-STM32/Debug/../Src/Lib/StdPeriph/Src/stm32f10x_rcc.c:1106
  }
  else
  {
    RCC->APB2ENR &= ~RCC_APB2Periph;
 80012c8:	f44f 5380 	mov.w	r3, #4096	; 0x1000
 80012cc:	f2c4 0302 	movt	r3, #16386	; 0x4002
 80012d0:	f44f 5280 	mov.w	r2, #4096	; 0x1000
 80012d4:	f2c4 0202 	movt	r2, #16386	; 0x4002
 80012d8:	6991      	ldr	r1, [r2, #24]
 80012da:	687a      	ldr	r2, [r7, #4]
 80012dc:	ea6f 0202 	mvn.w	r2, r2
 80012e0:	400a      	ands	r2, r1
 80012e2:	619a      	str	r2, [r3, #24]
/Users/Somebody/Documents/Eclipse/BeatOS-STM32/Debug/../Src/Lib/StdPeriph/Src/stm32f10x_rcc.c:1108
  }
}
 80012e4:	f107 070c 	add.w	r7, r7, #12
 80012e8:	46bd      	mov	sp, r7
 80012ea:	bc80      	pop	{r7}
 80012ec:	4770      	bx	lr
 80012ee:	bf00      	nop

080012f0 <ITM_SendChar>:
ITM_SendChar():
/Users/Somebody/Documents/Eclipse/BeatOS-STM32/Debug/../Src/Lib/CMSIS/Include/core_cm3.h:1757
 * The function outputs a character via the ITM channel 0. 
 * The function returns when no debugger is connected that has booked the output.  
 * It is blocking when a debugger is connected, but the previous character send is not transmitted. 
 */
static __INLINE uint32_t ITM_SendChar (uint32_t ch)
{
 80012f0:	b480      	push	{r7}
 80012f2:	b083      	sub	sp, #12
 80012f4:	af00      	add	r7, sp, #0
 80012f6:	6078      	str	r0, [r7, #4]
/Users/Somebody/Documents/Eclipse/BeatOS-STM32/Debug/../Src/Lib/CMSIS/Include/core_cm3.h:1758
  if ((CoreDebug->DEMCR & CoreDebug_DEMCR_TRCENA_Msk)  &&      /* Trace enabled */
 80012f8:	f64e 53f0 	movw	r3, #60912	; 0xedf0
 80012fc:	f2ce 0300 	movt	r3, #57344	; 0xe000
 8001300:	68db      	ldr	r3, [r3, #12]
 8001302:	f003 7380 	and.w	r3, r3, #16777216	; 0x1000000
 8001306:	2b00      	cmp	r3, #0
 8001308:	d01a      	beq.n	8001340 <ITM_SendChar+0x50>
/Users/Somebody/Documents/Eclipse/BeatOS-STM32/Debug/../Src/Lib/CMSIS/Include/core_cm3.h:1759
      (ITM->TCR & ITM_TCR_ITMENA_Msk)                  &&      /* ITM enabled */
 800130a:	f04f 4360 	mov.w	r3, #3758096384	; 0xe0000000
 800130e:	f8d3 3e80 	ldr.w	r3, [r3, #3712]	; 0xe80
 8001312:	f003 0301 	and.w	r3, r3, #1
/Users/Somebody/Documents/Eclipse/BeatOS-STM32/Debug/../Src/Lib/CMSIS/Include/core_cm3.h:1758
 * The function returns when no debugger is connected that has booked the output.  
 * It is blocking when a debugger is connected, but the previous character send is not transmitted. 
 */
static __INLINE uint32_t ITM_SendChar (uint32_t ch)
{
  if ((CoreDebug->DEMCR & CoreDebug_DEMCR_TRCENA_Msk)  &&      /* Trace enabled */
 8001316:	2b00      	cmp	r3, #0
 8001318:	d012      	beq.n	8001340 <ITM_SendChar+0x50>
/Users/Somebody/Documents/Eclipse/BeatOS-STM32/Debug/../Src/Lib/CMSIS/Include/core_cm3.h:1760
      (ITM->TCR & ITM_TCR_ITMENA_Msk)                  &&      /* ITM enabled */
      (ITM->TER & (1ul << 0)        )                    )     /* ITM Port #0 enabled */
 800131a:	f04f 4360 	mov.w	r3, #3758096384	; 0xe0000000
 800131e:	f8d3 3e00 	ldr.w	r3, [r3, #3584]	; 0xe00
 8001322:	f003 0301 	and.w	r3, r3, #1
/Users/Somebody/Documents/Eclipse/BeatOS-STM32/Debug/../Src/Lib/CMSIS/Include/core_cm3.h:1759
 * It is blocking when a debugger is connected, but the previous character send is not transmitted. 
 */
static __INLINE uint32_t ITM_SendChar (uint32_t ch)
{
  if ((CoreDebug->DEMCR & CoreDebug_DEMCR_TRCENA_Msk)  &&      /* Trace enabled */
      (ITM->TCR & ITM_TCR_ITMENA_Msk)                  &&      /* ITM enabled */
 8001326:	2b00      	cmp	r3, #0
 8001328:	d00a      	beq.n	8001340 <ITM_SendChar+0x50>
/Users/Somebody/Documents/Eclipse/BeatOS-STM32/Debug/../Src/Lib/CMSIS/Include/core_cm3.h:1762
      (ITM->TER & (1ul << 0)        )                    )     /* ITM Port #0 enabled */
  {
    while (ITM->PORT[0].u32 == 0);
 800132a:	bf00      	nop
 800132c:	f04f 4360 	mov.w	r3, #3758096384	; 0xe0000000
 8001330:	681b      	ldr	r3, [r3, #0]
 8001332:	2b00      	cmp	r3, #0
 8001334:	d0fa      	beq.n	800132c <ITM_SendChar+0x3c>
/Users/Somebody/Documents/Eclipse/BeatOS-STM32/Debug/../Src/Lib/CMSIS/Include/core_cm3.h:1763
    ITM->PORT[0].u8 = (uint8_t) ch;
 8001336:	f04f 4360 	mov.w	r3, #3758096384	; 0xe0000000
 800133a:	687a      	ldr	r2, [r7, #4]
 800133c:	b2d2      	uxtb	r2, r2
 800133e:	701a      	strb	r2, [r3, #0]
/Users/Somebody/Documents/Eclipse/BeatOS-STM32/Debug/../Src/Lib/CMSIS/Include/core_cm3.h:1765
  }  
  return (ch);
 8001340:	687b      	ldr	r3, [r7, #4]
/Users/Somebody/Documents/Eclipse/BeatOS-STM32/Debug/../Src/Lib/CMSIS/Include/core_cm3.h:1766
}
 8001342:	4618      	mov	r0, r3
 8001344:	f107 070c 	add.w	r7, r7, #12
 8001348:	46bd      	mov	sp, r7
 800134a:	bc80      	pop	{r7}
 800134c:	4770      	bx	lr
 800134e:	bf00      	nop

08001350 <_write_trace_swo>:
_write_trace_swo():
/Users/Somebody/Documents/Eclipse/BeatOS-STM32/Debug/../Src/Lib/Debug/Src/ITM.c:4
#include "ITM.h"

int _write_trace_swo(char* ptr, int len)
{
 8001350:	b580      	push	{r7, lr}
 8001352:	b084      	sub	sp, #16
 8001354:	af00      	add	r7, sp, #0
 8001356:	6078      	str	r0, [r7, #4]
 8001358:	6039      	str	r1, [r7, #0]
/Users/Somebody/Documents/Eclipse/BeatOS-STM32/Debug/../Src/Lib/Debug/Src/ITM.c:5
  int i = 0;
 800135a:	f04f 0300 	mov.w	r3, #0
 800135e:	60fb      	str	r3, [r7, #12]
/Users/Somebody/Documents/Eclipse/BeatOS-STM32/Debug/../Src/Lib/Debug/Src/ITM.c:6
  for (; i < len; i++)
 8001360:	e00d      	b.n	800137e <_write_trace_swo+0x2e>
/Users/Somebody/Documents/Eclipse/BeatOS-STM32/Debug/../Src/Lib/Debug/Src/ITM.c:8
    {
	  ITM_SendChar(*ptr++);
 8001362:	687b      	ldr	r3, [r7, #4]
 8001364:	781b      	ldrb	r3, [r3, #0]
 8001366:	b25b      	sxtb	r3, r3
 8001368:	687a      	ldr	r2, [r7, #4]
 800136a:	f102 0201 	add.w	r2, r2, #1
 800136e:	607a      	str	r2, [r7, #4]
 8001370:	4618      	mov	r0, r3
 8001372:	f7ff ffbd 	bl	80012f0 <ITM_SendChar>
/Users/Somebody/Documents/Eclipse/BeatOS-STM32/Debug/../Src/Lib/Debug/Src/ITM.c:6
#include "ITM.h"

int _write_trace_swo(char* ptr, int len)
{
  int i = 0;
  for (; i < len; i++)
 8001376:	68fb      	ldr	r3, [r7, #12]
 8001378:	f103 0301 	add.w	r3, r3, #1
 800137c:	60fb      	str	r3, [r7, #12]
 800137e:	68fa      	ldr	r2, [r7, #12]
 8001380:	683b      	ldr	r3, [r7, #0]
 8001382:	429a      	cmp	r2, r3
 8001384:	dbed      	blt.n	8001362 <_write_trace_swo+0x12>
/Users/Somebody/Documents/Eclipse/BeatOS-STM32/Debug/../Src/Lib/Debug/Src/ITM.c:11
    {
	  ITM_SendChar(*ptr++);
    }

  return len;
 8001386:	683b      	ldr	r3, [r7, #0]
/Users/Somebody/Documents/Eclipse/BeatOS-STM32/Debug/../Src/Lib/Debug/Src/ITM.c:12
}
 8001388:	4618      	mov	r0, r3
 800138a:	f107 0710 	add.w	r7, r7, #16
 800138e:	46bd      	mov	sp, r7
 8001390:	bd80      	pop	{r7, pc}
 8001392:	bf00      	nop

08001394 <_write>:
_write():
/Users/Somebody/Documents/Eclipse/BeatOS-STM32/Debug/../Src/Lib/Debug/Src/ITM.c:15

int _write(int fd, char* ptr, int len)
{
 8001394:	b580      	push	{r7, lr}
 8001396:	b084      	sub	sp, #16
 8001398:	af00      	add	r7, sp, #0
 800139a:	60f8      	str	r0, [r7, #12]
 800139c:	60b9      	str	r1, [r7, #8]
 800139e:	607a      	str	r2, [r7, #4]
/Users/Somebody/Documents/Eclipse/BeatOS-STM32/Debug/../Src/Lib/Debug/Src/ITM.c:16
  if (fd == 1)
 80013a0:	68fb      	ldr	r3, [r7, #12]
 80013a2:	2b01      	cmp	r3, #1
 80013a4:	d105      	bne.n	80013b2 <_write+0x1e>
/Users/Somebody/Documents/Eclipse/BeatOS-STM32/Debug/../Src/Lib/Debug/Src/ITM.c:18
    {
      return _write_trace_swo(ptr, len);
 80013a6:	68b8      	ldr	r0, [r7, #8]
 80013a8:	6879      	ldr	r1, [r7, #4]
 80013aa:	f7ff ffd1 	bl	8001350 <_write_trace_swo>
 80013ae:	4603      	mov	r3, r0
 80013b0:	e001      	b.n	80013b6 <_write+0x22>
/Users/Somebody/Documents/Eclipse/BeatOS-STM32/Debug/../Src/Lib/Debug/Src/ITM.c:20
    }
  return -1;
 80013b2:	f04f 33ff 	mov.w	r3, #4294967295	; 0xffffffff
/Users/Somebody/Documents/Eclipse/BeatOS-STM32/Debug/../Src/Lib/Debug/Src/ITM.c:21
}
 80013b6:	4618      	mov	r0, r3
 80013b8:	f107 0710 	add.w	r7, r7, #16
 80013bc:	46bd      	mov	sp, r7
 80013be:	bd80      	pop	{r7, pc}

080013c0 <_init>:
_init():
/Users/Somebody/Documents/Eclipse/BeatOS-STM32/Debug/../Src/Lib/Debug/Src/ITM.c:24

void _init()
{
 80013c0:	b480      	push	{r7}
 80013c2:	af00      	add	r7, sp, #0
/Users/Somebody/Documents/Eclipse/BeatOS-STM32/Debug/../Src/Lib/Debug/Src/ITM.c:25
	return;
 80013c4:	bf00      	nop
/Users/Somebody/Documents/Eclipse/BeatOS-STM32/Debug/../Src/Lib/Debug/Src/ITM.c:26
}
 80013c6:	46bd      	mov	sp, r7
 80013c8:	bc80      	pop	{r7}
 80013ca:	4770      	bx	lr

080013cc <SystemInit>:
SystemInit():
/Users/Somebody/Documents/Eclipse/BeatOS-STM32/Debug/../Src/Lib/CMSIS/Src/system_stm32f10x.c:213
  * @note   This function should be used only after reset.
  * @param  None
  * @retval None
  */
void SystemInit (void)
{
 80013cc:	b580      	push	{r7, lr}
 80013ce:	af00      	add	r7, sp, #0
/Users/Somebody/Documents/Eclipse/BeatOS-STM32/Debug/../Src/Lib/CMSIS/Src/system_stm32f10x.c:216
  /* Reset the RCC clock configuration to the default reset state(for debug purpose) */
  /* Set HSION bit */
  RCC->CR |= (uint32_t)0x00000001;
 80013d0:	f44f 5380 	mov.w	r3, #4096	; 0x1000
 80013d4:	f2c4 0302 	movt	r3, #16386	; 0x4002
 80013d8:	f44f 5280 	mov.w	r2, #4096	; 0x1000
 80013dc:	f2c4 0202 	movt	r2, #16386	; 0x4002
 80013e0:	6812      	ldr	r2, [r2, #0]
 80013e2:	f042 0201 	orr.w	r2, r2, #1
 80013e6:	601a      	str	r2, [r3, #0]
/Users/Somebody/Documents/Eclipse/BeatOS-STM32/Debug/../Src/Lib/CMSIS/Src/system_stm32f10x.c:220

  /* Reset SW, HPRE, PPRE1, PPRE2, ADCPRE and MCO bits */
#ifndef STM32F10X_CL
  RCC->CFGR &= (uint32_t)0xF8FF0000;
 80013e8:	f44f 5280 	mov.w	r2, #4096	; 0x1000
 80013ec:	f2c4 0202 	movt	r2, #16386	; 0x4002
 80013f0:	f44f 5380 	mov.w	r3, #4096	; 0x1000
 80013f4:	f2c4 0302 	movt	r3, #16386	; 0x4002
 80013f8:	6859      	ldr	r1, [r3, #4]
 80013fa:	f04f 0300 	mov.w	r3, #0
 80013fe:	f6cf 03ff 	movt	r3, #63743	; 0xf8ff
 8001402:	400b      	ands	r3, r1
 8001404:	6053      	str	r3, [r2, #4]
/Users/Somebody/Documents/Eclipse/BeatOS-STM32/Debug/../Src/Lib/CMSIS/Src/system_stm32f10x.c:226
#else
  RCC->CFGR &= (uint32_t)0xF0FF0000;
#endif /* STM32F10X_CL */   
  
  /* Reset HSEON, CSSON and PLLON bits */
  RCC->CR &= (uint32_t)0xFEF6FFFF;
 8001406:	f44f 5380 	mov.w	r3, #4096	; 0x1000
 800140a:	f2c4 0302 	movt	r3, #16386	; 0x4002
 800140e:	f44f 5280 	mov.w	r2, #4096	; 0x1000
 8001412:	f2c4 0202 	movt	r2, #16386	; 0x4002
 8001416:	6812      	ldr	r2, [r2, #0]
 8001418:	f022 7284 	bic.w	r2, r2, #17301504	; 0x1080000
 800141c:	f422 3280 	bic.w	r2, r2, #65536	; 0x10000
 8001420:	601a      	str	r2, [r3, #0]
/Users/Somebody/Documents/Eclipse/BeatOS-STM32/Debug/../Src/Lib/CMSIS/Src/system_stm32f10x.c:229

  /* Reset HSEBYP bit */
  RCC->CR &= (uint32_t)0xFFFBFFFF;
 8001422:	f44f 5380 	mov.w	r3, #4096	; 0x1000
 8001426:	f2c4 0302 	movt	r3, #16386	; 0x4002
 800142a:	f44f 5280 	mov.w	r2, #4096	; 0x1000
 800142e:	f2c4 0202 	movt	r2, #16386	; 0x4002
 8001432:	6812      	ldr	r2, [r2, #0]
 8001434:	f422 2280 	bic.w	r2, r2, #262144	; 0x40000
 8001438:	601a      	str	r2, [r3, #0]
/Users/Somebody/Documents/Eclipse/BeatOS-STM32/Debug/../Src/Lib/CMSIS/Src/system_stm32f10x.c:232

  /* Reset PLLSRC, PLLXTPRE, PLLMUL and USBPRE/OTGFSPRE bits */
  RCC->CFGR &= (uint32_t)0xFF80FFFF;
 800143a:	f44f 5380 	mov.w	r3, #4096	; 0x1000
 800143e:	f2c4 0302 	movt	r3, #16386	; 0x4002
 8001442:	f44f 5280 	mov.w	r2, #4096	; 0x1000
 8001446:	f2c4 0202 	movt	r2, #16386	; 0x4002
 800144a:	6852      	ldr	r2, [r2, #4]
 800144c:	f422 02fe 	bic.w	r2, r2, #8323072	; 0x7f0000
 8001450:	605a      	str	r2, [r3, #4]
/Users/Somebody/Documents/Eclipse/BeatOS-STM32/Debug/../Src/Lib/CMSIS/Src/system_stm32f10x.c:251

  /* Reset CFGR2 register */
  RCC->CFGR2 = 0x00000000;      
#else
  /* Disable all interrupts and clear pending bits  */
  RCC->CIR = 0x009F0000;
 8001452:	f44f 5380 	mov.w	r3, #4096	; 0x1000
 8001456:	f2c4 0302 	movt	r3, #16386	; 0x4002
 800145a:	f44f 021f 	mov.w	r2, #10420224	; 0x9f0000
 800145e:	609a      	str	r2, [r3, #8]
/Users/Somebody/Documents/Eclipse/BeatOS-STM32/Debug/../Src/Lib/CMSIS/Src/system_stm32f10x.c:262
  #endif /* DATA_IN_ExtSRAM */
#endif 

  /* Configure the System clock frequency, HCLK, PCLK2 and PCLK1 prescalers */
  /* Configure the Flash Latency cycles and enable prefetch buffer */
  SetSysClock();
 8001460:	f000 f808 	bl	8001474 <SetSysClock>
/Users/Somebody/Documents/Eclipse/BeatOS-STM32/Debug/../Src/Lib/CMSIS/Src/system_stm32f10x.c:267

#ifdef VECT_TAB_SRAM
  SCB->VTOR = SRAM_BASE | VECT_TAB_OFFSET; /* Vector Table Relocation in Internal SRAM. */
#else
  SCB->VTOR = FLASH_BASE | VECT_TAB_OFFSET; /* Vector Table Relocation in Internal FLASH. */
 8001464:	f44f 436d 	mov.w	r3, #60672	; 0xed00
 8001468:	f2ce 0300 	movt	r3, #57344	; 0xe000
 800146c:	f04f 6200 	mov.w	r2, #134217728	; 0x8000000
 8001470:	609a      	str	r2, [r3, #8]
/Users/Somebody/Documents/Eclipse/BeatOS-STM32/Debug/../Src/Lib/CMSIS/Src/system_stm32f10x.c:269
#endif 
}
 8001472:	bd80      	pop	{r7, pc}

08001474 <SetSysClock>:
SetSysClock():
/Users/Somebody/Documents/Eclipse/BeatOS-STM32/Debug/../Src/Lib/CMSIS/Src/system_stm32f10x.c:420
  * @brief  Configures the System clock frequency, HCLK, PCLK2 and PCLK1 prescalers.
  * @param  None
  * @retval None
  */
static void SetSysClock(void)
{
 8001474:	b580      	push	{r7, lr}
 8001476:	af00      	add	r7, sp, #0
/Users/Somebody/Documents/Eclipse/BeatOS-STM32/Debug/../Src/Lib/CMSIS/Src/system_stm32f10x.c:432
#elif defined SYSCLK_FREQ_48MHz
  SetSysClockTo48();
#elif defined SYSCLK_FREQ_56MHz
  SetSysClockTo56();  
#elif defined SYSCLK_FREQ_72MHz
  SetSysClockTo72();
 8001478:	f000 f802 	bl	8001480 <SetSysClockTo72>
/Users/Somebody/Documents/Eclipse/BeatOS-STM32/Debug/../Src/Lib/CMSIS/Src/system_stm32f10x.c:437
#endif
 
 /* If none of the define above is enabled, the HSI is used as System clock
    source (default after reset) */ 
}
 800147c:	bd80      	pop	{r7, pc}
 800147e:	bf00      	nop

08001480 <SetSysClockTo72>:
SetSysClockTo72():
/Users/Somebody/Documents/Eclipse/BeatOS-STM32/Debug/../Src/Lib/CMSIS/Src/system_stm32f10x.c:988
  * @note   This function should be used only after reset.
  * @param  None
  * @retval None
  */
static void SetSysClockTo72(void)
{
 8001480:	b480      	push	{r7}
 8001482:	b083      	sub	sp, #12
 8001484:	af00      	add	r7, sp, #0
/Users/Somebody/Documents/Eclipse/BeatOS-STM32/Debug/../Src/Lib/CMSIS/Src/system_stm32f10x.c:989
  __IO uint32_t StartUpCounter = 0, HSEStatus = 0;
 8001486:	f04f 0300 	mov.w	r3, #0
 800148a:	607b      	str	r3, [r7, #4]
 800148c:	f04f 0300 	mov.w	r3, #0
 8001490:	603b      	str	r3, [r7, #0]
/Users/Somebody/Documents/Eclipse/BeatOS-STM32/Debug/../Src/Lib/CMSIS/Src/system_stm32f10x.c:993
  
  /* SYSCLK, HCLK, PCLK2 and PCLK1 configuration ---------------------------*/    
  /* Enable HSE */    
  RCC->CR |= ((uint32_t)RCC_CR_HSEON);
 8001492:	f44f 5380 	mov.w	r3, #4096	; 0x1000
 8001496:	f2c4 0302 	movt	r3, #16386	; 0x4002
 800149a:	f44f 5280 	mov.w	r2, #4096	; 0x1000
 800149e:	f2c4 0202 	movt	r2, #16386	; 0x4002
 80014a2:	6812      	ldr	r2, [r2, #0]
 80014a4:	f442 3280 	orr.w	r2, r2, #65536	; 0x10000
 80014a8:	601a      	str	r2, [r3, #0]
/Users/Somebody/Documents/Eclipse/BeatOS-STM32/Debug/../Src/Lib/CMSIS/Src/system_stm32f10x.c:998
 
  /* Wait till HSE is ready and if Time out is reached exit */
  do
  {
    HSEStatus = RCC->CR & RCC_CR_HSERDY;
 80014aa:	f44f 5380 	mov.w	r3, #4096	; 0x1000
 80014ae:	f2c4 0302 	movt	r3, #16386	; 0x4002
 80014b2:	681b      	ldr	r3, [r3, #0]
 80014b4:	f403 3300 	and.w	r3, r3, #131072	; 0x20000
 80014b8:	603b      	str	r3, [r7, #0]
/Users/Somebody/Documents/Eclipse/BeatOS-STM32/Debug/../Src/Lib/CMSIS/Src/system_stm32f10x.c:999
    StartUpCounter++;  
 80014ba:	687b      	ldr	r3, [r7, #4]
 80014bc:	f103 0301 	add.w	r3, r3, #1
 80014c0:	607b      	str	r3, [r7, #4]
/Users/Somebody/Documents/Eclipse/BeatOS-STM32/Debug/../Src/Lib/CMSIS/Src/system_stm32f10x.c:1000
  } while((HSEStatus == 0) && (StartUpCounter != HSE_STARTUP_TIMEOUT));
 80014c2:	683b      	ldr	r3, [r7, #0]
 80014c4:	2b00      	cmp	r3, #0
 80014c6:	d103      	bne.n	80014d0 <SetSysClockTo72+0x50>
 80014c8:	687b      	ldr	r3, [r7, #4]
 80014ca:	f5b3 6fa0 	cmp.w	r3, #1280	; 0x500
 80014ce:	d1ec      	bne.n	80014aa <SetSysClockTo72+0x2a>
/Users/Somebody/Documents/Eclipse/BeatOS-STM32/Debug/../Src/Lib/CMSIS/Src/system_stm32f10x.c:1002

  if ((RCC->CR & RCC_CR_HSERDY) != RESET)
 80014d0:	f44f 5380 	mov.w	r3, #4096	; 0x1000
 80014d4:	f2c4 0302 	movt	r3, #16386	; 0x4002
 80014d8:	681b      	ldr	r3, [r3, #0]
 80014da:	f403 3300 	and.w	r3, r3, #131072	; 0x20000
 80014de:	2b00      	cmp	r3, #0
 80014e0:	d003      	beq.n	80014ea <SetSysClockTo72+0x6a>
/Users/Somebody/Documents/Eclipse/BeatOS-STM32/Debug/../Src/Lib/CMSIS/Src/system_stm32f10x.c:1004
  {
    HSEStatus = (uint32_t)0x01;
 80014e2:	f04f 0301 	mov.w	r3, #1
 80014e6:	603b      	str	r3, [r7, #0]
 80014e8:	e002      	b.n	80014f0 <SetSysClockTo72+0x70>
/Users/Somebody/Documents/Eclipse/BeatOS-STM32/Debug/../Src/Lib/CMSIS/Src/system_stm32f10x.c:1008
  }
  else
  {
    HSEStatus = (uint32_t)0x00;
 80014ea:	f04f 0300 	mov.w	r3, #0
 80014ee:	603b      	str	r3, [r7, #0]
/Users/Somebody/Documents/Eclipse/BeatOS-STM32/Debug/../Src/Lib/CMSIS/Src/system_stm32f10x.c:1011
  }  

  if (HSEStatus == (uint32_t)0x01)
 80014f0:	683b      	ldr	r3, [r7, #0]
 80014f2:	2b01      	cmp	r3, #1
 80014f4:	f040 8094 	bne.w	8001620 <SetSysClockTo72+0x1a0>
/Users/Somebody/Documents/Eclipse/BeatOS-STM32/Debug/../Src/Lib/CMSIS/Src/system_stm32f10x.c:1014
  {
    /* Enable Prefetch Buffer */
    FLASH->ACR |= FLASH_ACR_PRFTBE;
 80014f8:	f44f 5300 	mov.w	r3, #8192	; 0x2000
 80014fc:	f2c4 0302 	movt	r3, #16386	; 0x4002
 8001500:	f44f 5200 	mov.w	r2, #8192	; 0x2000
 8001504:	f2c4 0202 	movt	r2, #16386	; 0x4002
 8001508:	6812      	ldr	r2, [r2, #0]
 800150a:	f042 0210 	orr.w	r2, r2, #16
 800150e:	601a      	str	r2, [r3, #0]
/Users/Somebody/Documents/Eclipse/BeatOS-STM32/Debug/../Src/Lib/CMSIS/Src/system_stm32f10x.c:1017

    /* Flash 2 wait state */
    FLASH->ACR &= (uint32_t)((uint32_t)~FLASH_ACR_LATENCY);
 8001510:	f44f 5300 	mov.w	r3, #8192	; 0x2000
 8001514:	f2c4 0302 	movt	r3, #16386	; 0x4002
 8001518:	f44f 5200 	mov.w	r2, #8192	; 0x2000
 800151c:	f2c4 0202 	movt	r2, #16386	; 0x4002
 8001520:	6812      	ldr	r2, [r2, #0]
 8001522:	f022 0203 	bic.w	r2, r2, #3
 8001526:	601a      	str	r2, [r3, #0]
/Users/Somebody/Documents/Eclipse/BeatOS-STM32/Debug/../Src/Lib/CMSIS/Src/system_stm32f10x.c:1018
    FLASH->ACR |= (uint32_t)FLASH_ACR_LATENCY_2;    
 8001528:	f44f 5300 	mov.w	r3, #8192	; 0x2000
 800152c:	f2c4 0302 	movt	r3, #16386	; 0x4002
 8001530:	f44f 5200 	mov.w	r2, #8192	; 0x2000
 8001534:	f2c4 0202 	movt	r2, #16386	; 0x4002
 8001538:	6812      	ldr	r2, [r2, #0]
 800153a:	f042 0202 	orr.w	r2, r2, #2
 800153e:	601a      	str	r2, [r3, #0]
/Users/Somebody/Documents/Eclipse/BeatOS-STM32/Debug/../Src/Lib/CMSIS/Src/system_stm32f10x.c:1022

 
    /* HCLK = SYSCLK */
    RCC->CFGR |= (uint32_t)RCC_CFGR_HPRE_DIV1;
 8001540:	f44f 5380 	mov.w	r3, #4096	; 0x1000
 8001544:	f2c4 0302 	movt	r3, #16386	; 0x4002
 8001548:	f44f 5280 	mov.w	r2, #4096	; 0x1000
 800154c:	f2c4 0202 	movt	r2, #16386	; 0x4002
 8001550:	6852      	ldr	r2, [r2, #4]
 8001552:	605a      	str	r2, [r3, #4]
/Users/Somebody/Documents/Eclipse/BeatOS-STM32/Debug/../Src/Lib/CMSIS/Src/system_stm32f10x.c:1025
      
    /* PCLK2 = HCLK */
    RCC->CFGR |= (uint32_t)RCC_CFGR_PPRE2_DIV1;
 8001554:	f44f 5380 	mov.w	r3, #4096	; 0x1000
 8001558:	f2c4 0302 	movt	r3, #16386	; 0x4002
 800155c:	f44f 5280 	mov.w	r2, #4096	; 0x1000
 8001560:	f2c4 0202 	movt	r2, #16386	; 0x4002
 8001564:	6852      	ldr	r2, [r2, #4]
 8001566:	605a      	str	r2, [r3, #4]
/Users/Somebody/Documents/Eclipse/BeatOS-STM32/Debug/../Src/Lib/CMSIS/Src/system_stm32f10x.c:1028
    
    /* PCLK1 = HCLK */
    RCC->CFGR |= (uint32_t)RCC_CFGR_PPRE1_DIV2;
 8001568:	f44f 5380 	mov.w	r3, #4096	; 0x1000
 800156c:	f2c4 0302 	movt	r3, #16386	; 0x4002
 8001570:	f44f 5280 	mov.w	r2, #4096	; 0x1000
 8001574:	f2c4 0202 	movt	r2, #16386	; 0x4002
 8001578:	6852      	ldr	r2, [r2, #4]
 800157a:	f442 6280 	orr.w	r2, r2, #1024	; 0x400
 800157e:	605a      	str	r2, [r3, #4]
/Users/Somebody/Documents/Eclipse/BeatOS-STM32/Debug/../Src/Lib/CMSIS/Src/system_stm32f10x.c:1054
    RCC->CFGR &= (uint32_t)~(RCC_CFGR_PLLXTPRE | RCC_CFGR_PLLSRC | RCC_CFGR_PLLMULL);
    RCC->CFGR |= (uint32_t)(RCC_CFGR_PLLXTPRE_PREDIV1 | RCC_CFGR_PLLSRC_PREDIV1 | 
                            RCC_CFGR_PLLMULL9); 
#else    
    /*  PLL configuration: PLLCLK = HSE * 9 = 72 MHz */
    RCC->CFGR &= (uint32_t)((uint32_t)~(RCC_CFGR_PLLSRC | RCC_CFGR_PLLXTPRE |
 8001580:	f44f 5380 	mov.w	r3, #4096	; 0x1000
 8001584:	f2c4 0302 	movt	r3, #16386	; 0x4002
 8001588:	f44f 5280 	mov.w	r2, #4096	; 0x1000
 800158c:	f2c4 0202 	movt	r2, #16386	; 0x4002
 8001590:	6852      	ldr	r2, [r2, #4]
 8001592:	f422 127c 	bic.w	r2, r2, #4128768	; 0x3f0000
 8001596:	605a      	str	r2, [r3, #4]
/Users/Somebody/Documents/Eclipse/BeatOS-STM32/Debug/../Src/Lib/CMSIS/Src/system_stm32f10x.c:1056
                                        RCC_CFGR_PLLMULL));
    RCC->CFGR |= (uint32_t)(RCC_CFGR_PLLSRC_HSE | RCC_CFGR_PLLMULL9);
 8001598:	f44f 5380 	mov.w	r3, #4096	; 0x1000
 800159c:	f2c4 0302 	movt	r3, #16386	; 0x4002
 80015a0:	f44f 5280 	mov.w	r2, #4096	; 0x1000
 80015a4:	f2c4 0202 	movt	r2, #16386	; 0x4002
 80015a8:	6852      	ldr	r2, [r2, #4]
 80015aa:	f442 12e8 	orr.w	r2, r2, #1900544	; 0x1d0000
 80015ae:	605a      	str	r2, [r3, #4]
/Users/Somebody/Documents/Eclipse/BeatOS-STM32/Debug/../Src/Lib/CMSIS/Src/system_stm32f10x.c:1060
#endif /* STM32F10X_CL */

    /* Enable PLL */
    RCC->CR |= RCC_CR_PLLON;
 80015b0:	f44f 5380 	mov.w	r3, #4096	; 0x1000
 80015b4:	f2c4 0302 	movt	r3, #16386	; 0x4002
 80015b8:	f44f 5280 	mov.w	r2, #4096	; 0x1000
 80015bc:	f2c4 0202 	movt	r2, #16386	; 0x4002
 80015c0:	6812      	ldr	r2, [r2, #0]
 80015c2:	f042 7280 	orr.w	r2, r2, #16777216	; 0x1000000
 80015c6:	601a      	str	r2, [r3, #0]
/Users/Somebody/Documents/Eclipse/BeatOS-STM32/Debug/../Src/Lib/CMSIS/Src/system_stm32f10x.c:1063

    /* Wait till PLL is ready */
    while((RCC->CR & RCC_CR_PLLRDY) == 0)
 80015c8:	bf00      	nop
 80015ca:	f44f 5380 	mov.w	r3, #4096	; 0x1000
 80015ce:	f2c4 0302 	movt	r3, #16386	; 0x4002
 80015d2:	681b      	ldr	r3, [r3, #0]
 80015d4:	f003 7300 	and.w	r3, r3, #33554432	; 0x2000000
 80015d8:	2b00      	cmp	r3, #0
 80015da:	d0f6      	beq.n	80015ca <SetSysClockTo72+0x14a>
/Users/Somebody/Documents/Eclipse/BeatOS-STM32/Debug/../Src/Lib/CMSIS/Src/system_stm32f10x.c:1068
    {
    }
    
    /* Select PLL as system clock source */
    RCC->CFGR &= (uint32_t)((uint32_t)~(RCC_CFGR_SW));
 80015dc:	f44f 5380 	mov.w	r3, #4096	; 0x1000
 80015e0:	f2c4 0302 	movt	r3, #16386	; 0x4002
 80015e4:	f44f 5280 	mov.w	r2, #4096	; 0x1000
 80015e8:	f2c4 0202 	movt	r2, #16386	; 0x4002
 80015ec:	6852      	ldr	r2, [r2, #4]
 80015ee:	f022 0203 	bic.w	r2, r2, #3
 80015f2:	605a      	str	r2, [r3, #4]
/Users/Somebody/Documents/Eclipse/BeatOS-STM32/Debug/../Src/Lib/CMSIS/Src/system_stm32f10x.c:1069
    RCC->CFGR |= (uint32_t)RCC_CFGR_SW_PLL;    
 80015f4:	f44f 5380 	mov.w	r3, #4096	; 0x1000
 80015f8:	f2c4 0302 	movt	r3, #16386	; 0x4002
 80015fc:	f44f 5280 	mov.w	r2, #4096	; 0x1000
 8001600:	f2c4 0202 	movt	r2, #16386	; 0x4002
 8001604:	6852      	ldr	r2, [r2, #4]
 8001606:	f042 0202 	orr.w	r2, r2, #2
 800160a:	605a      	str	r2, [r3, #4]
/Users/Somebody/Documents/Eclipse/BeatOS-STM32/Debug/../Src/Lib/CMSIS/Src/system_stm32f10x.c:1072

    /* Wait till PLL is used as system clock source */
    while ((RCC->CFGR & (uint32_t)RCC_CFGR_SWS) != (uint32_t)0x08)
 800160c:	bf00      	nop
 800160e:	f44f 5380 	mov.w	r3, #4096	; 0x1000
 8001612:	f2c4 0302 	movt	r3, #16386	; 0x4002
 8001616:	685b      	ldr	r3, [r3, #4]
 8001618:	f003 030c 	and.w	r3, r3, #12
 800161c:	2b08      	cmp	r3, #8
 800161e:	d1f6      	bne.n	800160e <SetSysClockTo72+0x18e>
/Users/Somebody/Documents/Eclipse/BeatOS-STM32/Debug/../Src/Lib/CMSIS/Src/system_stm32f10x.c:1080
  }
  else
  { /* If HSE fails to start-up, the application will have wrong clock 
         configuration. User can add here some code to deal with this error */
  }
}
 8001620:	f107 070c 	add.w	r7, r7, #12
 8001624:	46bd      	mov	sp, r7
 8001626:	bc80      	pop	{r7}
 8001628:	4770      	bx	lr
 800162a:	bf00      	nop

0800162c <NMI_Handler>:
NMI_Handler():
/Users/Somebody/Documents/Eclipse/BeatOS-STM32/Debug/../Src/IO/Interrupt.c:48
  * @brief  This function handles NMI exception.
  * @param  None
  * @retval None
  */
void NMI_Handler(void)
{
 800162c:	b480      	push	{r7}
 800162e:	af00      	add	r7, sp, #0
/Users/Somebody/Documents/Eclipse/BeatOS-STM32/Debug/../Src/IO/Interrupt.c:49
}
 8001630:	46bd      	mov	sp, r7
 8001632:	bc80      	pop	{r7}
 8001634:	4770      	bx	lr
 8001636:	bf00      	nop

08001638 <MemManage_Handler>:
MemManage_Handler():
/Users/Somebody/Documents/Eclipse/BeatOS-STM32/Debug/../Src/IO/Interrupt.c:120
  * @brief  This function handles Memory Manage exception.
  * @param  None
  * @retval None
  */
void MemManage_Handler(void)
{
 8001638:	b480      	push	{r7}
 800163a:	af00      	add	r7, sp, #0
/Users/Somebody/Documents/Eclipse/BeatOS-STM32/Debug/../Src/IO/Interrupt.c:124
  /* Go to infinite loop when Memory Manage exception occurs */
  while (1)
  {
  }
 800163c:	e7fe      	b.n	800163c <MemManage_Handler+0x4>
 800163e:	bf00      	nop

08001640 <BusFault_Handler>:
BusFault_Handler():
/Users/Somebody/Documents/Eclipse/BeatOS-STM32/Debug/../Src/IO/Interrupt.c:133
  * @brief  This function handles Bus Fault exception.
  * @param  None
  * @retval None
  */
void BusFault_Handler(void)
{
 8001640:	b480      	push	{r7}
 8001642:	af00      	add	r7, sp, #0
/Users/Somebody/Documents/Eclipse/BeatOS-STM32/Debug/../Src/IO/Interrupt.c:137
  /* Go to infinite loop when Bus Fault exception occurs */
  while (1)
  {
  }
 8001644:	e7fe      	b.n	8001644 <BusFault_Handler+0x4>
 8001646:	bf00      	nop

08001648 <UsageFault_Handler>:
UsageFault_Handler():
/Users/Somebody/Documents/Eclipse/BeatOS-STM32/Debug/../Src/IO/Interrupt.c:146
  * @brief  This function handles Usage Fault exception.
  * @param  None
  * @retval None
  */
void UsageFault_Handler(void)
{
 8001648:	b480      	push	{r7}
 800164a:	af00      	add	r7, sp, #0
/Users/Somebody/Documents/Eclipse/BeatOS-STM32/Debug/../Src/IO/Interrupt.c:150
  /* Go to infinite loop when Usage Fault exception occurs */
  while (1)
  {
  }
 800164c:	e7fe      	b.n	800164c <UsageFault_Handler+0x4>
 800164e:	bf00      	nop

08001650 <SVC_Handler>:
SVC_Handler():
/Users/Somebody/Documents/Eclipse/BeatOS-STM32/Debug/../Src/IO/Interrupt.c:159
  * @brief  This function handles SVCall exception.
  * @param  None
  * @retval None
  */
void SVC_Handler(void)
{
 8001650:	b480      	push	{r7}
 8001652:	af00      	add	r7, sp, #0
/Users/Somebody/Documents/Eclipse/BeatOS-STM32/Debug/../Src/IO/Interrupt.c:160
}
 8001654:	46bd      	mov	sp, r7
 8001656:	bc80      	pop	{r7}
 8001658:	4770      	bx	lr
 800165a:	bf00      	nop

0800165c <DebugMon_Handler>:
DebugMon_Handler():
/Users/Somebody/Documents/Eclipse/BeatOS-STM32/Debug/../Src/IO/Interrupt.c:168
  * @brief  This function handles Debug Monitor exception.
  * @param  None
  * @retval None
  */
void DebugMon_Handler(void)
{
 800165c:	b480      	push	{r7}
 800165e:	af00      	add	r7, sp, #0
/Users/Somebody/Documents/Eclipse/BeatOS-STM32/Debug/../Src/IO/Interrupt.c:169
}
 8001660:	46bd      	mov	sp, r7
 8001662:	bc80      	pop	{r7}
 8001664:	4770      	bx	lr
 8001666:	bf00      	nop

08001668 <PendSV_Handler>:
PendSV_Handler():
/Users/Somebody/Documents/Eclipse/BeatOS-STM32/Debug/../Src/IO/Interrupt.c:177
  * @brief  This function handles PendSVC exception.
  * @param  None
  * @retval None
*/
void PendSV_Handler(void)
{
 8001668:	b480      	push	{r7}
 800166a:	af00      	add	r7, sp, #0
/Users/Somebody/Documents/Eclipse/BeatOS-STM32/Debug/../Src/IO/Interrupt.c:178
}
 800166c:	46bd      	mov	sp, r7
 800166e:	bc80      	pop	{r7}
 8001670:	4770      	bx	lr
 8001672:	bf00      	nop

08001674 <SDIO_IRQHandler>:
SDIO_IRQHandler():
/Users/Somebody/Documents/Eclipse/BeatOS-STM32/Debug/../Src/IO/Interrupt.c:203
/*void PPP_IRQHandler(void)
{
}*/

void SDIO_IRQHandler(void)
{
 8001674:	b480      	push	{r7}
 8001676:	af00      	add	r7, sp, #0
/Users/Somebody/Documents/Eclipse/BeatOS-STM32/Debug/../Src/IO/Interrupt.c:205

}
 8001678:	46bd      	mov	sp, r7
 800167a:	bc80      	pop	{r7}
 800167c:	4770      	bx	lr
 800167e:	bf00      	nop

08001680 <USART1_IRQHandler>:
USART1_IRQHandler():
/Users/Somebody/Documents/Eclipse/BeatOS-STM32/Debug/../Src/IO/Interrupt.c:208

void USART1_IRQHandler(void)
{
 8001680:	b480      	push	{r7}
 8001682:	af00      	add	r7, sp, #0
/Users/Somebody/Documents/Eclipse/BeatOS-STM32/Debug/../Src/IO/Interrupt.c:210

}
 8001684:	46bd      	mov	sp, r7
 8001686:	bc80      	pop	{r7}
 8001688:	4770      	bx	lr
 800168a:	bf00      	nop

0800168c <EXTI9_5_IRQHandler>:
EXTI9_5_IRQHandler():
/Users/Somebody/Documents/Eclipse/BeatOS-STM32/Debug/../Src/IO/Interrupt.c:213

void EXTI9_5_IRQHandler(void)
{
 800168c:	b480      	push	{r7}
 800168e:	af00      	add	r7, sp, #0
/Users/Somebody/Documents/Eclipse/BeatOS-STM32/Debug/../Src/IO/Interrupt.c:215

}
 8001690:	46bd      	mov	sp, r7
 8001692:	bc80      	pop	{r7}
 8001694:	4770      	bx	lr
 8001696:	bf00      	nop

08001698 <Reset_Handler>:
Reset_Handler():
/Users/Somebody/Documents/Eclipse/BeatOS-STM32/Debug/../Src/IO/startup_stm32f10x_hd.S:69
	.weak	Reset_Handler
	.type	Reset_Handler, %function
Reset_Handler:

/* Copy the data segment initializers from flash to SRAM */
  movs	r1, #0
 8001698:	2100      	movs	r1, #0
/Users/Somebody/Documents/Eclipse/BeatOS-STM32/Debug/../Src/IO/startup_stm32f10x_hd.S:70
  b	LoopCopyDataInit
 800169a:	f000 b804 	b.w	80016a6 <LoopCopyDataInit>

0800169e <CopyDataInit>:
CopyDataInit():
/Users/Somebody/Documents/Eclipse/BeatOS-STM32/Debug/../Src/IO/startup_stm32f10x_hd.S:73

CopyDataInit:
	ldr	r3, =_sidata
 800169e:	4b0d      	ldr	r3, [pc, #52]	; (80016d4 <LoopFillZerobss+0x16>)
/Users/Somebody/Documents/Eclipse/BeatOS-STM32/Debug/../Src/IO/startup_stm32f10x_hd.S:74
	ldr	r3, [r3, r1]
 80016a0:	585b      	ldr	r3, [r3, r1]
/Users/Somebody/Documents/Eclipse/BeatOS-STM32/Debug/../Src/IO/startup_stm32f10x_hd.S:75
	str	r3, [r0, r1]
 80016a2:	5043      	str	r3, [r0, r1]
/Users/Somebody/Documents/Eclipse/BeatOS-STM32/Debug/../Src/IO/startup_stm32f10x_hd.S:76
	adds	r1, r1, #4
 80016a4:	3104      	adds	r1, #4

080016a6 <LoopCopyDataInit>:
LoopCopyDataInit():
/Users/Somebody/Documents/Eclipse/BeatOS-STM32/Debug/../Src/IO/startup_stm32f10x_hd.S:79

LoopCopyDataInit:
	ldr	r0, =_sdata
 80016a6:	480c      	ldr	r0, [pc, #48]	; (80016d8 <LoopFillZerobss+0x1a>)
/Users/Somebody/Documents/Eclipse/BeatOS-STM32/Debug/../Src/IO/startup_stm32f10x_hd.S:80
	ldr	r3, =_edata
 80016a8:	4b0c      	ldr	r3, [pc, #48]	; (80016dc <LoopFillZerobss+0x1e>)
/Users/Somebody/Documents/Eclipse/BeatOS-STM32/Debug/../Src/IO/startup_stm32f10x_hd.S:81
	adds	r2, r0, r1
 80016aa:	1842      	adds	r2, r0, r1
/Users/Somebody/Documents/Eclipse/BeatOS-STM32/Debug/../Src/IO/startup_stm32f10x_hd.S:82
	cmp	r2, r3
 80016ac:	429a      	cmp	r2, r3
/Users/Somebody/Documents/Eclipse/BeatOS-STM32/Debug/../Src/IO/startup_stm32f10x_hd.S:83
	bcc	CopyDataInit
 80016ae:	f4ff aff6 	bcc.w	800169e <CopyDataInit>
/Users/Somebody/Documents/Eclipse/BeatOS-STM32/Debug/../Src/IO/startup_stm32f10x_hd.S:84
	ldr	r2, =_sbss
 80016b2:	4a0b      	ldr	r2, [pc, #44]	; (80016e0 <LoopFillZerobss+0x22>)
/Users/Somebody/Documents/Eclipse/BeatOS-STM32/Debug/../Src/IO/startup_stm32f10x_hd.S:85
	b	LoopFillZerobss
 80016b4:	f000 b803 	b.w	80016be <LoopFillZerobss>

080016b8 <FillZerobss>:
FillZerobss():
/Users/Somebody/Documents/Eclipse/BeatOS-STM32/Debug/../Src/IO/startup_stm32f10x_hd.S:88
/* Zero fill the bss segment. */
FillZerobss:
	movs	r3, #0
 80016b8:	2300      	movs	r3, #0
/Users/Somebody/Documents/Eclipse/BeatOS-STM32/Debug/../Src/IO/startup_stm32f10x_hd.S:89
	str	r3, [r2], #4
 80016ba:	f842 3b04 	str.w	r3, [r2], #4

080016be <LoopFillZerobss>:
LoopFillZerobss():
/Users/Somebody/Documents/Eclipse/BeatOS-STM32/Debug/../Src/IO/startup_stm32f10x_hd.S:92

LoopFillZerobss:
	ldr	r3, = _ebss
 80016be:	4b09      	ldr	r3, [pc, #36]	; (80016e4 <LoopFillZerobss+0x26>)
/Users/Somebody/Documents/Eclipse/BeatOS-STM32/Debug/../Src/IO/startup_stm32f10x_hd.S:93
	cmp	r2, r3
 80016c0:	429a      	cmp	r2, r3
/Users/Somebody/Documents/Eclipse/BeatOS-STM32/Debug/../Src/IO/startup_stm32f10x_hd.S:94
	bcc	FillZerobss
 80016c2:	f4ff aff9 	bcc.w	80016b8 <FillZerobss>
/Users/Somebody/Documents/Eclipse/BeatOS-STM32/Debug/../Src/IO/startup_stm32f10x_hd.S:97

/* Call the clock system intitialization function.*/
    bl  SystemInit
 80016c6:	f7ff fe81 	bl	80013cc <SystemInit>
/Users/Somebody/Documents/Eclipse/BeatOS-STM32/Debug/../Src/IO/startup_stm32f10x_hd.S:99
/* Call static constructors */
    bl __libc_init_array
 80016ca:	f000 f8fd 	bl	80018c8 <__libc_init_array>
/Users/Somebody/Documents/Eclipse/BeatOS-STM32/Debug/../Src/IO/startup_stm32f10x_hd.S:101
/* Call the application's entry point.*/
	bl	main
 80016ce:	f000 f86d 	bl	80017ac <main>
/Users/Somebody/Documents/Eclipse/BeatOS-STM32/Debug/../Src/IO/startup_stm32f10x_hd.S:102
	bx	lr
 80016d2:	4770      	bx	lr
/Users/Somebody/Documents/Eclipse/BeatOS-STM32/Debug/../Src/IO/startup_stm32f10x_hd.S:73
/* Copy the data segment initializers from flash to SRAM */
  movs	r1, #0
  b	LoopCopyDataInit

CopyDataInit:
	ldr	r3, =_sidata
 80016d4:	08007778 	.word	0x08007778
/Users/Somebody/Documents/Eclipse/BeatOS-STM32/Debug/../Src/IO/startup_stm32f10x_hd.S:79
	ldr	r3, [r3, r1]
	str	r3, [r0, r1]
	adds	r1, r1, #4

LoopCopyDataInit:
	ldr	r0, =_sdata
 80016d8:	20000000 	.word	0x20000000
/Users/Somebody/Documents/Eclipse/BeatOS-STM32/Debug/../Src/IO/startup_stm32f10x_hd.S:80
	ldr	r3, =_edata
 80016dc:	200008a4 	.word	0x200008a4
/Users/Somebody/Documents/Eclipse/BeatOS-STM32/Debug/../Src/IO/startup_stm32f10x_hd.S:84
	adds	r2, r0, r1
	cmp	r2, r3
	bcc	CopyDataInit
	ldr	r2, =_sbss
 80016e0:	200008a4 	.word	0x200008a4
/Users/Somebody/Documents/Eclipse/BeatOS-STM32/Debug/../Src/IO/startup_stm32f10x_hd.S:92
FillZerobss:
	movs	r3, #0
	str	r3, [r2], #4

LoopFillZerobss:
	ldr	r3, = _ebss
 80016e4:	200008e4 	.word	0x200008e4

080016e8 <ADC1_2_IRQHandler>:
DMA2_Channel3_IRQHandler():
/Users/Somebody/Documents/Eclipse/BeatOS-STM32/Debug/../Src/IO/startup_stm32f10x_hd.S:116
 * @retval : None
*/
    .section	.text.Default_Handler,"ax",%progbits
Default_Handler:
Infinite_Loop:
	b	Infinite_Loop
 80016e8:	f7ff bffe 	b.w	80016e8 <ADC1_2_IRQHandler>

080016ec <NVIC_SetPriority>:
NVIC_SetPriority():
/Users/Somebody/Documents/Eclipse/BeatOS-STM32/Debug/../Src/Lib/CMSIS/Include/core_cm3.h:1587
 * interrupt, or negative to specify an internal (core) interrupt.
 *
 * Note: The priority cannot be set for every core interrupt.
 */
static __INLINE void NVIC_SetPriority(IRQn_Type IRQn, uint32_t priority)
{
 80016ec:	b480      	push	{r7}
 80016ee:	b083      	sub	sp, #12
 80016f0:	af00      	add	r7, sp, #0
 80016f2:	4603      	mov	r3, r0
 80016f4:	6039      	str	r1, [r7, #0]
 80016f6:	71fb      	strb	r3, [r7, #7]
/Users/Somebody/Documents/Eclipse/BeatOS-STM32/Debug/../Src/Lib/CMSIS/Include/core_cm3.h:1588
  if(IRQn < 0) {
 80016f8:	f997 3007 	ldrsb.w	r3, [r7, #7]
 80016fc:	2b00      	cmp	r3, #0
 80016fe:	da10      	bge.n	8001722 <NVIC_SetPriority+0x36>
/Users/Somebody/Documents/Eclipse/BeatOS-STM32/Debug/../Src/Lib/CMSIS/Include/core_cm3.h:1589
    SCB->SHP[((uint32_t)(IRQn) & 0xF)-4] = ((priority << (8 - __NVIC_PRIO_BITS)) & 0xff); } /* set Priority for Cortex-M3 System Interrupts */
 8001700:	f44f 436d 	mov.w	r3, #60672	; 0xed00
 8001704:	f2ce 0300 	movt	r3, #57344	; 0xe000
 8001708:	79fa      	ldrb	r2, [r7, #7]
 800170a:	f002 020f 	and.w	r2, r2, #15
 800170e:	f1a2 0104 	sub.w	r1, r2, #4
 8001712:	683a      	ldr	r2, [r7, #0]
 8001714:	b2d2      	uxtb	r2, r2
 8001716:	ea4f 1202 	mov.w	r2, r2, lsl #4
 800171a:	b2d2      	uxtb	r2, r2
 800171c:	185b      	adds	r3, r3, r1
 800171e:	761a      	strb	r2, [r3, #24]
 8001720:	e00d      	b.n	800173e <NVIC_SetPriority+0x52>
/Users/Somebody/Documents/Eclipse/BeatOS-STM32/Debug/../Src/Lib/CMSIS/Include/core_cm3.h:1591
  else {
    NVIC->IP[(uint32_t)(IRQn)] = ((priority << (8 - __NVIC_PRIO_BITS)) & 0xff);    }        /* set Priority for device specific Interrupts  */
 8001722:	f44f 4361 	mov.w	r3, #57600	; 0xe100
 8001726:	f2ce 0300 	movt	r3, #57344	; 0xe000
 800172a:	f997 1007 	ldrsb.w	r1, [r7, #7]
 800172e:	683a      	ldr	r2, [r7, #0]
 8001730:	b2d2      	uxtb	r2, r2
 8001732:	ea4f 1202 	mov.w	r2, r2, lsl #4
 8001736:	b2d2      	uxtb	r2, r2
 8001738:	185b      	adds	r3, r3, r1
 800173a:	f883 2300 	strb.w	r2, [r3, #768]	; 0x300
/Users/Somebody/Documents/Eclipse/BeatOS-STM32/Debug/../Src/Lib/CMSIS/Include/core_cm3.h:1592
}
 800173e:	f107 070c 	add.w	r7, r7, #12
 8001742:	46bd      	mov	sp, r7
 8001744:	bc80      	pop	{r7}
 8001746:	4770      	bx	lr

08001748 <SysTick_Config>:
SysTick_Config():
/Users/Somebody/Documents/Eclipse/BeatOS-STM32/Debug/../Src/Lib/CMSIS/Include/core_cm3.h:1695
 * Initialise the system tick timer and its interrupt and start the
 * system tick timer / counter in free running mode to generate 
 * periodical interrupts.
 */
static __INLINE uint32_t SysTick_Config(uint32_t ticks)
{ 
 8001748:	b580      	push	{r7, lr}
 800174a:	b082      	sub	sp, #8
 800174c:	af00      	add	r7, sp, #0
 800174e:	6078      	str	r0, [r7, #4]
/Users/Somebody/Documents/Eclipse/BeatOS-STM32/Debug/../Src/Lib/CMSIS/Include/core_cm3.h:1696
  if (ticks > SysTick_LOAD_RELOAD_Msk)  return (1);            /* Reload value impossible */
 8001750:	687a      	ldr	r2, [r7, #4]
 8001752:	f06f 437f 	mvn.w	r3, #4278190080	; 0xff000000
 8001756:	429a      	cmp	r2, r3
 8001758:	d902      	bls.n	8001760 <SysTick_Config+0x18>
 800175a:	f04f 0301 	mov.w	r3, #1
 800175e:	e01f      	b.n	80017a0 <SysTick_Config+0x58>
/Users/Somebody/Documents/Eclipse/BeatOS-STM32/Debug/../Src/Lib/CMSIS/Include/core_cm3.h:1698
                                                               
  SysTick->LOAD  = (ticks & SysTick_LOAD_RELOAD_Msk) - 1;      /* set reload register */
 8001760:	f24e 0310 	movw	r3, #57360	; 0xe010
 8001764:	f2ce 0300 	movt	r3, #57344	; 0xe000
 8001768:	687a      	ldr	r2, [r7, #4]
 800176a:	f022 427f 	bic.w	r2, r2, #4278190080	; 0xff000000
 800176e:	f102 32ff 	add.w	r2, r2, #4294967295	; 0xffffffff
 8001772:	605a      	str	r2, [r3, #4]
/Users/Somebody/Documents/Eclipse/BeatOS-STM32/Debug/../Src/Lib/CMSIS/Include/core_cm3.h:1699
  NVIC_SetPriority (SysTick_IRQn, (1<<__NVIC_PRIO_BITS) - 1);  /* set Priority for Cortex-M0 System Interrupts */
 8001774:	f04f 30ff 	mov.w	r0, #4294967295	; 0xffffffff
 8001778:	f04f 010f 	mov.w	r1, #15
 800177c:	f7ff ffb6 	bl	80016ec <NVIC_SetPriority>
/Users/Somebody/Documents/Eclipse/BeatOS-STM32/Debug/../Src/Lib/CMSIS/Include/core_cm3.h:1700
  SysTick->VAL   = 0;                                          /* Load the SysTick Counter Value */
 8001780:	f24e 0310 	movw	r3, #57360	; 0xe010
 8001784:	f2ce 0300 	movt	r3, #57344	; 0xe000
 8001788:	f04f 0200 	mov.w	r2, #0
 800178c:	609a      	str	r2, [r3, #8]
/Users/Somebody/Documents/Eclipse/BeatOS-STM32/Debug/../Src/Lib/CMSIS/Include/core_cm3.h:1701
  SysTick->CTRL  = SysTick_CTRL_CLKSOURCE_Msk | 
 800178e:	f24e 0310 	movw	r3, #57360	; 0xe010
 8001792:	f2ce 0300 	movt	r3, #57344	; 0xe000
 8001796:	f04f 0207 	mov.w	r2, #7
 800179a:	601a      	str	r2, [r3, #0]
/Users/Somebody/Documents/Eclipse/BeatOS-STM32/Debug/../Src/Lib/CMSIS/Include/core_cm3.h:1704
                   SysTick_CTRL_TICKINT_Msk   | 
                   SysTick_CTRL_ENABLE_Msk;                    /* Enable SysTick IRQ and SysTick Timer */
  return (0);                                                  /* Function successful */
 800179c:	f04f 0300 	mov.w	r3, #0
/Users/Somebody/Documents/Eclipse/BeatOS-STM32/Debug/../Src/Lib/CMSIS/Include/core_cm3.h:1705
}
 80017a0:	4618      	mov	r0, r3
 80017a2:	f107 0708 	add.w	r7, r7, #8
 80017a6:	46bd      	mov	sp, r7
 80017a8:	bd80      	pop	{r7, pc}
 80017aa:	bf00      	nop

080017ac <main>:
main():
/Users/Somebody/Documents/Eclipse/BeatOS-STM32/Debug/../Src/BeatOS_Main.c:65
#define BLINK_TICKS     SYSTICK_FREQUENCY_HZ/2

// ----------------------------------------------------------------------------

int main()
{
 80017ac:	b580      	push	{r7, lr}
 80017ae:	b082      	sub	sp, #8
 80017b0:	af00      	add	r7, sp, #0
/Users/Somebody/Documents/Eclipse/BeatOS-STM32/Debug/../Src/BeatOS_Main.c:68
#if defined(DEBUG)

  printf("Hello ARM World!\n");
 80017b2:	f247 50c8 	movw	r0, #30152	; 0x75c8
 80017b6:	f6c0 0000 	movt	r0, #2048	; 0x800
 80017ba:	f000 f919 	bl	80019f0 <puts>
/Users/Somebody/Documents/Eclipse/BeatOS-STM32/Debug/../Src/BeatOS_Main.c:81
   * To reconfigure the default setting of SystemInit() function, refer to
   * system_stm32f10x.c file
   */

  /* Use SysTick as reference for the timer */
  SysTick_Config(SystemCoreClock / SYSTICK_FREQUENCY_HZ);
 80017be:	f240 0300 	movw	r3, #0
 80017c2:	f2c2 0300 	movt	r3, #8192	; 0x2000
 80017c6:	681a      	ldr	r2, [r3, #0]
 80017c8:	f644 53d3 	movw	r3, #19923	; 0x4dd3
 80017cc:	f2c1 0362 	movt	r3, #4194	; 0x1062
 80017d0:	fba3 1302 	umull	r1, r3, r3, r2
 80017d4:	ea4f 1393 	mov.w	r3, r3, lsr #6
 80017d8:	4618      	mov	r0, r3
 80017da:	f7ff ffb5 	bl	8001748 <SysTick_Config>
/Users/Somebody/Documents/Eclipse/BeatOS-STM32/Debug/../Src/BeatOS_Main.c:84

  /* GPIO Periph clock enable */
  RCC_APB2PeriphClockCmd(BLINK_RCC_BIT, ENABLE);
 80017de:	f04f 0080 	mov.w	r0, #128	; 0x80
 80017e2:	f04f 0101 	mov.w	r1, #1
 80017e6:	f7ff fd59 	bl	800129c <RCC_APB2PeriphClockCmd>
/Users/Somebody/Documents/Eclipse/BeatOS-STM32/Debug/../Src/BeatOS_Main.c:89

  GPIO_InitTypeDef GPIO_InitStructure;

  /* Configure pin in output push/pull mode */
  GPIO_InitStructure.GPIO_Pin = (1 << BLINK_PIN);
 80017ea:	f04f 0340 	mov.w	r3, #64	; 0x40
 80017ee:	803b      	strh	r3, [r7, #0]
/Users/Somebody/Documents/Eclipse/BeatOS-STM32/Debug/../Src/BeatOS_Main.c:90
  GPIO_InitStructure.GPIO_Speed = GPIO_Speed_50MHz;
 80017f0:	f04f 0303 	mov.w	r3, #3
 80017f4:	70bb      	strb	r3, [r7, #2]
/Users/Somebody/Documents/Eclipse/BeatOS-STM32/Debug/../Src/BeatOS_Main.c:91
  GPIO_InitStructure.GPIO_Mode = GPIO_Mode_Out_PP;
 80017f6:	f04f 0310 	mov.w	r3, #16
 80017fa:	70fb      	strb	r3, [r7, #3]
/Users/Somebody/Documents/Eclipse/BeatOS-STM32/Debug/../Src/BeatOS_Main.c:92
  GPIO_Init(BLINK_PORT, &GPIO_InitStructure);
 80017fc:	463b      	mov	r3, r7
 80017fe:	f44f 50e0 	mov.w	r0, #7168	; 0x1c00
 8001802:	f2c4 0001 	movt	r0, #16385	; 0x4001
 8001806:	4619      	mov	r1, r3
 8001808:	f7ff fc54 	bl	80010b4 <GPIO_Init>
/Users/Somebody/Documents/Eclipse/BeatOS-STM32/Debug/../Src/BeatOS_Main.c:94

  int seconds = 0;
 800180c:	f04f 0300 	mov.w	r3, #0
 8001810:	607b      	str	r3, [r7, #4]
/Users/Somebody/Documents/Eclipse/BeatOS-STM32/Debug/../Src/BeatOS_Main.c:102
  while (1)
    {
      /* Assume the LED is active low */

      /* Turn on led by setting the pin low */
      GPIO_ResetBits(BLINK_PORT, (1 << BLINK_PIN));
 8001812:	f44f 50e0 	mov.w	r0, #7168	; 0x1c00
 8001816:	f2c4 0001 	movt	r0, #16385	; 0x4001
 800181a:	f04f 0140 	mov.w	r1, #64	; 0x40
 800181e:	f7ff fd2f 	bl	8001280 <GPIO_ResetBits>
/Users/Somebody/Documents/Eclipse/BeatOS-STM32/Debug/../Src/BeatOS_Main.c:104

      Delay(BLINK_TICKS);
 8001822:	f44f 70fa 	mov.w	r0, #500	; 0x1f4
 8001826:	f000 f819 	bl	800185c <Delay>
/Users/Somebody/Documents/Eclipse/BeatOS-STM32/Debug/../Src/BeatOS_Main.c:107

      /* Turn off led by setting the pin high */
      GPIO_SetBits(BLINK_PORT, (1 << BLINK_PIN));
 800182a:	f44f 50e0 	mov.w	r0, #7168	; 0x1c00
 800182e:	f2c4 0001 	movt	r0, #16385	; 0x4001
 8001832:	f04f 0140 	mov.w	r1, #64	; 0x40
 8001836:	f7ff fd15 	bl	8001264 <GPIO_SetBits>
/Users/Somebody/Documents/Eclipse/BeatOS-STM32/Debug/../Src/BeatOS_Main.c:109

      Delay(BLINK_TICKS);
 800183a:	f44f 70fa 	mov.w	r0, #500	; 0x1f4
 800183e:	f000 f80d 	bl	800185c <Delay>
/Users/Somebody/Documents/Eclipse/BeatOS-STM32/Debug/../Src/BeatOS_Main.c:111

      ++seconds;
 8001842:	687b      	ldr	r3, [r7, #4]
 8001844:	f103 0301 	add.w	r3, r3, #1
 8001848:	607b      	str	r3, [r7, #4]
/Users/Somebody/Documents/Eclipse/BeatOS-STM32/Debug/../Src/BeatOS_Main.c:117

#if defined(DEBUG)
      /*
       * Count seconds on the debug channel.
       */
      printf("Second %d\n", seconds);
 800184a:	f247 50dc 	movw	r0, #30172	; 0x75dc
 800184e:	f6c0 0000 	movt	r0, #2048	; 0x800
 8001852:	6879      	ldr	r1, [r7, #4]
 8001854:	f000 f882 	bl	800195c <printf>
/Users/Somebody/Documents/Eclipse/BeatOS-STM32/Debug/../Src/BeatOS_Main.c:119
#endif
    }
 8001858:	e7db      	b.n	8001812 <main+0x66>
 800185a:	bf00      	nop

0800185c <Delay>:
Delay():
/Users/Somebody/Documents/Eclipse/BeatOS-STM32/Debug/../Src/BeatOS_Main.c:133
 * @param  nTime: specifies the delay time length, in SysTick ticks.
 * @retval None
 */
void
Delay(__IO uint32_t nTime)
{
 800185c:	b480      	push	{r7}
 800185e:	b083      	sub	sp, #12
 8001860:	af00      	add	r7, sp, #0
 8001862:	6078      	str	r0, [r7, #4]
/Users/Somebody/Documents/Eclipse/BeatOS-STM32/Debug/../Src/BeatOS_Main.c:134
  uwTimingDelay = nTime;
 8001864:	687a      	ldr	r2, [r7, #4]
 8001866:	f640 03a4 	movw	r3, #2212	; 0x8a4
 800186a:	f2c2 0300 	movt	r3, #8192	; 0x2000
 800186e:	601a      	str	r2, [r3, #0]
/Users/Somebody/Documents/Eclipse/BeatOS-STM32/Debug/../Src/BeatOS_Main.c:136

  while (uwTimingDelay != 0)
 8001870:	bf00      	nop
 8001872:	f640 03a4 	movw	r3, #2212	; 0x8a4
 8001876:	f2c2 0300 	movt	r3, #8192	; 0x2000
 800187a:	681b      	ldr	r3, [r3, #0]
 800187c:	2b00      	cmp	r3, #0
 800187e:	d1f8      	bne.n	8001872 <Delay+0x16>
/Users/Somebody/Documents/Eclipse/BeatOS-STM32/Debug/../Src/BeatOS_Main.c:138
    ;
}
 8001880:	f107 070c 	add.w	r7, r7, #12
 8001884:	46bd      	mov	sp, r7
 8001886:	bc80      	pop	{r7}
 8001888:	4770      	bx	lr
 800188a:	bf00      	nop

0800188c <TimingDelay_Decrement>:
TimingDelay_Decrement():
/Users/Somebody/Documents/Eclipse/BeatOS-STM32/Debug/../Src/BeatOS_Main.c:147
 * @param  None
 * @retval None
 */
void
TimingDelay_Decrement(void)
{
 800188c:	b480      	push	{r7}
 800188e:	af00      	add	r7, sp, #0
/Users/Somebody/Documents/Eclipse/BeatOS-STM32/Debug/../Src/BeatOS_Main.c:148
  if (uwTimingDelay != 0x00)
 8001890:	f640 03a4 	movw	r3, #2212	; 0x8a4
 8001894:	f2c2 0300 	movt	r3, #8192	; 0x2000
 8001898:	681b      	ldr	r3, [r3, #0]
 800189a:	2b00      	cmp	r3, #0
 800189c:	d00b      	beq.n	80018b6 <TimingDelay_Decrement+0x2a>
/Users/Somebody/Documents/Eclipse/BeatOS-STM32/Debug/../Src/BeatOS_Main.c:150
    {
      uwTimingDelay--;
 800189e:	f640 03a4 	movw	r3, #2212	; 0x8a4
 80018a2:	f2c2 0300 	movt	r3, #8192	; 0x2000
 80018a6:	681b      	ldr	r3, [r3, #0]
 80018a8:	f103 32ff 	add.w	r2, r3, #4294967295	; 0xffffffff
 80018ac:	f640 03a4 	movw	r3, #2212	; 0x8a4
 80018b0:	f2c2 0300 	movt	r3, #8192	; 0x2000
 80018b4:	601a      	str	r2, [r3, #0]
/Users/Somebody/Documents/Eclipse/BeatOS-STM32/Debug/../Src/BeatOS_Main.c:152
    }
}
 80018b6:	46bd      	mov	sp, r7
 80018b8:	bc80      	pop	{r7}
 80018ba:	4770      	bx	lr

080018bc <SysTick_Handler>:
SysTick_Handler():
/Users/Somebody/Documents/Eclipse/BeatOS-STM32/Debug/../Src/BeatOS_Main.c:163
 * @param  None
 * @retval None
 */
void
SysTick_Handler(void)
{
 80018bc:	b580      	push	{r7, lr}
 80018be:	af00      	add	r7, sp, #0
/Users/Somebody/Documents/Eclipse/BeatOS-STM32/Debug/../Src/BeatOS_Main.c:164
  TimingDelay_Decrement();
 80018c0:	f7ff ffe4 	bl	800188c <TimingDelay_Decrement>
/Users/Somebody/Documents/Eclipse/BeatOS-STM32/Debug/../Src/BeatOS_Main.c:165
}
 80018c4:	bd80      	pop	{r7, pc}
 80018c6:	bf00      	nop

080018c8 <__libc_init_array>:
__libc_init_array():
 80018c8:	b5f8      	push	{r3, r4, r5, r6, r7, lr}
 80018ca:	4f20      	ldr	r7, [pc, #128]	; (800194c <__libc_init_array+0x84>)
 80018cc:	4c20      	ldr	r4, [pc, #128]	; (8001950 <__libc_init_array+0x88>)
 80018ce:	1b38      	subs	r0, r7, r4
 80018d0:	1087      	asrs	r7, r0, #2
 80018d2:	d017      	beq.n	8001904 <__libc_init_array+0x3c>
 80018d4:	1e7a      	subs	r2, r7, #1
 80018d6:	6823      	ldr	r3, [r4, #0]
 80018d8:	2501      	movs	r5, #1
 80018da:	f002 0601 	and.w	r6, r2, #1
 80018de:	4798      	blx	r3
 80018e0:	42af      	cmp	r7, r5
 80018e2:	d00f      	beq.n	8001904 <__libc_init_array+0x3c>
 80018e4:	b12e      	cbz	r6, 80018f2 <__libc_init_array+0x2a>
 80018e6:	f854 1f04 	ldr.w	r1, [r4, #4]!
 80018ea:	2502      	movs	r5, #2
 80018ec:	4788      	blx	r1
 80018ee:	42af      	cmp	r7, r5
 80018f0:	d008      	beq.n	8001904 <__libc_init_array+0x3c>
 80018f2:	6860      	ldr	r0, [r4, #4]
 80018f4:	4780      	blx	r0
 80018f6:	3502      	adds	r5, #2
 80018f8:	68a2      	ldr	r2, [r4, #8]
 80018fa:	1d26      	adds	r6, r4, #4
 80018fc:	4790      	blx	r2
 80018fe:	3408      	adds	r4, #8
 8001900:	42af      	cmp	r7, r5
 8001902:	d1f6      	bne.n	80018f2 <__libc_init_array+0x2a>
 8001904:	4f13      	ldr	r7, [pc, #76]	; (8001954 <__libc_init_array+0x8c>)
 8001906:	4c14      	ldr	r4, [pc, #80]	; (8001958 <__libc_init_array+0x90>)
 8001908:	f7ff fd5a 	bl	80013c0 <_init>
 800190c:	1b3b      	subs	r3, r7, r4
 800190e:	109f      	asrs	r7, r3, #2
 8001910:	d018      	beq.n	8001944 <__libc_init_array+0x7c>
 8001912:	1e7d      	subs	r5, r7, #1
 8001914:	6821      	ldr	r1, [r4, #0]
 8001916:	f005 0601 	and.w	r6, r5, #1
 800191a:	2501      	movs	r5, #1
 800191c:	4788      	blx	r1
 800191e:	42af      	cmp	r7, r5
 8001920:	d011      	beq.n	8001946 <__libc_init_array+0x7e>
 8001922:	b12e      	cbz	r6, 8001930 <__libc_init_array+0x68>
 8001924:	f854 0f04 	ldr.w	r0, [r4, #4]!
 8001928:	2502      	movs	r5, #2
 800192a:	4780      	blx	r0
 800192c:	42af      	cmp	r7, r5
 800192e:	d00b      	beq.n	8001948 <__libc_init_array+0x80>
 8001930:	6862      	ldr	r2, [r4, #4]
 8001932:	4790      	blx	r2
 8001934:	3502      	adds	r5, #2
 8001936:	68a3      	ldr	r3, [r4, #8]
 8001938:	1d26      	adds	r6, r4, #4
 800193a:	4798      	blx	r3
 800193c:	3408      	adds	r4, #8
 800193e:	42af      	cmp	r7, r5
 8001940:	d1f6      	bne.n	8001930 <__libc_init_array+0x68>
 8001942:	bdf8      	pop	{r3, r4, r5, r6, r7, pc}
 8001944:	bdf8      	pop	{r3, r4, r5, r6, r7, pc}
 8001946:	bdf8      	pop	{r3, r4, r5, r6, r7, pc}
 8001948:	bdf8      	pop	{r3, r4, r5, r6, r7, pc}
 800194a:	bf00      	nop
 800194c:	08007778 	.word	0x08007778
 8001950:	08007778 	.word	0x08007778
 8001954:	08007778 	.word	0x08007778
 8001958:	08007778 	.word	0x08007778

0800195c <printf>:
printf():
 800195c:	b40f      	push	{r0, r1, r2, r3}
 800195e:	b510      	push	{r4, lr}
 8001960:	f240 4330 	movw	r3, #1072	; 0x430
 8001964:	b082      	sub	sp, #8
 8001966:	ac04      	add	r4, sp, #16
 8001968:	f2c2 0300 	movt	r3, #8192	; 0x2000
 800196c:	f854 2b04 	ldr.w	r2, [r4], #4
 8001970:	6818      	ldr	r0, [r3, #0]
 8001972:	4623      	mov	r3, r4
 8001974:	6881      	ldr	r1, [r0, #8]
 8001976:	9401      	str	r4, [sp, #4]
 8001978:	f000 f872 	bl	8001a60 <_vfprintf_r>
 800197c:	b002      	add	sp, #8
 800197e:	e8bd 4010 	ldmia.w	sp!, {r4, lr}
 8001982:	b004      	add	sp, #16
 8001984:	4770      	bx	lr
 8001986:	bf00      	nop

08001988 <_puts_r>:
_puts_r():
 8001988:	b570      	push	{r4, r5, r6, lr}
 800198a:	4605      	mov	r5, r0
 800198c:	b088      	sub	sp, #32
 800198e:	4608      	mov	r0, r1
 8001990:	460c      	mov	r4, r1
 8001992:	f000 f835 	bl	8001a00 <strlen>
 8001996:	4b14      	ldr	r3, [pc, #80]	; (80019e8 <_puts_r+0x60>)
 8001998:	4602      	mov	r2, r0
 800199a:	6818      	ldr	r0, [r3, #0]
 800199c:	1c56      	adds	r6, r2, #1
 800199e:	6883      	ldr	r3, [r0, #8]
 80019a0:	9205      	str	r2, [sp, #20]
 80019a2:	4a12      	ldr	r2, [pc, #72]	; (80019ec <_puts_r+0x64>)
 80019a4:	8999      	ldrh	r1, [r3, #12]
 80019a6:	9206      	str	r2, [sp, #24]
 80019a8:	2201      	movs	r2, #1
 80019aa:	f401 5000 	and.w	r0, r1, #8192	; 0x2000
 80019ae:	9207      	str	r2, [sp, #28]
 80019b0:	aa04      	add	r2, sp, #16
 80019b2:	9201      	str	r2, [sp, #4]
 80019b4:	b200      	sxth	r0, r0
 80019b6:	2202      	movs	r2, #2
 80019b8:	9404      	str	r4, [sp, #16]
 80019ba:	9603      	str	r6, [sp, #12]
 80019bc:	9202      	str	r2, [sp, #8]
 80019be:	b930      	cbnz	r0, 80019ce <_puts_r+0x46>
 80019c0:	6e58      	ldr	r0, [r3, #100]	; 0x64
 80019c2:	f441 5100 	orr.w	r1, r1, #8192	; 0x2000
 80019c6:	f420 5200 	bic.w	r2, r0, #8192	; 0x2000
 80019ca:	8199      	strh	r1, [r3, #12]
 80019cc:	665a      	str	r2, [r3, #100]	; 0x64
 80019ce:	4628      	mov	r0, r5
 80019d0:	68a9      	ldr	r1, [r5, #8]
 80019d2:	aa01      	add	r2, sp, #4
 80019d4:	f003 fb9c 	bl	8005110 <__sfvwrite_r>
 80019d8:	2800      	cmp	r0, #0
 80019da:	bf0c      	ite	eq
 80019dc:	200a      	moveq	r0, #10
 80019de:	f04f 30ff 	movne.w	r0, #4294967295	; 0xffffffff
 80019e2:	b008      	add	sp, #32
 80019e4:	bd70      	pop	{r4, r5, r6, pc}
 80019e6:	bf00      	nop
 80019e8:	20000430 	.word	0x20000430
 80019ec:	080075e8 	.word	0x080075e8

080019f0 <puts>:
puts():
 80019f0:	f240 4330 	movw	r3, #1072	; 0x430
 80019f4:	f2c2 0300 	movt	r3, #8192	; 0x2000
 80019f8:	4601      	mov	r1, r0
 80019fa:	6818      	ldr	r0, [r3, #0]
 80019fc:	f7ff bfc4 	b.w	8001988 <_puts_r>

08001a00 <strlen>:
strlen():
 8001a00:	f020 0103 	bic.w	r1, r0, #3
 8001a04:	f010 0003 	ands.w	r0, r0, #3
 8001a08:	f1c0 0000 	rsb	r0, r0, #0
 8001a0c:	f851 3b04 	ldr.w	r3, [r1], #4
 8001a10:	f100 0c04 	add.w	ip, r0, #4
 8001a14:	ea4f 0ccc 	mov.w	ip, ip, lsl #3
 8001a18:	f06f 0200 	mvn.w	r2, #0
 8001a1c:	bf1c      	itt	ne
 8001a1e:	fa22 f20c 	lsrne.w	r2, r2, ip
 8001a22:	4313      	orrne	r3, r2
 8001a24:	f04f 0c01 	mov.w	ip, #1
 8001a28:	ea4c 2c0c 	orr.w	ip, ip, ip, lsl #8
 8001a2c:	ea4c 4c0c 	orr.w	ip, ip, ip, lsl #16
 8001a30:	eba3 020c 	sub.w	r2, r3, ip
 8001a34:	ea22 0203 	bic.w	r2, r2, r3
 8001a38:	ea12 12cc 	ands.w	r2, r2, ip, lsl #7
 8001a3c:	bf04      	itt	eq
 8001a3e:	f851 3b04 	ldreq.w	r3, [r1], #4
 8001a42:	3004      	addeq	r0, #4
 8001a44:	d0f4      	beq.n	8001a30 <strlen+0x30>
 8001a46:	f013 0fff 	tst.w	r3, #255	; 0xff
 8001a4a:	bf1f      	itttt	ne
 8001a4c:	3001      	addne	r0, #1
 8001a4e:	f413 4f7f 	tstne.w	r3, #65280	; 0xff00
 8001a52:	3001      	addne	r0, #1
 8001a54:	f413 0f7f 	tstne.w	r3, #16711680	; 0xff0000
 8001a58:	bf18      	it	ne
 8001a5a:	3001      	addne	r0, #1
 8001a5c:	4770      	bx	lr
 8001a5e:	bf00      	nop

08001a60 <_vfprintf_r>:
_vfprintf_r():
 8001a60:	e92d 4ff0 	stmdb	sp!, {r4, r5, r6, r7, r8, r9, sl, fp, lr}
 8001a64:	b0c5      	sub	sp, #276	; 0x114
 8001a66:	461d      	mov	r5, r3
 8001a68:	910b      	str	r1, [sp, #44]	; 0x2c
 8001a6a:	4614      	mov	r4, r2
 8001a6c:	900c      	str	r0, [sp, #48]	; 0x30
 8001a6e:	f003 fd41 	bl	80054f4 <_localeconv_r>
 8001a72:	6800      	ldr	r0, [r0, #0]
 8001a74:	9511      	str	r5, [sp, #68]	; 0x44
 8001a76:	9014      	str	r0, [sp, #80]	; 0x50
 8001a78:	f7ff ffc2 	bl	8001a00 <strlen>
 8001a7c:	2100      	movs	r1, #0
 8001a7e:	9016      	str	r0, [sp, #88]	; 0x58
 8001a80:	2000      	movs	r0, #0
 8001a82:	e9cd 0118 	strd	r0, r1, [sp, #96]	; 0x60
 8001a86:	990c      	ldr	r1, [sp, #48]	; 0x30
 8001a88:	b119      	cbz	r1, 8001a92 <_vfprintf_r+0x32>
 8001a8a:	6b8b      	ldr	r3, [r1, #56]	; 0x38
 8001a8c:	2b00      	cmp	r3, #0
 8001a8e:	f000 810b 	beq.w	8001ca8 <_vfprintf_r+0x248>
 8001a92:	9a0b      	ldr	r2, [sp, #44]	; 0x2c
 8001a94:	8993      	ldrh	r3, [r2, #12]
 8001a96:	f403 5000 	and.w	r0, r3, #8192	; 0x2000
 8001a9a:	b201      	sxth	r1, r0
 8001a9c:	b939      	cbnz	r1, 8001aae <_vfprintf_r+0x4e>
 8001a9e:	980b      	ldr	r0, [sp, #44]	; 0x2c
 8001aa0:	f443 5300 	orr.w	r3, r3, #8192	; 0x2000
 8001aa4:	6e42      	ldr	r2, [r0, #100]	; 0x64
 8001aa6:	8183      	strh	r3, [r0, #12]
 8001aa8:	f422 5100 	bic.w	r1, r2, #8192	; 0x2000
 8001aac:	6641      	str	r1, [r0, #100]	; 0x64
 8001aae:	f003 0008 	and.w	r0, r3, #8
 8001ab2:	b202      	sxth	r2, r0
 8001ab4:	2a00      	cmp	r2, #0
 8001ab6:	f000 80c0 	beq.w	8001c3a <_vfprintf_r+0x1da>
 8001aba:	990b      	ldr	r1, [sp, #44]	; 0x2c
 8001abc:	6908      	ldr	r0, [r1, #16]
 8001abe:	2800      	cmp	r0, #0
 8001ac0:	f000 80bb 	beq.w	8001c3a <_vfprintf_r+0x1da>
 8001ac4:	f003 021a 	and.w	r2, r3, #26
 8001ac8:	2a0a      	cmp	r2, #10
 8001aca:	f000 80c2 	beq.w	8001c52 <_vfprintf_r+0x1f2>
 8001ace:	2100      	movs	r1, #0
 8001ad0:	ab34      	add	r3, sp, #208	; 0xd0
 8001ad2:	f8df 956c 	ldr.w	r9, [pc, #1388]	; 8002040 <_vfprintf_r+0x5e0>
 8001ad6:	9112      	str	r1, [sp, #72]	; 0x48
 8001ad8:	9308      	str	r3, [sp, #32]
 8001ada:	9327      	str	r3, [sp, #156]	; 0x9c
 8001adc:	9129      	str	r1, [sp, #164]	; 0xa4
 8001ade:	9128      	str	r1, [sp, #160]	; 0xa0
 8001ae0:	940a      	str	r4, [sp, #40]	; 0x28
 8001ae2:	911a      	str	r1, [sp, #104]	; 0x68
 8001ae4:	911b      	str	r1, [sp, #108]	; 0x6c
 8001ae6:	910f      	str	r1, [sp, #60]	; 0x3c
 8001ae8:	469a      	mov	sl, r3
 8001aea:	9a0a      	ldr	r2, [sp, #40]	; 0x28
 8001aec:	7810      	ldrb	r0, [r2, #0]
 8001aee:	2800      	cmp	r0, #0
 8001af0:	f000 80de 	beq.w	8001cb0 <_vfprintf_r+0x250>
 8001af4:	2825      	cmp	r0, #37	; 0x25
 8001af6:	f000 80db 	beq.w	8001cb0 <_vfprintf_r+0x250>
 8001afa:	1c53      	adds	r3, r2, #1
 8001afc:	e002      	b.n	8001b04 <_vfprintf_r+0xa4>
 8001afe:	2925      	cmp	r1, #37	; 0x25
 8001b00:	f000 808d 	beq.w	8001c1e <_vfprintf_r+0x1be>
 8001b04:	7819      	ldrb	r1, [r3, #0]
 8001b06:	461c      	mov	r4, r3
 8001b08:	3301      	adds	r3, #1
 8001b0a:	2900      	cmp	r1, #0
 8001b0c:	d1f7      	bne.n	8001afe <_vfprintf_r+0x9e>
 8001b0e:	9a0a      	ldr	r2, [sp, #40]	; 0x28
 8001b10:	1aa5      	subs	r5, r4, r2
 8001b12:	b185      	cbz	r5, 8001b36 <_vfprintf_r+0xd6>
 8001b14:	9929      	ldr	r1, [sp, #164]	; 0xa4
 8001b16:	9b28      	ldr	r3, [sp, #160]	; 0xa0
 8001b18:	194a      	adds	r2, r1, r5
 8001b1a:	980a      	ldr	r0, [sp, #40]	; 0x28
 8001b1c:	1c59      	adds	r1, r3, #1
 8001b1e:	2907      	cmp	r1, #7
 8001b20:	e88a 0021 	stmia.w	sl, {r0, r5}
 8001b24:	9229      	str	r2, [sp, #164]	; 0xa4
 8001b26:	9128      	str	r1, [sp, #160]	; 0xa0
 8001b28:	f10a 0a08 	add.w	sl, sl, #8
 8001b2c:	f300 80b2 	bgt.w	8001c94 <_vfprintf_r+0x234>
 8001b30:	980f      	ldr	r0, [sp, #60]	; 0x3c
 8001b32:	1942      	adds	r2, r0, r5
 8001b34:	920f      	str	r2, [sp, #60]	; 0x3c
 8001b36:	7823      	ldrb	r3, [r4, #0]
 8001b38:	2b00      	cmp	r3, #0
 8001b3a:	f000 8097 	beq.w	8001c6c <_vfprintf_r+0x20c>
 8001b3e:	1c61      	adds	r1, r4, #1
 8001b40:	910a      	str	r1, [sp, #40]	; 0x28
 8001b42:	2600      	movs	r6, #0
 8001b44:	f04f 3cff 	mov.w	ip, #4294967295	; 0xffffffff
 8001b48:	f894 8001 	ldrb.w	r8, [r4, #1]
 8001b4c:	9b0a      	ldr	r3, [sp, #40]	; 0x28
 8001b4e:	960e      	str	r6, [sp, #56]	; 0x38
 8001b50:	f88d 607b 	strb.w	r6, [sp, #123]	; 0x7b
 8001b54:	9609      	str	r6, [sp, #36]	; 0x24
 8001b56:	2120      	movs	r1, #32
 8001b58:	222b      	movs	r2, #43	; 0x2b
 8001b5a:	4666      	mov	r6, ip
 8001b5c:	3301      	adds	r3, #1
 8001b5e:	f1a8 0020 	sub.w	r0, r8, #32
 8001b62:	2858      	cmp	r0, #88	; 0x58
 8001b64:	f200 82df 	bhi.w	8002126 <_vfprintf_r+0x6c6>
 8001b68:	e8df f010 	tbh	[pc, r0, lsl #1]
 8001b6c:	02dd02ed 	.word	0x02dd02ed
 8001b70:	02f702dd 	.word	0x02f702dd
 8001b74:	02dd02dd 	.word	0x02dd02dd
 8001b78:	02dd02dd 	.word	0x02dd02dd
 8001b7c:	02dd02dd 	.word	0x02dd02dd
 8001b80:	00a40329 	.word	0x00a40329
 8001b84:	006002dd 	.word	0x006002dd
 8001b88:	02dd00a9 	.word	0x02dd00a9
 8001b8c:	033500c4 	.word	0x033500c4
 8001b90:	03350335 	.word	0x03350335
 8001b94:	03350335 	.word	0x03350335
 8001b98:	03350335 	.word	0x03350335
 8001b9c:	03350335 	.word	0x03350335
 8001ba0:	02dd02dd 	.word	0x02dd02dd
 8001ba4:	02dd02dd 	.word	0x02dd02dd
 8001ba8:	02dd02dd 	.word	0x02dd02dd
 8001bac:	02dd02dd 	.word	0x02dd02dd
 8001bb0:	02dd02dd 	.word	0x02dd02dd
 8001bb4:	00cb0189 	.word	0x00cb0189
 8001bb8:	00cb02dd 	.word	0x00cb02dd
 8001bbc:	02dd02dd 	.word	0x02dd02dd
 8001bc0:	02dd02dd 	.word	0x02dd02dd
 8001bc4:	02dd0182 	.word	0x02dd0182
 8001bc8:	01ce02dd 	.word	0x01ce02dd
 8001bcc:	02dd02dd 	.word	0x02dd02dd
 8001bd0:	02dd02dd 	.word	0x02dd02dd
 8001bd4:	01e702dd 	.word	0x01e702dd
 8001bd8:	02dd02dd 	.word	0x02dd02dd
 8001bdc:	02dd01fc 	.word	0x02dd01fc
 8001be0:	02dd02dd 	.word	0x02dd02dd
 8001be4:	02dd02dd 	.word	0x02dd02dd
 8001be8:	02dd02dd 	.word	0x02dd02dd
 8001bec:	02dd02dd 	.word	0x02dd02dd
 8001bf0:	02c802dd 	.word	0x02c802dd
 8001bf4:	00cb02aa 	.word	0x00cb02aa
 8001bf8:	00cb00cb 	.word	0x00cb00cb
 8001bfc:	02aa02c1 	.word	0x02aa02c1
 8001c00:	02dd02dd 	.word	0x02dd02dd
 8001c04:	02dd0255 	.word	0x02dd0255
 8001c08:	027a026c 	.word	0x027a026c
 8001c0c:	021f0292 	.word	0x021f0292
 8001c10:	022602dd 	.word	0x022602dd
 8001c14:	02fe02dd 	.word	0x02fe02dd
 8001c18:	02dd02dd 	.word	0x02dd02dd
 8001c1c:	0313      	.short	0x0313
 8001c1e:	980a      	ldr	r0, [sp, #40]	; 0x28
 8001c20:	1a25      	subs	r5, r4, r0
 8001c22:	e776      	b.n	8001b12 <_vfprintf_r+0xb2>
 8001c24:	9c0e      	ldr	r4, [sp, #56]	; 0x38
 8001c26:	9011      	str	r0, [sp, #68]	; 0x44
 8001c28:	4264      	negs	r4, r4
 8001c2a:	940e      	str	r4, [sp, #56]	; 0x38
 8001c2c:	9809      	ldr	r0, [sp, #36]	; 0x24
 8001c2e:	f040 0404 	orr.w	r4, r0, #4
 8001c32:	9409      	str	r4, [sp, #36]	; 0x24
 8001c34:	f893 8000 	ldrb.w	r8, [r3]
 8001c38:	e790      	b.n	8001b5c <_vfprintf_r+0xfc>
 8001c3a:	980c      	ldr	r0, [sp, #48]	; 0x30
 8001c3c:	990b      	ldr	r1, [sp, #44]	; 0x2c
 8001c3e:	f001 fd73 	bl	8003728 <__swsetup_r>
 8001c42:	bb00      	cbnz	r0, 8001c86 <_vfprintf_r+0x226>
 8001c44:	9b0b      	ldr	r3, [sp, #44]	; 0x2c
 8001c46:	899b      	ldrh	r3, [r3, #12]
 8001c48:	f003 021a 	and.w	r2, r3, #26
 8001c4c:	2a0a      	cmp	r2, #10
 8001c4e:	f47f af3e 	bne.w	8001ace <_vfprintf_r+0x6e>
 8001c52:	990b      	ldr	r1, [sp, #44]	; 0x2c
 8001c54:	f9b1 000e 	ldrsh.w	r0, [r1, #14]
 8001c58:	2800      	cmp	r0, #0
 8001c5a:	f6ff af38 	blt.w	8001ace <_vfprintf_r+0x6e>
 8001c5e:	980c      	ldr	r0, [sp, #48]	; 0x30
 8001c60:	4622      	mov	r2, r4
 8001c62:	462b      	mov	r3, r5
 8001c64:	f001 fd20 	bl	80036a8 <__sbprintf>
 8001c68:	900f      	str	r0, [sp, #60]	; 0x3c
 8001c6a:	e00f      	b.n	8001c8c <_vfprintf_r+0x22c>
 8001c6c:	9a29      	ldr	r2, [sp, #164]	; 0xa4
 8001c6e:	b122      	cbz	r2, 8001c7a <_vfprintf_r+0x21a>
 8001c70:	980c      	ldr	r0, [sp, #48]	; 0x30
 8001c72:	990b      	ldr	r1, [sp, #44]	; 0x2c
 8001c74:	aa27      	add	r2, sp, #156	; 0x9c
 8001c76:	f005 f99b 	bl	8006fb0 <__sprint_r>
 8001c7a:	9c0b      	ldr	r4, [sp, #44]	; 0x2c
 8001c7c:	89a3      	ldrh	r3, [r4, #12]
 8001c7e:	f003 0140 	and.w	r1, r3, #64	; 0x40
 8001c82:	b208      	sxth	r0, r1
 8001c84:	b110      	cbz	r0, 8001c8c <_vfprintf_r+0x22c>
 8001c86:	f04f 34ff 	mov.w	r4, #4294967295	; 0xffffffff
 8001c8a:	940f      	str	r4, [sp, #60]	; 0x3c
 8001c8c:	980f      	ldr	r0, [sp, #60]	; 0x3c
 8001c8e:	b045      	add	sp, #276	; 0x114
 8001c90:	e8bd 8ff0 	ldmia.w	sp!, {r4, r5, r6, r7, r8, r9, sl, fp, pc}
 8001c94:	980c      	ldr	r0, [sp, #48]	; 0x30
 8001c96:	990b      	ldr	r1, [sp, #44]	; 0x2c
 8001c98:	aa27      	add	r2, sp, #156	; 0x9c
 8001c9a:	f005 f989 	bl	8006fb0 <__sprint_r>
 8001c9e:	2800      	cmp	r0, #0
 8001ca0:	d1eb      	bne.n	8001c7a <_vfprintf_r+0x21a>
 8001ca2:	f10d 0ad0 	add.w	sl, sp, #208	; 0xd0
 8001ca6:	e743      	b.n	8001b30 <_vfprintf_r+0xd0>
 8001ca8:	4608      	mov	r0, r1
 8001caa:	f003 f8f1 	bl	8004e90 <__sinit>
 8001cae:	e6f0      	b.n	8001a92 <_vfprintf_r+0x32>
 8001cb0:	9c0a      	ldr	r4, [sp, #40]	; 0x28
 8001cb2:	e740      	b.n	8001b36 <_vfprintf_r+0xd6>
 8001cb4:	f88d 207b 	strb.w	r2, [sp, #123]	; 0x7b
 8001cb8:	f893 8000 	ldrb.w	r8, [r3]
 8001cbc:	e74e      	b.n	8001b5c <_vfprintf_r+0xfc>
 8001cbe:	461c      	mov	r4, r3
 8001cc0:	f814 8b01 	ldrb.w	r8, [r4], #1
 8001cc4:	f1b8 0f2a 	cmp.w	r8, #42	; 0x2a
 8001cc8:	f001 84b3 	beq.w	8003632 <_vfprintf_r+0x1bd2>
 8001ccc:	f1a8 0030 	sub.w	r0, r8, #48	; 0x30
 8001cd0:	2600      	movs	r6, #0
 8001cd2:	2809      	cmp	r0, #9
 8001cd4:	f201 8449 	bhi.w	800356a <_vfprintf_r+0x1b0a>
 8001cd8:	f814 8b01 	ldrb.w	r8, [r4], #1
 8001cdc:	eb06 0686 	add.w	r6, r6, r6, lsl #2
 8001ce0:	eb00 0646 	add.w	r6, r0, r6, lsl #1
 8001ce4:	f1a8 0030 	sub.w	r0, r8, #48	; 0x30
 8001ce8:	2809      	cmp	r0, #9
 8001cea:	4623      	mov	r3, r4
 8001cec:	d9f4      	bls.n	8001cd8 <_vfprintf_r+0x278>
 8001cee:	ea46 76e6 	orr.w	r6, r6, r6, asr #31
 8001cf2:	e734      	b.n	8001b5e <_vfprintf_r+0xfe>
 8001cf4:	9c09      	ldr	r4, [sp, #36]	; 0x24
 8001cf6:	f044 0080 	orr.w	r0, r4, #128	; 0x80
 8001cfa:	9009      	str	r0, [sp, #36]	; 0x24
 8001cfc:	f893 8000 	ldrb.w	r8, [r3]
 8001d00:	e72c      	b.n	8001b5c <_vfprintf_r+0xfc>
 8001d02:	9d11      	ldr	r5, [sp, #68]	; 0x44
 8001d04:	930a      	str	r3, [sp, #40]	; 0x28
 8001d06:	1deb      	adds	r3, r5, #7
 8001d08:	f023 0107 	bic.w	r1, r3, #7
 8001d0c:	684c      	ldr	r4, [r1, #4]
 8001d0e:	46b3      	mov	fp, r6
 8001d10:	680e      	ldr	r6, [r1, #0]
 8001d12:	3108      	adds	r1, #8
 8001d14:	9111      	str	r1, [sp, #68]	; 0x44
 8001d16:	4630      	mov	r0, r6
 8001d18:	4621      	mov	r1, r4
 8001d1a:	e9cd 0118 	strd	r0, r1, [sp, #96]	; 0x60
 8001d1e:	4621      	mov	r1, r4
 8001d20:	4630      	mov	r0, r6
 8001d22:	f8cd b01c 	str.w	fp, [sp, #28]
 8001d26:	f005 f8b3 	bl	8006e90 <__fpclassifyd>
 8001d2a:	2801      	cmp	r0, #1
 8001d2c:	f8dd c01c 	ldr.w	ip, [sp, #28]
 8001d30:	4630      	mov	r0, r6
 8001d32:	4621      	mov	r1, r4
 8001d34:	f041 80c4 	bne.w	8002ec0 <_vfprintf_r+0x1460>
 8001d38:	2200      	movs	r2, #0
 8001d3a:	2300      	movs	r3, #0
 8001d3c:	f7fe fe7e 	bl	8000a3c <__aeabi_dcmplt>
 8001d40:	2800      	cmp	r0, #0
 8001d42:	f041 8346 	bne.w	80033d2 <_vfprintf_r+0x1972>
 8001d46:	f89d 307b 	ldrb.w	r3, [sp, #123]	; 0x7b
 8001d4a:	9909      	ldr	r1, [sp, #36]	; 0x24
 8001d4c:	2003      	movs	r0, #3
 8001d4e:	2600      	movs	r6, #0
 8001d50:	4db7      	ldr	r5, [pc, #732]	; (8002030 <_vfprintf_r+0x5d0>)
 8001d52:	4ab8      	ldr	r2, [pc, #736]	; (8002034 <_vfprintf_r+0x5d4>)
 8001d54:	900d      	str	r0, [sp, #52]	; 0x34
 8001d56:	9613      	str	r6, [sp, #76]	; 0x4c
 8001d58:	f021 0480 	bic.w	r4, r1, #128	; 0x80
 8001d5c:	2003      	movs	r0, #3
 8001d5e:	2600      	movs	r6, #0
 8001d60:	f1b8 0f47 	cmp.w	r8, #71	; 0x47
 8001d64:	bfcc      	ite	gt
 8001d66:	4693      	movgt	fp, r2
 8001d68:	46ab      	movle	fp, r5
 8001d6a:	9409      	str	r4, [sp, #36]	; 0x24
 8001d6c:	9010      	str	r0, [sp, #64]	; 0x40
 8001d6e:	9615      	str	r6, [sp, #84]	; 0x54
 8001d70:	b113      	cbz	r3, 8001d78 <_vfprintf_r+0x318>
 8001d72:	9e0d      	ldr	r6, [sp, #52]	; 0x34
 8001d74:	1c70      	adds	r0, r6, #1
 8001d76:	900d      	str	r0, [sp, #52]	; 0x34
 8001d78:	9c09      	ldr	r4, [sp, #36]	; 0x24
 8001d7a:	f014 0502 	ands.w	r5, r4, #2
 8001d7e:	d002      	beq.n	8001d86 <_vfprintf_r+0x326>
 8001d80:	980d      	ldr	r0, [sp, #52]	; 0x34
 8001d82:	1c81      	adds	r1, r0, #2
 8001d84:	910d      	str	r1, [sp, #52]	; 0x34
 8001d86:	9a09      	ldr	r2, [sp, #36]	; 0x24
 8001d88:	f012 0684 	ands.w	r6, r2, #132	; 0x84
 8001d8c:	f040 82d8 	bne.w	8002340 <_vfprintf_r+0x8e0>
 8001d90:	9f0e      	ldr	r7, [sp, #56]	; 0x38
 8001d92:	9b0d      	ldr	r3, [sp, #52]	; 0x34
 8001d94:	1aff      	subs	r7, r7, r3
 8001d96:	2f00      	cmp	r7, #0
 8001d98:	f340 82d2 	ble.w	8002340 <_vfprintf_r+0x8e0>
 8001d9c:	2f10      	cmp	r7, #16
 8001d9e:	f341 828c 	ble.w	80032ba <_vfprintf_r+0x185a>
 8001da2:	9829      	ldr	r0, [sp, #164]	; 0xa4
 8001da4:	2410      	movs	r4, #16
 8001da6:	9928      	ldr	r1, [sp, #160]	; 0xa0
 8001da8:	1902      	adds	r2, r0, r4
 8001daa:	f247 50ec 	movw	r0, #30188	; 0x75ec
 8001dae:	f6c0 0000 	movt	r0, #2048	; 0x800
 8001db2:	e88a 0011 	stmia.w	sl, {r0, r4}
 8001db6:	1c4b      	adds	r3, r1, #1
 8001db8:	489f      	ldr	r0, [pc, #636]	; (8002038 <_vfprintf_r+0x5d8>)
 8001dba:	f1a7 0e11 	sub.w	lr, r7, #17
 8001dbe:	2b07      	cmp	r3, #7
 8001dc0:	9017      	str	r0, [sp, #92]	; 0x5c
 8001dc2:	9229      	str	r2, [sp, #164]	; 0xa4
 8001dc4:	9328      	str	r3, [sp, #160]	; 0xa0
 8001dc6:	f3ce 1c00 	ubfx	ip, lr, #4, #1
 8001dca:	f10a 0a08 	add.w	sl, sl, #8
 8001dce:	f300 85c8 	bgt.w	8002962 <_vfprintf_r+0xf02>
 8001dd2:	3f10      	subs	r7, #16
 8001dd4:	2f10      	cmp	r7, #16
 8001dd6:	f340 8221 	ble.w	800221c <_vfprintf_r+0x7bc>
 8001dda:	f1bc 0f00 	cmp.w	ip, #0
 8001dde:	d012      	beq.n	8001e06 <_vfprintf_r+0x3a6>
 8001de0:	3301      	adds	r3, #1
 8001de2:	f247 51ec 	movw	r1, #30188	; 0x75ec
 8001de6:	3210      	adds	r2, #16
 8001de8:	f6c0 0100 	movt	r1, #2048	; 0x800
 8001dec:	2b07      	cmp	r3, #7
 8001dee:	e88a 0012 	stmia.w	sl, {r1, r4}
 8001df2:	9229      	str	r2, [sp, #164]	; 0xa4
 8001df4:	9328      	str	r3, [sp, #160]	; 0xa0
 8001df6:	f10a 0a08 	add.w	sl, sl, #8
 8001dfa:	f300 85c4 	bgt.w	8002986 <_vfprintf_r+0xf26>
 8001dfe:	3f10      	subs	r7, #16
 8001e00:	2f10      	cmp	r7, #16
 8001e02:	f340 820b 	ble.w	800221c <_vfprintf_r+0x7bc>
 8001e06:	951c      	str	r5, [sp, #112]	; 0x70
 8001e08:	961d      	str	r6, [sp, #116]	; 0x74
 8001e0a:	9d0c      	ldr	r5, [sp, #48]	; 0x30
 8001e0c:	9e0b      	ldr	r6, [sp, #44]	; 0x2c
 8001e0e:	e012      	b.n	8001e36 <_vfprintf_r+0x3d6>
 8001e10:	3301      	adds	r3, #1
 8001e12:	f247 51ec 	movw	r1, #30188	; 0x75ec
 8001e16:	3210      	adds	r2, #16
 8001e18:	f6c0 0100 	movt	r1, #2048	; 0x800
 8001e1c:	2b07      	cmp	r3, #7
 8001e1e:	e88a 0012 	stmia.w	sl, {r1, r4}
 8001e22:	f10a 0a08 	add.w	sl, sl, #8
 8001e26:	9229      	str	r2, [sp, #164]	; 0xa4
 8001e28:	9328      	str	r3, [sp, #160]	; 0xa0
 8001e2a:	f300 81e5 	bgt.w	80021f8 <_vfprintf_r+0x798>
 8001e2e:	3f10      	subs	r7, #16
 8001e30:	2f10      	cmp	r7, #16
 8001e32:	f340 81f1 	ble.w	8002218 <_vfprintf_r+0x7b8>
 8001e36:	3301      	adds	r3, #1
 8001e38:	f247 50ec 	movw	r0, #30188	; 0x75ec
 8001e3c:	3210      	adds	r2, #16
 8001e3e:	f6c0 0000 	movt	r0, #2048	; 0x800
 8001e42:	2b07      	cmp	r3, #7
 8001e44:	e88a 0011 	stmia.w	sl, {r0, r4}
 8001e48:	f1a7 0710 	sub.w	r7, r7, #16
 8001e4c:	f10a 0a08 	add.w	sl, sl, #8
 8001e50:	9229      	str	r2, [sp, #164]	; 0xa4
 8001e52:	9328      	str	r3, [sp, #160]	; 0xa0
 8001e54:	dddc      	ble.n	8001e10 <_vfprintf_r+0x3b0>
 8001e56:	4628      	mov	r0, r5
 8001e58:	4631      	mov	r1, r6
 8001e5a:	aa27      	add	r2, sp, #156	; 0x9c
 8001e5c:	f005 f8a8 	bl	8006fb0 <__sprint_r>
 8001e60:	2800      	cmp	r0, #0
 8001e62:	f47f af0a 	bne.w	8001c7a <_vfprintf_r+0x21a>
 8001e66:	9a29      	ldr	r2, [sp, #164]	; 0xa4
 8001e68:	9b28      	ldr	r3, [sp, #160]	; 0xa0
 8001e6a:	f10d 0ad0 	add.w	sl, sp, #208	; 0xd0
 8001e6e:	e7cf      	b.n	8001e10 <_vfprintf_r+0x3b0>
 8001e70:	9c09      	ldr	r4, [sp, #36]	; 0x24
 8001e72:	f044 0008 	orr.w	r0, r4, #8
 8001e76:	9009      	str	r0, [sp, #36]	; 0x24
 8001e78:	f893 8000 	ldrb.w	r8, [r3]
 8001e7c:	e66e      	b.n	8001b5c <_vfprintf_r+0xfc>
 8001e7e:	930a      	str	r3, [sp, #40]	; 0x28
 8001e80:	9b09      	ldr	r3, [sp, #36]	; 0x24
 8001e82:	46b4      	mov	ip, r6
 8001e84:	f043 0510 	orr.w	r5, r3, #16
 8001e88:	9509      	str	r5, [sp, #36]	; 0x24
 8001e8a:	9a09      	ldr	r2, [sp, #36]	; 0x24
 8001e8c:	0696      	lsls	r6, r2, #26
 8001e8e:	f140 811d 	bpl.w	80020cc <_vfprintf_r+0x66c>
 8001e92:	9911      	ldr	r1, [sp, #68]	; 0x44
 8001e94:	1dcc      	adds	r4, r1, #7
 8001e96:	f024 0007 	bic.w	r0, r4, #7
 8001e9a:	e9d0 2300 	ldrd	r2, r3, [r0]
 8001e9e:	3008      	adds	r0, #8
 8001ea0:	9011      	str	r0, [sp, #68]	; 0x44
 8001ea2:	4614      	mov	r4, r2
 8001ea4:	461d      	mov	r5, r3
 8001ea6:	2a00      	cmp	r2, #0
 8001ea8:	f173 0000 	sbcs.w	r0, r3, #0
 8001eac:	f2c0 87fc 	blt.w	8002ea8 <_vfprintf_r+0x1448>
 8001eb0:	2301      	movs	r3, #1
 8001eb2:	f1bc 0f00 	cmp.w	ip, #0
 8001eb6:	db03      	blt.n	8001ec0 <_vfprintf_r+0x460>
 8001eb8:	9a09      	ldr	r2, [sp, #36]	; 0x24
 8001eba:	f022 0180 	bic.w	r1, r2, #128	; 0x80
 8001ebe:	9109      	str	r1, [sp, #36]	; 0x24
 8001ec0:	ea54 0005 	orrs.w	r0, r4, r5
 8001ec4:	f040 833a 	bne.w	800253c <_vfprintf_r+0xadc>
 8001ec8:	f1bc 0f00 	cmp.w	ip, #0
 8001ecc:	f040 8336 	bne.w	800253c <_vfprintf_r+0xadc>
 8001ed0:	2b00      	cmp	r3, #0
 8001ed2:	f040 8530 	bne.w	8002936 <_vfprintf_r+0xed6>
 8001ed6:	9d09      	ldr	r5, [sp, #36]	; 0x24
 8001ed8:	07e9      	lsls	r1, r5, #31
 8001eda:	f140 852c 	bpl.w	8002936 <_vfprintf_r+0xed6>
 8001ede:	f50d 7b88 	add.w	fp, sp, #272	; 0x110
 8001ee2:	2430      	movs	r4, #48	; 0x30
 8001ee4:	f80b 4d41 	strb.w	r4, [fp, #-65]!
 8001ee8:	9d08      	ldr	r5, [sp, #32]
 8001eea:	ebcb 0605 	rsb	r6, fp, r5
 8001eee:	9610      	str	r6, [sp, #64]	; 0x40
 8001ef0:	9910      	ldr	r1, [sp, #64]	; 0x40
 8001ef2:	2500      	movs	r5, #0
 8001ef4:	4561      	cmp	r1, ip
 8001ef6:	bfb8      	it	lt
 8001ef8:	4661      	movlt	r1, ip
 8001efa:	910d      	str	r1, [sp, #52]	; 0x34
 8001efc:	f89d 307b 	ldrb.w	r3, [sp, #123]	; 0x7b
 8001f00:	f8cd c04c 	str.w	ip, [sp, #76]	; 0x4c
 8001f04:	9515      	str	r5, [sp, #84]	; 0x54
 8001f06:	e733      	b.n	8001d70 <_vfprintf_r+0x310>
 8001f08:	9c09      	ldr	r4, [sp, #36]	; 0x24
 8001f0a:	930a      	str	r3, [sp, #40]	; 0x28
 8001f0c:	f044 0510 	orr.w	r5, r4, #16
 8001f10:	9509      	str	r5, [sp, #36]	; 0x24
 8001f12:	9b09      	ldr	r3, [sp, #36]	; 0x24
 8001f14:	46b4      	mov	ip, r6
 8001f16:	f013 0320 	ands.w	r3, r3, #32
 8001f1a:	f000 80a8 	beq.w	800206e <_vfprintf_r+0x60e>
 8001f1e:	9b11      	ldr	r3, [sp, #68]	; 0x44
 8001f20:	1dde      	adds	r6, r3, #7
 8001f22:	f026 0107 	bic.w	r1, r6, #7
 8001f26:	f101 0008 	add.w	r0, r1, #8
 8001f2a:	9011      	str	r0, [sp, #68]	; 0x44
 8001f2c:	2300      	movs	r3, #0
 8001f2e:	e9d1 4500 	ldrd	r4, r5, [r1]
 8001f32:	2200      	movs	r2, #0
 8001f34:	f88d 207b 	strb.w	r2, [sp, #123]	; 0x7b
 8001f38:	e7bb      	b.n	8001eb2 <_vfprintf_r+0x452>
 8001f3a:	9c09      	ldr	r4, [sp, #36]	; 0x24
 8001f3c:	930a      	str	r3, [sp, #40]	; 0x28
 8001f3e:	f044 0510 	orr.w	r5, r4, #16
 8001f42:	9509      	str	r5, [sp, #36]	; 0x24
 8001f44:	9b09      	ldr	r3, [sp, #36]	; 0x24
 8001f46:	46b4      	mov	ip, r6
 8001f48:	069d      	lsls	r5, r3, #26
 8001f4a:	f140 8113 	bpl.w	8002174 <_vfprintf_r+0x714>
 8001f4e:	9811      	ldr	r0, [sp, #68]	; 0x44
 8001f50:	2301      	movs	r3, #1
 8001f52:	1dc2      	adds	r2, r0, #7
 8001f54:	f022 0607 	bic.w	r6, r2, #7
 8001f58:	f106 0108 	add.w	r1, r6, #8
 8001f5c:	9111      	str	r1, [sp, #68]	; 0x44
 8001f5e:	e9d6 4500 	ldrd	r4, r5, [r6]
 8001f62:	e7e6      	b.n	8001f32 <_vfprintf_r+0x4d2>
 8001f64:	9d09      	ldr	r5, [sp, #36]	; 0x24
 8001f66:	46b4      	mov	ip, r6
 8001f68:	4e34      	ldr	r6, [pc, #208]	; (800203c <_vfprintf_r+0x5dc>)
 8001f6a:	06a9      	lsls	r1, r5, #26
 8001f6c:	930a      	str	r3, [sp, #40]	; 0x28
 8001f6e:	961a      	str	r6, [sp, #104]	; 0x68
 8001f70:	f140 8117 	bpl.w	80021a2 <_vfprintf_r+0x742>
 8001f74:	9a11      	ldr	r2, [sp, #68]	; 0x44
 8001f76:	1dd1      	adds	r1, r2, #7
 8001f78:	f021 0307 	bic.w	r3, r1, #7
 8001f7c:	f103 0008 	add.w	r0, r3, #8
 8001f80:	9011      	str	r0, [sp, #68]	; 0x44
 8001f82:	e9d3 4500 	ldrd	r4, r5, [r3]
 8001f86:	9a09      	ldr	r2, [sp, #36]	; 0x24
 8001f88:	07d6      	lsls	r6, r2, #31
 8001f8a:	f140 84da 	bpl.w	8002942 <_vfprintf_r+0xee2>
 8001f8e:	ea54 0105 	orrs.w	r1, r4, r5
 8001f92:	f000 84d6 	beq.w	8002942 <_vfprintf_r+0xee2>
 8001f96:	2630      	movs	r6, #48	; 0x30
 8001f98:	f042 0102 	orr.w	r1, r2, #2
 8001f9c:	f88d 607c 	strb.w	r6, [sp, #124]	; 0x7c
 8001fa0:	f88d 807d 	strb.w	r8, [sp, #125]	; 0x7d
 8001fa4:	9109      	str	r1, [sp, #36]	; 0x24
 8001fa6:	2302      	movs	r3, #2
 8001fa8:	e7c3      	b.n	8001f32 <_vfprintf_r+0x4d2>
 8001faa:	9809      	ldr	r0, [sp, #36]	; 0x24
 8001fac:	f040 0420 	orr.w	r4, r0, #32
 8001fb0:	9409      	str	r4, [sp, #36]	; 0x24
 8001fb2:	f893 8000 	ldrb.w	r8, [r3]
 8001fb6:	e5d1      	b.n	8001b5c <_vfprintf_r+0xfc>
 8001fb8:	9d11      	ldr	r5, [sp, #68]	; 0x44
 8001fba:	46b6      	mov	lr, r6
 8001fbc:	2600      	movs	r6, #0
 8001fbe:	f88d 607b 	strb.w	r6, [sp, #123]	; 0x7b
 8001fc2:	f8d5 b000 	ldr.w	fp, [r5]
 8001fc6:	930a      	str	r3, [sp, #40]	; 0x28
 8001fc8:	3504      	adds	r5, #4
 8001fca:	f1bb 0f00 	cmp.w	fp, #0
 8001fce:	f001 81f2 	beq.w	80033b6 <_vfprintf_r+0x1956>
 8001fd2:	f1be 0f00 	cmp.w	lr, #0
 8001fd6:	4658      	mov	r0, fp
 8001fd8:	f2c1 814f 	blt.w	800327a <_vfprintf_r+0x181a>
 8001fdc:	4631      	mov	r1, r6
 8001fde:	4672      	mov	r2, lr
 8001fe0:	f8cd e01c 	str.w	lr, [sp, #28]
 8001fe4:	f003 fd98 	bl	8005b18 <memchr>
 8001fe8:	f8dd c01c 	ldr.w	ip, [sp, #28]
 8001fec:	2800      	cmp	r0, #0
 8001fee:	f001 829c 	beq.w	800352a <_vfprintf_r+0x1aca>
 8001ff2:	ebcb 0000 	rsb	r0, fp, r0
 8001ff6:	4560      	cmp	r0, ip
 8001ff8:	9010      	str	r0, [sp, #64]	; 0x40
 8001ffa:	9613      	str	r6, [sp, #76]	; 0x4c
 8001ffc:	f341 80cb 	ble.w	8003196 <_vfprintf_r+0x1736>
 8002000:	9511      	str	r5, [sp, #68]	; 0x44
 8002002:	9d13      	ldr	r5, [sp, #76]	; 0x4c
 8002004:	ea2c 76ec 	bic.w	r6, ip, ip, asr #31
 8002008:	960d      	str	r6, [sp, #52]	; 0x34
 800200a:	f89d 307b 	ldrb.w	r3, [sp, #123]	; 0x7b
 800200e:	f8cd c040 	str.w	ip, [sp, #64]	; 0x40
 8002012:	9515      	str	r5, [sp, #84]	; 0x54
 8002014:	e6ac      	b.n	8001d70 <_vfprintf_r+0x310>
 8002016:	f893 8000 	ldrb.w	r8, [r3]
 800201a:	4618      	mov	r0, r3
 800201c:	f1b8 0f6c 	cmp.w	r8, #108	; 0x6c
 8002020:	f001 80e9 	beq.w	80031f6 <_vfprintf_r+0x1796>
 8002024:	9c09      	ldr	r4, [sp, #36]	; 0x24
 8002026:	f044 0010 	orr.w	r0, r4, #16
 800202a:	9009      	str	r0, [sp, #36]	; 0x24
 800202c:	e596      	b.n	8001b5c <_vfprintf_r+0xfc>
 800202e:	bf00      	nop
 8002030:	080075fc 	.word	0x080075fc
 8002034:	08007600 	.word	0x08007600
 8002038:	080075ec 	.word	0x080075ec
 800203c:	0800760c 	.word	0x0800760c
 8002040:	08007640 	.word	0x08007640
 8002044:	9c09      	ldr	r4, [sp, #36]	; 0x24
 8002046:	930a      	str	r3, [sp, #40]	; 0x28
 8002048:	06a1      	lsls	r1, r4, #26
 800204a:	f140 87e1 	bpl.w	8003010 <_vfprintf_r+0x15b0>
 800204e:	9811      	ldr	r0, [sp, #68]	; 0x44
 8002050:	9a0f      	ldr	r2, [sp, #60]	; 0x3c
 8002052:	6803      	ldr	r3, [r0, #0]
 8002054:	17d1      	asrs	r1, r2, #31
 8002056:	1d04      	adds	r4, r0, #4
 8002058:	601a      	str	r2, [r3, #0]
 800205a:	6059      	str	r1, [r3, #4]
 800205c:	9411      	str	r4, [sp, #68]	; 0x44
 800205e:	e544      	b.n	8001aea <_vfprintf_r+0x8a>
 8002060:	930a      	str	r3, [sp, #40]	; 0x28
 8002062:	9b09      	ldr	r3, [sp, #36]	; 0x24
 8002064:	46b4      	mov	ip, r6
 8002066:	f013 0320 	ands.w	r3, r3, #32
 800206a:	f47f af58 	bne.w	8001f1e <_vfprintf_r+0x4be>
 800206e:	9809      	ldr	r0, [sp, #36]	; 0x24
 8002070:	f010 0210 	ands.w	r2, r0, #16
 8002074:	f040 85a2 	bne.w	8002bbc <_vfprintf_r+0x115c>
 8002078:	9e09      	ldr	r6, [sp, #36]	; 0x24
 800207a:	f016 0340 	ands.w	r3, r6, #64	; 0x40
 800207e:	f000 859d 	beq.w	8002bbc <_vfprintf_r+0x115c>
 8002082:	9911      	ldr	r1, [sp, #68]	; 0x44
 8002084:	4613      	mov	r3, r2
 8002086:	1d08      	adds	r0, r1, #4
 8002088:	880c      	ldrh	r4, [r1, #0]
 800208a:	2500      	movs	r5, #0
 800208c:	9011      	str	r0, [sp, #68]	; 0x44
 800208e:	e750      	b.n	8001f32 <_vfprintf_r+0x4d2>
 8002090:	9a11      	ldr	r2, [sp, #68]	; 0x44
 8002092:	930a      	str	r3, [sp, #40]	; 0x28
 8002094:	6813      	ldr	r3, [r2, #0]
 8002096:	9909      	ldr	r1, [sp, #36]	; 0x24
 8002098:	46b4      	mov	ip, r6
 800209a:	9e11      	ldr	r6, [sp, #68]	; 0x44
 800209c:	461c      	mov	r4, r3
 800209e:	4ba6      	ldr	r3, [pc, #664]	; (8002338 <_vfprintf_r+0x8d8>)
 80020a0:	1d35      	adds	r5, r6, #4
 80020a2:	f04f 0878 	mov.w	r8, #120	; 0x78
 80020a6:	f041 0002 	orr.w	r0, r1, #2
 80020aa:	2230      	movs	r2, #48	; 0x30
 80020ac:	9511      	str	r5, [sp, #68]	; 0x44
 80020ae:	931a      	str	r3, [sp, #104]	; 0x68
 80020b0:	2500      	movs	r5, #0
 80020b2:	9009      	str	r0, [sp, #36]	; 0x24
 80020b4:	f88d 207c 	strb.w	r2, [sp, #124]	; 0x7c
 80020b8:	f88d 807d 	strb.w	r8, [sp, #125]	; 0x7d
 80020bc:	2302      	movs	r3, #2
 80020be:	e738      	b.n	8001f32 <_vfprintf_r+0x4d2>
 80020c0:	9a09      	ldr	r2, [sp, #36]	; 0x24
 80020c2:	46b4      	mov	ip, r6
 80020c4:	0696      	lsls	r6, r2, #26
 80020c6:	930a      	str	r3, [sp, #40]	; 0x28
 80020c8:	f53f aee3 	bmi.w	8001e92 <_vfprintf_r+0x432>
 80020cc:	9909      	ldr	r1, [sp, #36]	; 0x24
 80020ce:	06cd      	lsls	r5, r1, #27
 80020d0:	f100 84ef 	bmi.w	8002ab2 <_vfprintf_r+0x1052>
 80020d4:	9c09      	ldr	r4, [sp, #36]	; 0x24
 80020d6:	0664      	lsls	r4, r4, #25
 80020d8:	f140 84eb 	bpl.w	8002ab2 <_vfprintf_r+0x1052>
 80020dc:	9811      	ldr	r0, [sp, #68]	; 0x44
 80020de:	f9b0 4000 	ldrsh.w	r4, [r0]
 80020e2:	1d06      	adds	r6, r0, #4
 80020e4:	17e5      	asrs	r5, r4, #31
 80020e6:	9611      	str	r6, [sp, #68]	; 0x44
 80020e8:	4622      	mov	r2, r4
 80020ea:	462b      	mov	r3, r5
 80020ec:	e6db      	b.n	8001ea6 <_vfprintf_r+0x446>
 80020ee:	9809      	ldr	r0, [sp, #36]	; 0x24
 80020f0:	f040 0440 	orr.w	r4, r0, #64	; 0x40
 80020f4:	9409      	str	r4, [sp, #36]	; 0x24
 80020f6:	f893 8000 	ldrb.w	r8, [r3]
 80020fa:	e52f      	b.n	8001b5c <_vfprintf_r+0xfc>
 80020fc:	9e11      	ldr	r6, [sp, #68]	; 0x44
 80020fe:	9911      	ldr	r1, [sp, #68]	; 0x44
 8002100:	6835      	ldr	r5, [r6, #0]
 8002102:	930a      	str	r3, [sp, #40]	; 0x28
 8002104:	2201      	movs	r2, #1
 8002106:	1d0b      	adds	r3, r1, #4
 8002108:	2000      	movs	r0, #0
 800210a:	2401      	movs	r4, #1
 800210c:	920d      	str	r2, [sp, #52]	; 0x34
 800210e:	9311      	str	r3, [sp, #68]	; 0x44
 8002110:	f88d 50a8 	strb.w	r5, [sp, #168]	; 0xa8
 8002114:	f88d 007b 	strb.w	r0, [sp, #123]	; 0x7b
 8002118:	9410      	str	r4, [sp, #64]	; 0x40
 800211a:	f10d 0ba8 	add.w	fp, sp, #168	; 0xa8
 800211e:	2600      	movs	r6, #0
 8002120:	9613      	str	r6, [sp, #76]	; 0x4c
 8002122:	9615      	str	r6, [sp, #84]	; 0x54
 8002124:	e628      	b.n	8001d78 <_vfprintf_r+0x318>
 8002126:	930a      	str	r3, [sp, #40]	; 0x28
 8002128:	f1b8 0f00 	cmp.w	r8, #0
 800212c:	f43f ad9e 	beq.w	8001c6c <_vfprintf_r+0x20c>
 8002130:	2501      	movs	r5, #1
 8002132:	2300      	movs	r3, #0
 8002134:	950d      	str	r5, [sp, #52]	; 0x34
 8002136:	f88d 80a8 	strb.w	r8, [sp, #168]	; 0xa8
 800213a:	f88d 307b 	strb.w	r3, [sp, #123]	; 0x7b
 800213e:	9510      	str	r5, [sp, #64]	; 0x40
 8002140:	f10d 0ba8 	add.w	fp, sp, #168	; 0xa8
 8002144:	e7eb      	b.n	800211e <_vfprintf_r+0x6be>
 8002146:	f89d 007b 	ldrb.w	r0, [sp, #123]	; 0x7b
 800214a:	2800      	cmp	r0, #0
 800214c:	f040 8776 	bne.w	800303c <_vfprintf_r+0x15dc>
 8002150:	f88d 107b 	strb.w	r1, [sp, #123]	; 0x7b
 8002154:	f893 8000 	ldrb.w	r8, [r3]
 8002158:	e500      	b.n	8001b5c <_vfprintf_r+0xfc>
 800215a:	9809      	ldr	r0, [sp, #36]	; 0x24
 800215c:	f040 0401 	orr.w	r4, r0, #1
 8002160:	9409      	str	r4, [sp, #36]	; 0x24
 8002162:	f893 8000 	ldrb.w	r8, [r3]
 8002166:	e4f9      	b.n	8001b5c <_vfprintf_r+0xfc>
 8002168:	930a      	str	r3, [sp, #40]	; 0x28
 800216a:	9b09      	ldr	r3, [sp, #36]	; 0x24
 800216c:	46b4      	mov	ip, r6
 800216e:	069d      	lsls	r5, r3, #26
 8002170:	f53f aeed 	bmi.w	8001f4e <_vfprintf_r+0x4ee>
 8002174:	9809      	ldr	r0, [sp, #36]	; 0x24
 8002176:	06c4      	lsls	r4, r0, #27
 8002178:	f100 8517 	bmi.w	8002baa <_vfprintf_r+0x114a>
 800217c:	9a09      	ldr	r2, [sp, #36]	; 0x24
 800217e:	0650      	lsls	r0, r2, #25
 8002180:	f140 8513 	bpl.w	8002baa <_vfprintf_r+0x114a>
 8002184:	9e11      	ldr	r6, [sp, #68]	; 0x44
 8002186:	2301      	movs	r3, #1
 8002188:	1d31      	adds	r1, r6, #4
 800218a:	8834      	ldrh	r4, [r6, #0]
 800218c:	2500      	movs	r5, #0
 800218e:	9111      	str	r1, [sp, #68]	; 0x44
 8002190:	e6cf      	b.n	8001f32 <_vfprintf_r+0x4d2>
 8002192:	9d09      	ldr	r5, [sp, #36]	; 0x24
 8002194:	4c68      	ldr	r4, [pc, #416]	; (8002338 <_vfprintf_r+0x8d8>)
 8002196:	06a9      	lsls	r1, r5, #26
 8002198:	930a      	str	r3, [sp, #40]	; 0x28
 800219a:	46b4      	mov	ip, r6
 800219c:	941a      	str	r4, [sp, #104]	; 0x68
 800219e:	f53f aee9 	bmi.w	8001f74 <_vfprintf_r+0x514>
 80021a2:	9a09      	ldr	r2, [sp, #36]	; 0x24
 80021a4:	06d2      	lsls	r2, r2, #27
 80021a6:	f100 8511 	bmi.w	8002bcc <_vfprintf_r+0x116c>
 80021aa:	9909      	ldr	r1, [sp, #36]	; 0x24
 80021ac:	064b      	lsls	r3, r1, #25
 80021ae:	f140 850d 	bpl.w	8002bcc <_vfprintf_r+0x116c>
 80021b2:	9b11      	ldr	r3, [sp, #68]	; 0x44
 80021b4:	2500      	movs	r5, #0
 80021b6:	1d18      	adds	r0, r3, #4
 80021b8:	881c      	ldrh	r4, [r3, #0]
 80021ba:	9011      	str	r0, [sp, #68]	; 0x44
 80021bc:	e6e3      	b.n	8001f86 <_vfprintf_r+0x526>
 80021be:	9c11      	ldr	r4, [sp, #68]	; 0x44
 80021c0:	9811      	ldr	r0, [sp, #68]	; 0x44
 80021c2:	6824      	ldr	r4, [r4, #0]
 80021c4:	3004      	adds	r0, #4
 80021c6:	2c00      	cmp	r4, #0
 80021c8:	940e      	str	r4, [sp, #56]	; 0x38
 80021ca:	f6ff ad2b 	blt.w	8001c24 <_vfprintf_r+0x1c4>
 80021ce:	f893 8000 	ldrb.w	r8, [r3]
 80021d2:	9011      	str	r0, [sp, #68]	; 0x44
 80021d4:	e4c2      	b.n	8001b5c <_vfprintf_r+0xfc>
 80021d6:	461c      	mov	r4, r3
 80021d8:	2000      	movs	r0, #0
 80021da:	f1a8 0330 	sub.w	r3, r8, #48	; 0x30
 80021de:	f814 8b01 	ldrb.w	r8, [r4], #1
 80021e2:	eb00 0080 	add.w	r0, r0, r0, lsl #2
 80021e6:	f1a8 0530 	sub.w	r5, r8, #48	; 0x30
 80021ea:	2d09      	cmp	r5, #9
 80021ec:	eb03 0040 	add.w	r0, r3, r0, lsl #1
 80021f0:	4623      	mov	r3, r4
 80021f2:	d9f2      	bls.n	80021da <_vfprintf_r+0x77a>
 80021f4:	900e      	str	r0, [sp, #56]	; 0x38
 80021f6:	e4b2      	b.n	8001b5e <_vfprintf_r+0xfe>
 80021f8:	4628      	mov	r0, r5
 80021fa:	4631      	mov	r1, r6
 80021fc:	aa27      	add	r2, sp, #156	; 0x9c
 80021fe:	f004 fed7 	bl	8006fb0 <__sprint_r>
 8002202:	2800      	cmp	r0, #0
 8002204:	f47f ad39 	bne.w	8001c7a <_vfprintf_r+0x21a>
 8002208:	3f10      	subs	r7, #16
 800220a:	2f10      	cmp	r7, #16
 800220c:	9a29      	ldr	r2, [sp, #164]	; 0xa4
 800220e:	9b28      	ldr	r3, [sp, #160]	; 0xa0
 8002210:	f10d 0ad0 	add.w	sl, sp, #208	; 0xd0
 8002214:	f73f ae0f 	bgt.w	8001e36 <_vfprintf_r+0x3d6>
 8002218:	9d1c      	ldr	r5, [sp, #112]	; 0x70
 800221a:	9e1d      	ldr	r6, [sp, #116]	; 0x74
 800221c:	19d4      	adds	r4, r2, r7
 800221e:	1c59      	adds	r1, r3, #1
 8002220:	9a17      	ldr	r2, [sp, #92]	; 0x5c
 8002222:	2907      	cmp	r1, #7
 8002224:	e88a 0084 	stmia.w	sl, {r2, r7}
 8002228:	9429      	str	r4, [sp, #164]	; 0xa4
 800222a:	9128      	str	r1, [sp, #160]	; 0xa0
 800222c:	f10a 0a08 	add.w	sl, sl, #8
 8002230:	f340 8087 	ble.w	8002342 <_vfprintf_r+0x8e2>
 8002234:	980c      	ldr	r0, [sp, #48]	; 0x30
 8002236:	990b      	ldr	r1, [sp, #44]	; 0x2c
 8002238:	aa27      	add	r2, sp, #156	; 0x9c
 800223a:	f004 feb9 	bl	8006fb0 <__sprint_r>
 800223e:	2800      	cmp	r0, #0
 8002240:	f47f ad1b 	bne.w	8001c7a <_vfprintf_r+0x21a>
 8002244:	f89d 007b 	ldrb.w	r0, [sp, #123]	; 0x7b
 8002248:	9c29      	ldr	r4, [sp, #164]	; 0xa4
 800224a:	f10d 0ad0 	add.w	sl, sp, #208	; 0xd0
 800224e:	2800      	cmp	r0, #0
 8002250:	d17b      	bne.n	800234a <_vfprintf_r+0x8ea>
 8002252:	b17d      	cbz	r5, 8002274 <_vfprintf_r+0x814>
 8002254:	9a28      	ldr	r2, [sp, #160]	; 0xa0
 8002256:	3402      	adds	r4, #2
 8002258:	1c53      	adds	r3, r2, #1
 800225a:	2002      	movs	r0, #2
 800225c:	a91f      	add	r1, sp, #124	; 0x7c
 800225e:	2b07      	cmp	r3, #7
 8002260:	f8ca 1000 	str.w	r1, [sl]
 8002264:	f8ca 0004 	str.w	r0, [sl, #4]
 8002268:	9429      	str	r4, [sp, #164]	; 0xa4
 800226a:	9328      	str	r3, [sp, #160]	; 0xa0
 800226c:	f10a 0a08 	add.w	sl, sl, #8
 8002270:	f300 832d 	bgt.w	80028ce <_vfprintf_r+0xe6e>
 8002274:	2e80      	cmp	r6, #128	; 0x80
 8002276:	f000 8222 	beq.w	80026be <_vfprintf_r+0xc5e>
 800227a:	9d13      	ldr	r5, [sp, #76]	; 0x4c
 800227c:	9810      	ldr	r0, [sp, #64]	; 0x40
 800227e:	1a2d      	subs	r5, r5, r0
 8002280:	2d00      	cmp	r5, #0
 8002282:	f340 80a9 	ble.w	80023d8 <_vfprintf_r+0x978>
 8002286:	2d10      	cmp	r5, #16
 8002288:	f340 86dc 	ble.w	8003044 <_vfprintf_r+0x15e4>
 800228c:	9e28      	ldr	r6, [sp, #160]	; 0xa0
 800228e:	2710      	movs	r7, #16
 8002290:	1c70      	adds	r0, r6, #1
 8002292:	f1a5 0311 	sub.w	r3, r5, #17
 8002296:	19e4      	adds	r4, r4, r7
 8002298:	2807      	cmp	r0, #7
 800229a:	f8ca 9000 	str.w	r9, [sl]
 800229e:	f8ca 7004 	str.w	r7, [sl, #4]
 80022a2:	4e26      	ldr	r6, [pc, #152]	; (800233c <_vfprintf_r+0x8dc>)
 80022a4:	9429      	str	r4, [sp, #164]	; 0xa4
 80022a6:	9028      	str	r0, [sp, #160]	; 0xa0
 80022a8:	f3c3 1300 	ubfx	r3, r3, #4, #1
 80022ac:	f10a 0a08 	add.w	sl, sl, #8
 80022b0:	f300 82f1 	bgt.w	8002896 <_vfprintf_r+0xe36>
 80022b4:	3d10      	subs	r5, #16
 80022b6:	2d10      	cmp	r5, #16
 80022b8:	dd77      	ble.n	80023aa <_vfprintf_r+0x94a>
 80022ba:	b17b      	cbz	r3, 80022dc <_vfprintf_r+0x87c>
 80022bc:	3001      	adds	r0, #1
 80022be:	3410      	adds	r4, #16
 80022c0:	2807      	cmp	r0, #7
 80022c2:	f8ca 9000 	str.w	r9, [sl]
 80022c6:	f8ca 7004 	str.w	r7, [sl, #4]
 80022ca:	9429      	str	r4, [sp, #164]	; 0xa4
 80022cc:	9028      	str	r0, [sp, #160]	; 0xa0
 80022ce:	f10a 0a08 	add.w	sl, sl, #8
 80022d2:	f300 82ef 	bgt.w	80028b4 <_vfprintf_r+0xe54>
 80022d6:	3d10      	subs	r5, #16
 80022d8:	2d10      	cmp	r5, #16
 80022da:	dd66      	ble.n	80023aa <_vfprintf_r+0x94a>
 80022dc:	4653      	mov	r3, sl
 80022de:	4621      	mov	r1, r4
 80022e0:	46da      	mov	sl, fp
 80022e2:	4634      	mov	r4, r6
 80022e4:	46c3      	mov	fp, r8
 80022e6:	9e0c      	ldr	r6, [sp, #48]	; 0x30
 80022e8:	f8dd 802c 	ldr.w	r8, [sp, #44]	; 0x2c
 80022ec:	e00c      	b.n	8002308 <_vfprintf_r+0x8a8>
 80022ee:	1c50      	adds	r0, r2, #1
 80022f0:	f8c3 9000 	str.w	r9, [r3]
 80022f4:	605f      	str	r7, [r3, #4]
 80022f6:	3110      	adds	r1, #16
 80022f8:	3308      	adds	r3, #8
 80022fa:	2807      	cmp	r0, #7
 80022fc:	9028      	str	r0, [sp, #160]	; 0xa0
 80022fe:	9129      	str	r1, [sp, #164]	; 0xa4
 8002300:	dc40      	bgt.n	8002384 <_vfprintf_r+0x924>
 8002302:	3d10      	subs	r5, #16
 8002304:	2d10      	cmp	r5, #16
 8002306:	dd4b      	ble.n	80023a0 <_vfprintf_r+0x940>
 8002308:	1c42      	adds	r2, r0, #1
 800230a:	f8c3 9000 	str.w	r9, [r3]
 800230e:	605f      	str	r7, [r3, #4]
 8002310:	3110      	adds	r1, #16
 8002312:	3308      	adds	r3, #8
 8002314:	2a07      	cmp	r2, #7
 8002316:	9129      	str	r1, [sp, #164]	; 0xa4
 8002318:	9228      	str	r2, [sp, #160]	; 0xa0
 800231a:	f1a5 0510 	sub.w	r5, r5, #16
 800231e:	dde6      	ble.n	80022ee <_vfprintf_r+0x88e>
 8002320:	4630      	mov	r0, r6
 8002322:	4641      	mov	r1, r8
 8002324:	aa27      	add	r2, sp, #156	; 0x9c
 8002326:	f004 fe43 	bl	8006fb0 <__sprint_r>
 800232a:	2800      	cmp	r0, #0
 800232c:	f47f aca5 	bne.w	8001c7a <_vfprintf_r+0x21a>
 8002330:	9929      	ldr	r1, [sp, #164]	; 0xa4
 8002332:	9a28      	ldr	r2, [sp, #160]	; 0xa0
 8002334:	ab34      	add	r3, sp, #208	; 0xd0
 8002336:	e7da      	b.n	80022ee <_vfprintf_r+0x88e>
 8002338:	08007620 	.word	0x08007620
 800233c:	08007640 	.word	0x08007640
 8002340:	9c29      	ldr	r4, [sp, #164]	; 0xa4
 8002342:	f89d 007b 	ldrb.w	r0, [sp, #123]	; 0x7b
 8002346:	2800      	cmp	r0, #0
 8002348:	d083      	beq.n	8002252 <_vfprintf_r+0x7f2>
 800234a:	9a28      	ldr	r2, [sp, #160]	; 0xa0
 800234c:	3401      	adds	r4, #1
 800234e:	1c53      	adds	r3, r2, #1
 8002350:	2001      	movs	r0, #1
 8002352:	f10d 017b 	add.w	r1, sp, #123	; 0x7b
 8002356:	2b07      	cmp	r3, #7
 8002358:	f8ca 1000 	str.w	r1, [sl]
 800235c:	f8ca 0004 	str.w	r0, [sl, #4]
 8002360:	9429      	str	r4, [sp, #164]	; 0xa4
 8002362:	9328      	str	r3, [sp, #160]	; 0xa0
 8002364:	f10a 0a08 	add.w	sl, sl, #8
 8002368:	f77f af73 	ble.w	8002252 <_vfprintf_r+0x7f2>
 800236c:	980c      	ldr	r0, [sp, #48]	; 0x30
 800236e:	990b      	ldr	r1, [sp, #44]	; 0x2c
 8002370:	aa27      	add	r2, sp, #156	; 0x9c
 8002372:	f004 fe1d 	bl	8006fb0 <__sprint_r>
 8002376:	2800      	cmp	r0, #0
 8002378:	f47f ac7f 	bne.w	8001c7a <_vfprintf_r+0x21a>
 800237c:	9c29      	ldr	r4, [sp, #164]	; 0xa4
 800237e:	f10d 0ad0 	add.w	sl, sp, #208	; 0xd0
 8002382:	e766      	b.n	8002252 <_vfprintf_r+0x7f2>
 8002384:	4630      	mov	r0, r6
 8002386:	4641      	mov	r1, r8
 8002388:	aa27      	add	r2, sp, #156	; 0x9c
 800238a:	f004 fe11 	bl	8006fb0 <__sprint_r>
 800238e:	2800      	cmp	r0, #0
 8002390:	f47f ac73 	bne.w	8001c7a <_vfprintf_r+0x21a>
 8002394:	3d10      	subs	r5, #16
 8002396:	2d10      	cmp	r5, #16
 8002398:	9929      	ldr	r1, [sp, #164]	; 0xa4
 800239a:	9828      	ldr	r0, [sp, #160]	; 0xa0
 800239c:	ab34      	add	r3, sp, #208	; 0xd0
 800239e:	dcb3      	bgt.n	8002308 <_vfprintf_r+0x8a8>
 80023a0:	46d8      	mov	r8, fp
 80023a2:	4626      	mov	r6, r4
 80023a4:	46d3      	mov	fp, sl
 80023a6:	460c      	mov	r4, r1
 80023a8:	469a      	mov	sl, r3
 80023aa:	1c42      	adds	r2, r0, #1
 80023ac:	1964      	adds	r4, r4, r5
 80023ae:	2a07      	cmp	r2, #7
 80023b0:	f8ca 6000 	str.w	r6, [sl]
 80023b4:	f8ca 5004 	str.w	r5, [sl, #4]
 80023b8:	9429      	str	r4, [sp, #164]	; 0xa4
 80023ba:	9228      	str	r2, [sp, #160]	; 0xa0
 80023bc:	f10a 0a08 	add.w	sl, sl, #8
 80023c0:	dd0a      	ble.n	80023d8 <_vfprintf_r+0x978>
 80023c2:	980c      	ldr	r0, [sp, #48]	; 0x30
 80023c4:	990b      	ldr	r1, [sp, #44]	; 0x2c
 80023c6:	aa27      	add	r2, sp, #156	; 0x9c
 80023c8:	f004 fdf2 	bl	8006fb0 <__sprint_r>
 80023cc:	2800      	cmp	r0, #0
 80023ce:	f47f ac54 	bne.w	8001c7a <_vfprintf_r+0x21a>
 80023d2:	9c29      	ldr	r4, [sp, #164]	; 0xa4
 80023d4:	f10d 0ad0 	add.w	sl, sp, #208	; 0xd0
 80023d8:	9909      	ldr	r1, [sp, #36]	; 0x24
 80023da:	05ca      	lsls	r2, r1, #23
 80023dc:	f100 80d5 	bmi.w	800258a <_vfprintf_r+0xb2a>
 80023e0:	9828      	ldr	r0, [sp, #160]	; 0xa0
 80023e2:	9910      	ldr	r1, [sp, #64]	; 0x40
 80023e4:	9b10      	ldr	r3, [sp, #64]	; 0x40
 80023e6:	1864      	adds	r4, r4, r1
 80023e8:	1c42      	adds	r2, r0, #1
 80023ea:	f8ca b000 	str.w	fp, [sl]
 80023ee:	f8ca 3004 	str.w	r3, [sl, #4]
 80023f2:	2a07      	cmp	r2, #7
 80023f4:	9429      	str	r4, [sp, #164]	; 0xa4
 80023f6:	9228      	str	r2, [sp, #160]	; 0xa0
 80023f8:	f10a 0a08 	add.w	sl, sl, #8
 80023fc:	f300 8235 	bgt.w	800286a <_vfprintf_r+0xe0a>
 8002400:	9a09      	ldr	r2, [sp, #36]	; 0x24
 8002402:	0753      	lsls	r3, r2, #29
 8002404:	d57c      	bpl.n	8002500 <_vfprintf_r+0xaa0>
 8002406:	9d0e      	ldr	r5, [sp, #56]	; 0x38
 8002408:	990d      	ldr	r1, [sp, #52]	; 0x34
 800240a:	1a6d      	subs	r5, r5, r1
 800240c:	2d00      	cmp	r5, #0
 800240e:	dd77      	ble.n	8002500 <_vfprintf_r+0xaa0>
 8002410:	2d10      	cmp	r5, #16
 8002412:	dd60      	ble.n	80024d6 <_vfprintf_r+0xa76>
 8002414:	9e28      	ldr	r6, [sp, #160]	; 0xa0
 8002416:	2710      	movs	r7, #16
 8002418:	1c73      	adds	r3, r6, #1
 800241a:	f247 50ec 	movw	r0, #30188	; 0x75ec
 800241e:	f1a5 0e11 	sub.w	lr, r5, #17
 8002422:	19e4      	adds	r4, r4, r7
 8002424:	f6c0 0000 	movt	r0, #2048	; 0x800
 8002428:	2b07      	cmp	r3, #7
 800242a:	e88a 0081 	stmia.w	sl, {r0, r7}
 800242e:	4ebf      	ldr	r6, [pc, #764]	; (800272c <_vfprintf_r+0xccc>)
 8002430:	9429      	str	r4, [sp, #164]	; 0xa4
 8002432:	9328      	str	r3, [sp, #160]	; 0xa0
 8002434:	f3ce 1800 	ubfx	r8, lr, #4, #1
 8002438:	f10a 0a08 	add.w	sl, sl, #8
 800243c:	f300 83d8 	bgt.w	8002bf0 <_vfprintf_r+0x1190>
 8002440:	3d10      	subs	r5, #16
 8002442:	2d10      	cmp	r5, #16
 8002444:	dd49      	ble.n	80024da <_vfprintf_r+0xa7a>
 8002446:	f1b8 0f00 	cmp.w	r8, #0
 800244a:	d011      	beq.n	8002470 <_vfprintf_r+0xa10>
 800244c:	3301      	adds	r3, #1
 800244e:	f247 50ec 	movw	r0, #30188	; 0x75ec
 8002452:	3410      	adds	r4, #16
 8002454:	f6c0 0000 	movt	r0, #2048	; 0x800
 8002458:	2b07      	cmp	r3, #7
 800245a:	e88a 0081 	stmia.w	sl, {r0, r7}
 800245e:	9429      	str	r4, [sp, #164]	; 0xa4
 8002460:	9328      	str	r3, [sp, #160]	; 0xa0
 8002462:	f10a 0a08 	add.w	sl, sl, #8
 8002466:	f300 83f0 	bgt.w	8002c4a <_vfprintf_r+0x11ea>
 800246a:	3d10      	subs	r5, #16
 800246c:	2d10      	cmp	r5, #16
 800246e:	dd34      	ble.n	80024da <_vfprintf_r+0xa7a>
 8002470:	f8dd 8030 	ldr.w	r8, [sp, #48]	; 0x30
 8002474:	f8dd b02c 	ldr.w	fp, [sp, #44]	; 0x2c
 8002478:	e010      	b.n	800249c <_vfprintf_r+0xa3c>
 800247a:	1c43      	adds	r3, r0, #1
 800247c:	f247 52ec 	movw	r2, #30188	; 0x75ec
 8002480:	3410      	adds	r4, #16
 8002482:	f6c0 0200 	movt	r2, #2048	; 0x800
 8002486:	2b07      	cmp	r3, #7
 8002488:	e88a 0084 	stmia.w	sl, {r2, r7}
 800248c:	f10a 0a08 	add.w	sl, sl, #8
 8002490:	9328      	str	r3, [sp, #160]	; 0xa0
 8002492:	9429      	str	r4, [sp, #164]	; 0xa4
 8002494:	dc45      	bgt.n	8002522 <_vfprintf_r+0xac2>
 8002496:	3d10      	subs	r5, #16
 8002498:	2d10      	cmp	r5, #16
 800249a:	dd1e      	ble.n	80024da <_vfprintf_r+0xa7a>
 800249c:	1c58      	adds	r0, r3, #1
 800249e:	f247 51ec 	movw	r1, #30188	; 0x75ec
 80024a2:	3410      	adds	r4, #16
 80024a4:	f6c0 0100 	movt	r1, #2048	; 0x800
 80024a8:	2807      	cmp	r0, #7
 80024aa:	e88a 0082 	stmia.w	sl, {r1, r7}
 80024ae:	f1a5 0510 	sub.w	r5, r5, #16
 80024b2:	f10a 0a08 	add.w	sl, sl, #8
 80024b6:	9429      	str	r4, [sp, #164]	; 0xa4
 80024b8:	9028      	str	r0, [sp, #160]	; 0xa0
 80024ba:	ddde      	ble.n	800247a <_vfprintf_r+0xa1a>
 80024bc:	4640      	mov	r0, r8
 80024be:	4659      	mov	r1, fp
 80024c0:	aa27      	add	r2, sp, #156	; 0x9c
 80024c2:	f004 fd75 	bl	8006fb0 <__sprint_r>
 80024c6:	2800      	cmp	r0, #0
 80024c8:	f47f abd7 	bne.w	8001c7a <_vfprintf_r+0x21a>
 80024cc:	9c29      	ldr	r4, [sp, #164]	; 0xa4
 80024ce:	9828      	ldr	r0, [sp, #160]	; 0xa0
 80024d0:	f10d 0ad0 	add.w	sl, sp, #208	; 0xd0
 80024d4:	e7d1      	b.n	800247a <_vfprintf_r+0xa1a>
 80024d6:	9b28      	ldr	r3, [sp, #160]	; 0xa0
 80024d8:	4e94      	ldr	r6, [pc, #592]	; (800272c <_vfprintf_r+0xccc>)
 80024da:	1c5a      	adds	r2, r3, #1
 80024dc:	192c      	adds	r4, r5, r4
 80024de:	2a07      	cmp	r2, #7
 80024e0:	f8ca 6000 	str.w	r6, [sl]
 80024e4:	f8ca 5004 	str.w	r5, [sl, #4]
 80024e8:	9429      	str	r4, [sp, #164]	; 0xa4
 80024ea:	9228      	str	r2, [sp, #160]	; 0xa0
 80024ec:	dd08      	ble.n	8002500 <_vfprintf_r+0xaa0>
 80024ee:	980c      	ldr	r0, [sp, #48]	; 0x30
 80024f0:	990b      	ldr	r1, [sp, #44]	; 0x2c
 80024f2:	aa27      	add	r2, sp, #156	; 0x9c
 80024f4:	f004 fd5c 	bl	8006fb0 <__sprint_r>
 80024f8:	2800      	cmp	r0, #0
 80024fa:	f47f abbe 	bne.w	8001c7a <_vfprintf_r+0x21a>
 80024fe:	9c29      	ldr	r4, [sp, #164]	; 0xa4
 8002500:	9b0f      	ldr	r3, [sp, #60]	; 0x3c
 8002502:	990d      	ldr	r1, [sp, #52]	; 0x34
 8002504:	980e      	ldr	r0, [sp, #56]	; 0x38
 8002506:	4281      	cmp	r1, r0
 8002508:	bfac      	ite	ge
 800250a:	185b      	addge	r3, r3, r1
 800250c:	181b      	addlt	r3, r3, r0
 800250e:	930f      	str	r3, [sp, #60]	; 0x3c
 8002510:	2c00      	cmp	r4, #0
 8002512:	f040 81b6 	bne.w	8002882 <_vfprintf_r+0xe22>
 8002516:	2400      	movs	r4, #0
 8002518:	9428      	str	r4, [sp, #160]	; 0xa0
 800251a:	f10d 0ad0 	add.w	sl, sp, #208	; 0xd0
 800251e:	f7ff bae4 	b.w	8001aea <_vfprintf_r+0x8a>
 8002522:	4640      	mov	r0, r8
 8002524:	4659      	mov	r1, fp
 8002526:	aa27      	add	r2, sp, #156	; 0x9c
 8002528:	f004 fd42 	bl	8006fb0 <__sprint_r>
 800252c:	2800      	cmp	r0, #0
 800252e:	f47f aba4 	bne.w	8001c7a <_vfprintf_r+0x21a>
 8002532:	9c29      	ldr	r4, [sp, #164]	; 0xa4
 8002534:	9b28      	ldr	r3, [sp, #160]	; 0xa0
 8002536:	f10d 0ad0 	add.w	sl, sp, #208	; 0xd0
 800253a:	e7ac      	b.n	8002496 <_vfprintf_r+0xa36>
 800253c:	2b01      	cmp	r3, #1
 800253e:	f000 81ea 	beq.w	8002916 <_vfprintf_r+0xeb6>
 8002542:	2b02      	cmp	r3, #2
 8002544:	f000 81cf 	beq.w	80028e6 <_vfprintf_r+0xe86>
 8002548:	f10d 06cf 	add.w	r6, sp, #207	; 0xcf
 800254c:	2307      	movs	r3, #7
 800254e:	08e7      	lsrs	r7, r4, #3
 8002550:	ea04 0003 	and.w	r0, r4, r3
 8002554:	ea47 7745 	orr.w	r7, r7, r5, lsl #29
 8002558:	08ea      	lsrs	r2, r5, #3
 800255a:	3030      	adds	r0, #48	; 0x30
 800255c:	463c      	mov	r4, r7
 800255e:	4615      	mov	r5, r2
 8002560:	b2c0      	uxtb	r0, r0
 8002562:	ea54 0105 	orrs.w	r1, r4, r5
 8002566:	46b3      	mov	fp, r6
 8002568:	7030      	strb	r0, [r6, #0]
 800256a:	f106 36ff 	add.w	r6, r6, #4294967295	; 0xffffffff
 800256e:	d1ee      	bne.n	800254e <_vfprintf_r+0xaee>
 8002570:	9d09      	ldr	r5, [sp, #36]	; 0x24
 8002572:	4659      	mov	r1, fp
 8002574:	07ec      	lsls	r4, r5, #31
 8002576:	f57f acb7 	bpl.w	8001ee8 <_vfprintf_r+0x488>
 800257a:	2830      	cmp	r0, #48	; 0x30
 800257c:	f000 81d5 	beq.w	800292a <_vfprintf_r+0xeca>
 8002580:	2430      	movs	r4, #48	; 0x30
 8002582:	46b3      	mov	fp, r6
 8002584:	f801 4c01 	strb.w	r4, [r1, #-1]
 8002588:	e4ae      	b.n	8001ee8 <_vfprintf_r+0x488>
 800258a:	f1b8 0f65 	cmp.w	r8, #101	; 0x65
 800258e:	f340 8125 	ble.w	80027dc <_vfprintf_r+0xd7c>
 8002592:	e9dd 0118 	ldrd	r0, r1, [sp, #96]	; 0x60
 8002596:	2200      	movs	r2, #0
 8002598:	2300      	movs	r3, #0
 800259a:	f7fe fa45 	bl	8000a28 <__aeabi_dcmpeq>
 800259e:	2800      	cmp	r0, #0
 80025a0:	f000 81ff 	beq.w	80029a2 <_vfprintf_r+0xf42>
 80025a4:	9828      	ldr	r0, [sp, #160]	; 0xa0
 80025a6:	4a62      	ldr	r2, [pc, #392]	; (8002730 <_vfprintf_r+0xcd0>)
 80025a8:	1c43      	adds	r3, r0, #1
 80025aa:	3401      	adds	r4, #1
 80025ac:	2101      	movs	r1, #1
 80025ae:	2b07      	cmp	r3, #7
 80025b0:	f8ca 2000 	str.w	r2, [sl]
 80025b4:	f8ca 1004 	str.w	r1, [sl, #4]
 80025b8:	9429      	str	r4, [sp, #164]	; 0xa4
 80025ba:	9328      	str	r3, [sp, #160]	; 0xa0
 80025bc:	f10a 0a08 	add.w	sl, sl, #8
 80025c0:	f300 8544 	bgt.w	800304c <_vfprintf_r+0x15ec>
 80025c4:	9820      	ldr	r0, [sp, #128]	; 0x80
 80025c6:	9b12      	ldr	r3, [sp, #72]	; 0x48
 80025c8:	4298      	cmp	r0, r3
 80025ca:	db03      	blt.n	80025d4 <_vfprintf_r+0xb74>
 80025cc:	9a09      	ldr	r2, [sp, #36]	; 0x24
 80025ce:	07d3      	lsls	r3, r2, #31
 80025d0:	f57f af16 	bpl.w	8002400 <_vfprintf_r+0x9a0>
 80025d4:	9828      	ldr	r0, [sp, #160]	; 0xa0
 80025d6:	9916      	ldr	r1, [sp, #88]	; 0x58
 80025d8:	1c43      	adds	r3, r0, #1
 80025da:	1864      	adds	r4, r4, r1
 80025dc:	9a14      	ldr	r2, [sp, #80]	; 0x50
 80025de:	9916      	ldr	r1, [sp, #88]	; 0x58
 80025e0:	2b07      	cmp	r3, #7
 80025e2:	f8ca 2000 	str.w	r2, [sl]
 80025e6:	f8ca 1004 	str.w	r1, [sl, #4]
 80025ea:	9429      	str	r4, [sp, #164]	; 0xa4
 80025ec:	9328      	str	r3, [sp, #160]	; 0xa0
 80025ee:	f10a 0a08 	add.w	sl, sl, #8
 80025f2:	f300 8609 	bgt.w	8003208 <_vfprintf_r+0x17a8>
 80025f6:	9d12      	ldr	r5, [sp, #72]	; 0x48
 80025f8:	3d01      	subs	r5, #1
 80025fa:	2d00      	cmp	r5, #0
 80025fc:	f77f af00 	ble.w	8002400 <_vfprintf_r+0x9a0>
 8002600:	2d10      	cmp	r5, #16
 8002602:	f340 82eb 	ble.w	8002bdc <_vfprintf_r+0x117c>
 8002606:	9828      	ldr	r0, [sp, #160]	; 0xa0
 8002608:	9f12      	ldr	r7, [sp, #72]	; 0x48
 800260a:	2610      	movs	r6, #16
 800260c:	3001      	adds	r0, #1
 800260e:	3f12      	subs	r7, #18
 8002610:	19a4      	adds	r4, r4, r6
 8002612:	2807      	cmp	r0, #7
 8002614:	f8ca 9000 	str.w	r9, [sl]
 8002618:	f8ca 6004 	str.w	r6, [sl, #4]
 800261c:	f8df 8114 	ldr.w	r8, [pc, #276]	; 8002734 <_vfprintf_r+0xcd4>
 8002620:	9429      	str	r4, [sp, #164]	; 0xa4
 8002622:	9028      	str	r0, [sp, #160]	; 0xa0
 8002624:	f3c7 1700 	ubfx	r7, r7, #4, #1
 8002628:	f10a 0a08 	add.w	sl, sl, #8
 800262c:	f300 8658 	bgt.w	80032e0 <_vfprintf_r+0x1880>
 8002630:	3d10      	subs	r5, #16
 8002632:	2d10      	cmp	r5, #16
 8002634:	f340 82d5 	ble.w	8002be2 <_vfprintf_r+0x1182>
 8002638:	b187      	cbz	r7, 800265c <_vfprintf_r+0xbfc>
 800263a:	3001      	adds	r0, #1
 800263c:	3410      	adds	r4, #16
 800263e:	2807      	cmp	r0, #7
 8002640:	f8ca 9000 	str.w	r9, [sl]
 8002644:	f8ca 6004 	str.w	r6, [sl, #4]
 8002648:	9429      	str	r4, [sp, #164]	; 0xa4
 800264a:	9028      	str	r0, [sp, #160]	; 0xa0
 800264c:	f10a 0a08 	add.w	sl, sl, #8
 8002650:	f300 8687 	bgt.w	8003362 <_vfprintf_r+0x1902>
 8002654:	3d10      	subs	r5, #16
 8002656:	2d10      	cmp	r5, #16
 8002658:	f340 82c3 	ble.w	8002be2 <_vfprintf_r+0x1182>
 800265c:	9f0c      	ldr	r7, [sp, #48]	; 0x30
 800265e:	f8dd b02c 	ldr.w	fp, [sp, #44]	; 0x2c
 8002662:	4623      	mov	r3, r4
 8002664:	e010      	b.n	8002688 <_vfprintf_r+0xc28>
 8002666:	1c60      	adds	r0, r4, #1
 8002668:	3310      	adds	r3, #16
 800266a:	2807      	cmp	r0, #7
 800266c:	f8ca 9000 	str.w	r9, [sl]
 8002670:	f8ca 6004 	str.w	r6, [sl, #4]
 8002674:	f10a 0a08 	add.w	sl, sl, #8
 8002678:	9028      	str	r0, [sp, #160]	; 0xa0
 800267a:	9329      	str	r3, [sp, #164]	; 0xa4
 800267c:	f300 8164 	bgt.w	8002948 <_vfprintf_r+0xee8>
 8002680:	3d10      	subs	r5, #16
 8002682:	2d10      	cmp	r5, #16
 8002684:	f340 8617 	ble.w	80032b6 <_vfprintf_r+0x1856>
 8002688:	1c44      	adds	r4, r0, #1
 800268a:	3310      	adds	r3, #16
 800268c:	2c07      	cmp	r4, #7
 800268e:	f8ca 9000 	str.w	r9, [sl]
 8002692:	f8ca 6004 	str.w	r6, [sl, #4]
 8002696:	f1a5 0510 	sub.w	r5, r5, #16
 800269a:	f10a 0a08 	add.w	sl, sl, #8
 800269e:	9329      	str	r3, [sp, #164]	; 0xa4
 80026a0:	9428      	str	r4, [sp, #160]	; 0xa0
 80026a2:	dde0      	ble.n	8002666 <_vfprintf_r+0xc06>
 80026a4:	4638      	mov	r0, r7
 80026a6:	4659      	mov	r1, fp
 80026a8:	aa27      	add	r2, sp, #156	; 0x9c
 80026aa:	f004 fc81 	bl	8006fb0 <__sprint_r>
 80026ae:	2800      	cmp	r0, #0
 80026b0:	f47f aae3 	bne.w	8001c7a <_vfprintf_r+0x21a>
 80026b4:	9b29      	ldr	r3, [sp, #164]	; 0xa4
 80026b6:	9c28      	ldr	r4, [sp, #160]	; 0xa0
 80026b8:	f10d 0ad0 	add.w	sl, sp, #208	; 0xd0
 80026bc:	e7d3      	b.n	8002666 <_vfprintf_r+0xc06>
 80026be:	9d0e      	ldr	r5, [sp, #56]	; 0x38
 80026c0:	9a0d      	ldr	r2, [sp, #52]	; 0x34
 80026c2:	1aad      	subs	r5, r5, r2
 80026c4:	2d00      	cmp	r5, #0
 80026c6:	f77f add8 	ble.w	800227a <_vfprintf_r+0x81a>
 80026ca:	2d10      	cmp	r5, #16
 80026cc:	f340 870b 	ble.w	80034e6 <_vfprintf_r+0x1a86>
 80026d0:	9b28      	ldr	r3, [sp, #160]	; 0xa0
 80026d2:	2610      	movs	r6, #16
 80026d4:	3301      	adds	r3, #1
 80026d6:	4817      	ldr	r0, [pc, #92]	; (8002734 <_vfprintf_r+0xcd4>)
 80026d8:	f1a5 0711 	sub.w	r7, r5, #17
 80026dc:	19a4      	adds	r4, r4, r6
 80026de:	2b07      	cmp	r3, #7
 80026e0:	f8ca 9000 	str.w	r9, [sl]
 80026e4:	f8ca 6004 	str.w	r6, [sl, #4]
 80026e8:	9017      	str	r0, [sp, #92]	; 0x5c
 80026ea:	9429      	str	r4, [sp, #164]	; 0xa4
 80026ec:	9328      	str	r3, [sp, #160]	; 0xa0
 80026ee:	f3c7 1700 	ubfx	r7, r7, #4, #1
 80026f2:	f10a 0a08 	add.w	sl, sl, #8
 80026f6:	f300 837d 	bgt.w	8002df4 <_vfprintf_r+0x1394>
 80026fa:	3d10      	subs	r5, #16
 80026fc:	2d10      	cmp	r5, #16
 80026fe:	dd55      	ble.n	80027ac <_vfprintf_r+0xd4c>
 8002700:	b17f      	cbz	r7, 8002722 <_vfprintf_r+0xcc2>
 8002702:	3301      	adds	r3, #1
 8002704:	3410      	adds	r4, #16
 8002706:	2b07      	cmp	r3, #7
 8002708:	f8ca 9000 	str.w	r9, [sl]
 800270c:	f8ca 6004 	str.w	r6, [sl, #4]
 8002710:	9429      	str	r4, [sp, #164]	; 0xa4
 8002712:	9328      	str	r3, [sp, #160]	; 0xa0
 8002714:	f10a 0a08 	add.w	sl, sl, #8
 8002718:	f300 8379 	bgt.w	8002e0e <_vfprintf_r+0x13ae>
 800271c:	3d10      	subs	r5, #16
 800271e:	2d10      	cmp	r5, #16
 8002720:	dd44      	ble.n	80027ac <_vfprintf_r+0xd4c>
 8002722:	4622      	mov	r2, r4
 8002724:	9f0c      	ldr	r7, [sp, #48]	; 0x30
 8002726:	9c0b      	ldr	r4, [sp, #44]	; 0x2c
 8002728:	e015      	b.n	8002756 <_vfprintf_r+0xcf6>
 800272a:	bf00      	nop
 800272c:	080075ec 	.word	0x080075ec
 8002730:	0800763c 	.word	0x0800763c
 8002734:	08007640 	.word	0x08007640
 8002738:	1c4b      	adds	r3, r1, #1
 800273a:	3210      	adds	r2, #16
 800273c:	2b07      	cmp	r3, #7
 800273e:	f8ca 9000 	str.w	r9, [sl]
 8002742:	f8ca 6004 	str.w	r6, [sl, #4]
 8002746:	f10a 0a08 	add.w	sl, sl, #8
 800274a:	9328      	str	r3, [sp, #160]	; 0xa0
 800274c:	9229      	str	r2, [sp, #164]	; 0xa4
 800274e:	dc1d      	bgt.n	800278c <_vfprintf_r+0xd2c>
 8002750:	3d10      	subs	r5, #16
 8002752:	2d10      	cmp	r5, #16
 8002754:	dd29      	ble.n	80027aa <_vfprintf_r+0xd4a>
 8002756:	1c59      	adds	r1, r3, #1
 8002758:	3210      	adds	r2, #16
 800275a:	2907      	cmp	r1, #7
 800275c:	f8ca 9000 	str.w	r9, [sl]
 8002760:	f8ca 6004 	str.w	r6, [sl, #4]
 8002764:	f1a5 0510 	sub.w	r5, r5, #16
 8002768:	f10a 0a08 	add.w	sl, sl, #8
 800276c:	9229      	str	r2, [sp, #164]	; 0xa4
 800276e:	9128      	str	r1, [sp, #160]	; 0xa0
 8002770:	dde2      	ble.n	8002738 <_vfprintf_r+0xcd8>
 8002772:	4638      	mov	r0, r7
 8002774:	4621      	mov	r1, r4
 8002776:	aa27      	add	r2, sp, #156	; 0x9c
 8002778:	f004 fc1a 	bl	8006fb0 <__sprint_r>
 800277c:	2800      	cmp	r0, #0
 800277e:	f47f aa7c 	bne.w	8001c7a <_vfprintf_r+0x21a>
 8002782:	9a29      	ldr	r2, [sp, #164]	; 0xa4
 8002784:	9928      	ldr	r1, [sp, #160]	; 0xa0
 8002786:	f10d 0ad0 	add.w	sl, sp, #208	; 0xd0
 800278a:	e7d5      	b.n	8002738 <_vfprintf_r+0xcd8>
 800278c:	4638      	mov	r0, r7
 800278e:	4621      	mov	r1, r4
 8002790:	aa27      	add	r2, sp, #156	; 0x9c
 8002792:	f004 fc0d 	bl	8006fb0 <__sprint_r>
 8002796:	2800      	cmp	r0, #0
 8002798:	f47f aa6f 	bne.w	8001c7a <_vfprintf_r+0x21a>
 800279c:	3d10      	subs	r5, #16
 800279e:	2d10      	cmp	r5, #16
 80027a0:	9a29      	ldr	r2, [sp, #164]	; 0xa4
 80027a2:	9b28      	ldr	r3, [sp, #160]	; 0xa0
 80027a4:	f10d 0ad0 	add.w	sl, sp, #208	; 0xd0
 80027a8:	dcd5      	bgt.n	8002756 <_vfprintf_r+0xcf6>
 80027aa:	4614      	mov	r4, r2
 80027ac:	1c59      	adds	r1, r3, #1
 80027ae:	9817      	ldr	r0, [sp, #92]	; 0x5c
 80027b0:	1964      	adds	r4, r4, r5
 80027b2:	2907      	cmp	r1, #7
 80027b4:	e88a 0021 	stmia.w	sl, {r0, r5}
 80027b8:	9429      	str	r4, [sp, #164]	; 0xa4
 80027ba:	9128      	str	r1, [sp, #160]	; 0xa0
 80027bc:	f10a 0a08 	add.w	sl, sl, #8
 80027c0:	f77f ad5b 	ble.w	800227a <_vfprintf_r+0x81a>
 80027c4:	980c      	ldr	r0, [sp, #48]	; 0x30
 80027c6:	990b      	ldr	r1, [sp, #44]	; 0x2c
 80027c8:	aa27      	add	r2, sp, #156	; 0x9c
 80027ca:	f004 fbf1 	bl	8006fb0 <__sprint_r>
 80027ce:	2800      	cmp	r0, #0
 80027d0:	f47f aa53 	bne.w	8001c7a <_vfprintf_r+0x21a>
 80027d4:	9c29      	ldr	r4, [sp, #164]	; 0xa4
 80027d6:	f10d 0ad0 	add.w	sl, sp, #208	; 0xd0
 80027da:	e54e      	b.n	800227a <_vfprintf_r+0x81a>
 80027dc:	9812      	ldr	r0, [sp, #72]	; 0x48
 80027de:	9d28      	ldr	r5, [sp, #160]	; 0xa0
 80027e0:	3401      	adds	r4, #1
 80027e2:	3501      	adds	r5, #1
 80027e4:	2801      	cmp	r0, #1
 80027e6:	f340 831f 	ble.w	8002e28 <_vfprintf_r+0x13c8>
 80027ea:	2101      	movs	r1, #1
 80027ec:	2d07      	cmp	r5, #7
 80027ee:	f8ca b000 	str.w	fp, [sl]
 80027f2:	f8ca 1004 	str.w	r1, [sl, #4]
 80027f6:	f10a 0a08 	add.w	sl, sl, #8
 80027fa:	9429      	str	r4, [sp, #164]	; 0xa4
 80027fc:	9528      	str	r5, [sp, #160]	; 0xa0
 80027fe:	f300 8330 	bgt.w	8002e62 <_vfprintf_r+0x1402>
 8002802:	9b16      	ldr	r3, [sp, #88]	; 0x58
 8002804:	3501      	adds	r5, #1
 8002806:	9814      	ldr	r0, [sp, #80]	; 0x50
 8002808:	18e4      	adds	r4, r4, r3
 800280a:	2d07      	cmp	r5, #7
 800280c:	e88a 0009 	stmia.w	sl, {r0, r3}
 8002810:	f10a 0a08 	add.w	sl, sl, #8
 8002814:	9429      	str	r4, [sp, #164]	; 0xa4
 8002816:	9528      	str	r5, [sp, #160]	; 0xa0
 8002818:	f300 8339 	bgt.w	8002e8e <_vfprintf_r+0x142e>
 800281c:	e9dd 0118 	ldrd	r0, r1, [sp, #96]	; 0x60
 8002820:	2200      	movs	r2, #0
 8002822:	2300      	movs	r3, #0
 8002824:	f7fe f900 	bl	8000a28 <__aeabi_dcmpeq>
 8002828:	2800      	cmp	r0, #0
 800282a:	f040 814c 	bne.w	8002ac6 <_vfprintf_r+0x1066>
 800282e:	9a12      	ldr	r2, [sp, #72]	; 0x48
 8002830:	3501      	adds	r5, #1
 8002832:	1e53      	subs	r3, r2, #1
 8002834:	f10b 0201 	add.w	r2, fp, #1
 8002838:	e88a 000c 	stmia.w	sl, {r2, r3}
 800283c:	18e4      	adds	r4, r4, r3
 800283e:	2d07      	cmp	r5, #7
 8002840:	9429      	str	r4, [sp, #164]	; 0xa4
 8002842:	9528      	str	r5, [sp, #160]	; 0xa0
 8002844:	f10a 0a08 	add.w	sl, sl, #8
 8002848:	f300 82fe 	bgt.w	8002e48 <_vfprintf_r+0x13e8>
 800284c:	991b      	ldr	r1, [sp, #108]	; 0x6c
 800284e:	3501      	adds	r5, #1
 8002850:	1864      	adds	r4, r4, r1
 8002852:	a823      	add	r0, sp, #140	; 0x8c
 8002854:	2d07      	cmp	r5, #7
 8002856:	f8ca 0000 	str.w	r0, [sl]
 800285a:	f8ca 1004 	str.w	r1, [sl, #4]
 800285e:	f10a 0a08 	add.w	sl, sl, #8
 8002862:	9429      	str	r4, [sp, #164]	; 0xa4
 8002864:	9528      	str	r5, [sp, #160]	; 0xa0
 8002866:	f77f adcb 	ble.w	8002400 <_vfprintf_r+0x9a0>
 800286a:	980c      	ldr	r0, [sp, #48]	; 0x30
 800286c:	990b      	ldr	r1, [sp, #44]	; 0x2c
 800286e:	aa27      	add	r2, sp, #156	; 0x9c
 8002870:	f004 fb9e 	bl	8006fb0 <__sprint_r>
 8002874:	2800      	cmp	r0, #0
 8002876:	f47f aa00 	bne.w	8001c7a <_vfprintf_r+0x21a>
 800287a:	f10d 0ad0 	add.w	sl, sp, #208	; 0xd0
 800287e:	9c29      	ldr	r4, [sp, #164]	; 0xa4
 8002880:	e5be      	b.n	8002400 <_vfprintf_r+0x9a0>
 8002882:	980c      	ldr	r0, [sp, #48]	; 0x30
 8002884:	990b      	ldr	r1, [sp, #44]	; 0x2c
 8002886:	aa27      	add	r2, sp, #156	; 0x9c
 8002888:	f004 fb92 	bl	8006fb0 <__sprint_r>
 800288c:	2800      	cmp	r0, #0
 800288e:	f43f ae42 	beq.w	8002516 <_vfprintf_r+0xab6>
 8002892:	f7ff b9f2 	b.w	8001c7a <_vfprintf_r+0x21a>
 8002896:	980c      	ldr	r0, [sp, #48]	; 0x30
 8002898:	990b      	ldr	r1, [sp, #44]	; 0x2c
 800289a:	aa27      	add	r2, sp, #156	; 0x9c
 800289c:	9307      	str	r3, [sp, #28]
 800289e:	f004 fb87 	bl	8006fb0 <__sprint_r>
 80028a2:	9b07      	ldr	r3, [sp, #28]
 80028a4:	2800      	cmp	r0, #0
 80028a6:	f47f a9e8 	bne.w	8001c7a <_vfprintf_r+0x21a>
 80028aa:	9c29      	ldr	r4, [sp, #164]	; 0xa4
 80028ac:	9828      	ldr	r0, [sp, #160]	; 0xa0
 80028ae:	f10d 0ad0 	add.w	sl, sp, #208	; 0xd0
 80028b2:	e4ff      	b.n	80022b4 <_vfprintf_r+0x854>
 80028b4:	980c      	ldr	r0, [sp, #48]	; 0x30
 80028b6:	990b      	ldr	r1, [sp, #44]	; 0x2c
 80028b8:	aa27      	add	r2, sp, #156	; 0x9c
 80028ba:	f004 fb79 	bl	8006fb0 <__sprint_r>
 80028be:	2800      	cmp	r0, #0
 80028c0:	f47f a9db 	bne.w	8001c7a <_vfprintf_r+0x21a>
 80028c4:	9c29      	ldr	r4, [sp, #164]	; 0xa4
 80028c6:	9828      	ldr	r0, [sp, #160]	; 0xa0
 80028c8:	f10d 0ad0 	add.w	sl, sp, #208	; 0xd0
 80028cc:	e503      	b.n	80022d6 <_vfprintf_r+0x876>
 80028ce:	980c      	ldr	r0, [sp, #48]	; 0x30
 80028d0:	990b      	ldr	r1, [sp, #44]	; 0x2c
 80028d2:	aa27      	add	r2, sp, #156	; 0x9c
 80028d4:	f004 fb6c 	bl	8006fb0 <__sprint_r>
 80028d8:	2800      	cmp	r0, #0
 80028da:	f47f a9ce 	bne.w	8001c7a <_vfprintf_r+0x21a>
 80028de:	9c29      	ldr	r4, [sp, #164]	; 0xa4
 80028e0:	f10d 0ad0 	add.w	sl, sp, #208	; 0xd0
 80028e4:	e4c6      	b.n	8002274 <_vfprintf_r+0x814>
 80028e6:	981a      	ldr	r0, [sp, #104]	; 0x68
 80028e8:	f10d 01cf 	add.w	r1, sp, #207	; 0xcf
 80028ec:	260f      	movs	r6, #15
 80028ee:	2700      	movs	r7, #0
 80028f0:	ea04 0306 	and.w	r3, r4, r6
 80028f4:	ea4f 1b14 	mov.w	fp, r4, lsr #4
 80028f8:	092a      	lsrs	r2, r5, #4
 80028fa:	18c3      	adds	r3, r0, r3
 80028fc:	ea4b 7405 	orr.w	r4, fp, r5, lsl #28
 8002900:	781b      	ldrb	r3, [r3, #0]
 8002902:	4615      	mov	r5, r2
 8002904:	ea54 0205 	orrs.w	r2, r4, r5
 8002908:	468b      	mov	fp, r1
 800290a:	700b      	strb	r3, [r1, #0]
 800290c:	f101 31ff 	add.w	r1, r1, #4294967295	; 0xffffffff
 8002910:	d1ee      	bne.n	80028f0 <_vfprintf_r+0xe90>
 8002912:	f7ff bae9 	b.w	8001ee8 <_vfprintf_r+0x488>
 8002916:	2d00      	cmp	r5, #0
 8002918:	bf08      	it	eq
 800291a:	2c0a      	cmpeq	r4, #10
 800291c:	f080 8175 	bcs.w	8002c0a <_vfprintf_r+0x11aa>
 8002920:	f50d 7b88 	add.w	fp, sp, #272	; 0x110
 8002924:	3430      	adds	r4, #48	; 0x30
 8002926:	f80b 4d41 	strb.w	r4, [fp, #-65]!
 800292a:	9a08      	ldr	r2, [sp, #32]
 800292c:	ebcb 0302 	rsb	r3, fp, r2
 8002930:	9310      	str	r3, [sp, #64]	; 0x40
 8002932:	f7ff badd 	b.w	8001ef0 <_vfprintf_r+0x490>
 8002936:	f8cd c040 	str.w	ip, [sp, #64]	; 0x40
 800293a:	f10d 0bd0 	add.w	fp, sp, #208	; 0xd0
 800293e:	f7ff bad7 	b.w	8001ef0 <_vfprintf_r+0x490>
 8002942:	2302      	movs	r3, #2
 8002944:	f7ff baf5 	b.w	8001f32 <_vfprintf_r+0x4d2>
 8002948:	4638      	mov	r0, r7
 800294a:	4659      	mov	r1, fp
 800294c:	aa27      	add	r2, sp, #156	; 0x9c
 800294e:	f004 fb2f 	bl	8006fb0 <__sprint_r>
 8002952:	2800      	cmp	r0, #0
 8002954:	f47f a991 	bne.w	8001c7a <_vfprintf_r+0x21a>
 8002958:	9b29      	ldr	r3, [sp, #164]	; 0xa4
 800295a:	9828      	ldr	r0, [sp, #160]	; 0xa0
 800295c:	f10d 0ad0 	add.w	sl, sp, #208	; 0xd0
 8002960:	e68e      	b.n	8002680 <_vfprintf_r+0xc20>
 8002962:	980c      	ldr	r0, [sp, #48]	; 0x30
 8002964:	990b      	ldr	r1, [sp, #44]	; 0x2c
 8002966:	aa27      	add	r2, sp, #156	; 0x9c
 8002968:	f8cd c01c 	str.w	ip, [sp, #28]
 800296c:	f004 fb20 	bl	8006fb0 <__sprint_r>
 8002970:	f8dd c01c 	ldr.w	ip, [sp, #28]
 8002974:	2800      	cmp	r0, #0
 8002976:	f47f a980 	bne.w	8001c7a <_vfprintf_r+0x21a>
 800297a:	9a29      	ldr	r2, [sp, #164]	; 0xa4
 800297c:	9b28      	ldr	r3, [sp, #160]	; 0xa0
 800297e:	f10d 0ad0 	add.w	sl, sp, #208	; 0xd0
 8002982:	f7ff ba26 	b.w	8001dd2 <_vfprintf_r+0x372>
 8002986:	980c      	ldr	r0, [sp, #48]	; 0x30
 8002988:	990b      	ldr	r1, [sp, #44]	; 0x2c
 800298a:	aa27      	add	r2, sp, #156	; 0x9c
 800298c:	f004 fb10 	bl	8006fb0 <__sprint_r>
 8002990:	2800      	cmp	r0, #0
 8002992:	f47f a972 	bne.w	8001c7a <_vfprintf_r+0x21a>
 8002996:	9a29      	ldr	r2, [sp, #164]	; 0xa4
 8002998:	9b28      	ldr	r3, [sp, #160]	; 0xa0
 800299a:	f10d 0ad0 	add.w	sl, sp, #208	; 0xd0
 800299e:	f7ff ba2e 	b.w	8001dfe <_vfprintf_r+0x39e>
 80029a2:	9e20      	ldr	r6, [sp, #128]	; 0x80
 80029a4:	2e00      	cmp	r6, #0
 80029a6:	f340 835e 	ble.w	8003066 <_vfprintf_r+0x1606>
 80029aa:	9d12      	ldr	r5, [sp, #72]	; 0x48
 80029ac:	9b15      	ldr	r3, [sp, #84]	; 0x54
 80029ae:	9a12      	ldr	r2, [sp, #72]	; 0x48
 80029b0:	429d      	cmp	r5, r3
 80029b2:	bfa8      	it	ge
 80029b4:	461d      	movge	r5, r3
 80029b6:	2d00      	cmp	r5, #0
 80029b8:	eb0b 0802 	add.w	r8, fp, r2
 80029bc:	dd0d      	ble.n	80029da <_vfprintf_r+0xf7a>
 80029be:	9928      	ldr	r1, [sp, #160]	; 0xa0
 80029c0:	1964      	adds	r4, r4, r5
 80029c2:	1c48      	adds	r0, r1, #1
 80029c4:	2807      	cmp	r0, #7
 80029c6:	f8ca b000 	str.w	fp, [sl]
 80029ca:	f8ca 5004 	str.w	r5, [sl, #4]
 80029ce:	9429      	str	r4, [sp, #164]	; 0xa4
 80029d0:	9028      	str	r0, [sp, #160]	; 0xa0
 80029d2:	f10a 0a08 	add.w	sl, sl, #8
 80029d6:	f300 84a9 	bgt.w	800332c <_vfprintf_r+0x18cc>
 80029da:	9b15      	ldr	r3, [sp, #84]	; 0x54
 80029dc:	ea25 75e5 	bic.w	r5, r5, r5, asr #31
 80029e0:	1b5d      	subs	r5, r3, r5
 80029e2:	2d00      	cmp	r5, #0
 80029e4:	f340 8159 	ble.w	8002c9a <_vfprintf_r+0x123a>
 80029e8:	2d10      	cmp	r5, #16
 80029ea:	f340 813d 	ble.w	8002c68 <_vfprintf_r+0x1208>
 80029ee:	9928      	ldr	r1, [sp, #160]	; 0xa0
 80029f0:	2610      	movs	r6, #16
 80029f2:	1c4b      	adds	r3, r1, #1
 80029f4:	489b      	ldr	r0, [pc, #620]	; (8002c64 <_vfprintf_r+0x1204>)
 80029f6:	f1a5 0711 	sub.w	r7, r5, #17
 80029fa:	19a4      	adds	r4, r4, r6
 80029fc:	2b07      	cmp	r3, #7
 80029fe:	f8ca 9000 	str.w	r9, [sl]
 8002a02:	f8ca 6004 	str.w	r6, [sl, #4]
 8002a06:	9010      	str	r0, [sp, #64]	; 0x40
 8002a08:	9429      	str	r4, [sp, #164]	; 0xa4
 8002a0a:	9328      	str	r3, [sp, #160]	; 0xa0
 8002a0c:	f3c7 1700 	ubfx	r7, r7, #4, #1
 8002a10:	f10a 0a08 	add.w	sl, sl, #8
 8002a14:	f300 8472 	bgt.w	80032fc <_vfprintf_r+0x189c>
 8002a18:	3d10      	subs	r5, #16
 8002a1a:	2d10      	cmp	r5, #16
 8002a1c:	f340 8127 	ble.w	8002c6e <_vfprintf_r+0x120e>
 8002a20:	b187      	cbz	r7, 8002a44 <_vfprintf_r+0xfe4>
 8002a22:	3301      	adds	r3, #1
 8002a24:	3410      	adds	r4, #16
 8002a26:	2b07      	cmp	r3, #7
 8002a28:	f8ca 9000 	str.w	r9, [sl]
 8002a2c:	f8ca 6004 	str.w	r6, [sl, #4]
 8002a30:	9429      	str	r4, [sp, #164]	; 0xa4
 8002a32:	9328      	str	r3, [sp, #160]	; 0xa0
 8002a34:	f10a 0a08 	add.w	sl, sl, #8
 8002a38:	f300 8485 	bgt.w	8003346 <_vfprintf_r+0x18e6>
 8002a3c:	3d10      	subs	r5, #16
 8002a3e:	2d10      	cmp	r5, #16
 8002a40:	f340 8115 	ble.w	8002c6e <_vfprintf_r+0x120e>
 8002a44:	4621      	mov	r1, r4
 8002a46:	4652      	mov	r2, sl
 8002a48:	9f0c      	ldr	r7, [sp, #48]	; 0x30
 8002a4a:	9c0b      	ldr	r4, [sp, #44]	; 0x2c
 8002a4c:	e00d      	b.n	8002a6a <_vfprintf_r+0x100a>
 8002a4e:	3301      	adds	r3, #1
 8002a50:	f8c2 9000 	str.w	r9, [r2]
 8002a54:	6056      	str	r6, [r2, #4]
 8002a56:	3110      	adds	r1, #16
 8002a58:	3208      	adds	r2, #8
 8002a5a:	2b07      	cmp	r3, #7
 8002a5c:	9328      	str	r3, [sp, #160]	; 0xa0
 8002a5e:	9129      	str	r1, [sp, #164]	; 0xa4
 8002a60:	dc1b      	bgt.n	8002a9a <_vfprintf_r+0x103a>
 8002a62:	3d10      	subs	r5, #16
 8002a64:	2d10      	cmp	r5, #16
 8002a66:	f340 8423 	ble.w	80032b0 <_vfprintf_r+0x1850>
 8002a6a:	3301      	adds	r3, #1
 8002a6c:	f8c2 9000 	str.w	r9, [r2]
 8002a70:	6056      	str	r6, [r2, #4]
 8002a72:	3110      	adds	r1, #16
 8002a74:	3208      	adds	r2, #8
 8002a76:	2b07      	cmp	r3, #7
 8002a78:	9129      	str	r1, [sp, #164]	; 0xa4
 8002a7a:	9328      	str	r3, [sp, #160]	; 0xa0
 8002a7c:	f1a5 0510 	sub.w	r5, r5, #16
 8002a80:	dde5      	ble.n	8002a4e <_vfprintf_r+0xfee>
 8002a82:	4638      	mov	r0, r7
 8002a84:	4621      	mov	r1, r4
 8002a86:	aa27      	add	r2, sp, #156	; 0x9c
 8002a88:	f004 fa92 	bl	8006fb0 <__sprint_r>
 8002a8c:	2800      	cmp	r0, #0
 8002a8e:	f47f a8f4 	bne.w	8001c7a <_vfprintf_r+0x21a>
 8002a92:	9929      	ldr	r1, [sp, #164]	; 0xa4
 8002a94:	9b28      	ldr	r3, [sp, #160]	; 0xa0
 8002a96:	aa34      	add	r2, sp, #208	; 0xd0
 8002a98:	e7d9      	b.n	8002a4e <_vfprintf_r+0xfee>
 8002a9a:	4638      	mov	r0, r7
 8002a9c:	4621      	mov	r1, r4
 8002a9e:	aa27      	add	r2, sp, #156	; 0x9c
 8002aa0:	f004 fa86 	bl	8006fb0 <__sprint_r>
 8002aa4:	2800      	cmp	r0, #0
 8002aa6:	f47f a8e8 	bne.w	8001c7a <_vfprintf_r+0x21a>
 8002aaa:	9929      	ldr	r1, [sp, #164]	; 0xa4
 8002aac:	9b28      	ldr	r3, [sp, #160]	; 0xa0
 8002aae:	aa34      	add	r2, sp, #208	; 0xd0
 8002ab0:	e7d7      	b.n	8002a62 <_vfprintf_r+0x1002>
 8002ab2:	9d11      	ldr	r5, [sp, #68]	; 0x44
 8002ab4:	682b      	ldr	r3, [r5, #0]
 8002ab6:	1d2a      	adds	r2, r5, #4
 8002ab8:	17dd      	asrs	r5, r3, #31
 8002aba:	9211      	str	r2, [sp, #68]	; 0x44
 8002abc:	461c      	mov	r4, r3
 8002abe:	461a      	mov	r2, r3
 8002ac0:	462b      	mov	r3, r5
 8002ac2:	f7ff b9f0 	b.w	8001ea6 <_vfprintf_r+0x446>
 8002ac6:	9e12      	ldr	r6, [sp, #72]	; 0x48
 8002ac8:	3e01      	subs	r6, #1
 8002aca:	2e00      	cmp	r6, #0
 8002acc:	f77f aebe 	ble.w	800284c <_vfprintf_r+0xdec>
 8002ad0:	2e10      	cmp	r6, #16
 8002ad2:	f340 81d3 	ble.w	8002e7c <_vfprintf_r+0x141c>
 8002ad6:	9812      	ldr	r0, [sp, #72]	; 0x48
 8002ad8:	2710      	movs	r7, #16
 8002ada:	3501      	adds	r5, #1
 8002adc:	f1a0 0812 	sub.w	r8, r0, #18
 8002ae0:	19e4      	adds	r4, r4, r7
 8002ae2:	2d07      	cmp	r5, #7
 8002ae4:	f8ca 9000 	str.w	r9, [sl]
 8002ae8:	f8ca 7004 	str.w	r7, [sl, #4]
 8002aec:	f8df b174 	ldr.w	fp, [pc, #372]	; 8002c64 <_vfprintf_r+0x1204>
 8002af0:	9429      	str	r4, [sp, #164]	; 0xa4
 8002af2:	9528      	str	r5, [sp, #160]	; 0xa0
 8002af4:	f3c8 1800 	ubfx	r8, r8, #4, #1
 8002af8:	f10a 0a08 	add.w	sl, sl, #8
 8002afc:	f300 83cb 	bgt.w	8003296 <_vfprintf_r+0x1836>
 8002b00:	3e10      	subs	r6, #16
 8002b02:	2e10      	cmp	r6, #16
 8002b04:	f340 81bc 	ble.w	8002e80 <_vfprintf_r+0x1420>
 8002b08:	f1b8 0f00 	cmp.w	r8, #0
 8002b0c:	d010      	beq.n	8002b30 <_vfprintf_r+0x10d0>
 8002b0e:	3501      	adds	r5, #1
 8002b10:	3410      	adds	r4, #16
 8002b12:	2d07      	cmp	r5, #7
 8002b14:	f8ca 9000 	str.w	r9, [sl]
 8002b18:	f8ca 7004 	str.w	r7, [sl, #4]
 8002b1c:	9429      	str	r4, [sp, #164]	; 0xa4
 8002b1e:	9528      	str	r5, [sp, #160]	; 0xa0
 8002b20:	f10a 0a08 	add.w	sl, sl, #8
 8002b24:	f300 83cf 	bgt.w	80032c6 <_vfprintf_r+0x1866>
 8002b28:	3e10      	subs	r6, #16
 8002b2a:	2e10      	cmp	r6, #16
 8002b2c:	f340 81a8 	ble.w	8002e80 <_vfprintf_r+0x1420>
 8002b30:	4623      	mov	r3, r4
 8002b32:	f8dd 8030 	ldr.w	r8, [sp, #48]	; 0x30
 8002b36:	9c0b      	ldr	r4, [sp, #44]	; 0x2c
 8002b38:	e00f      	b.n	8002b5a <_vfprintf_r+0x10fa>
 8002b3a:	3501      	adds	r5, #1
 8002b3c:	3310      	adds	r3, #16
 8002b3e:	2d07      	cmp	r5, #7
 8002b40:	f8ca 9000 	str.w	r9, [sl]
 8002b44:	f8ca 7004 	str.w	r7, [sl, #4]
 8002b48:	f10a 0a08 	add.w	sl, sl, #8
 8002b4c:	9329      	str	r3, [sp, #164]	; 0xa4
 8002b4e:	9528      	str	r5, [sp, #160]	; 0xa0
 8002b50:	dc1e      	bgt.n	8002b90 <_vfprintf_r+0x1130>
 8002b52:	3e10      	subs	r6, #16
 8002b54:	2e10      	cmp	r6, #16
 8002b56:	f340 8364 	ble.w	8003222 <_vfprintf_r+0x17c2>
 8002b5a:	3501      	adds	r5, #1
 8002b5c:	3310      	adds	r3, #16
 8002b5e:	2d07      	cmp	r5, #7
 8002b60:	f8ca 9000 	str.w	r9, [sl]
 8002b64:	f8ca 7004 	str.w	r7, [sl, #4]
 8002b68:	f1a6 0610 	sub.w	r6, r6, #16
 8002b6c:	f10a 0a08 	add.w	sl, sl, #8
 8002b70:	9329      	str	r3, [sp, #164]	; 0xa4
 8002b72:	9528      	str	r5, [sp, #160]	; 0xa0
 8002b74:	dde1      	ble.n	8002b3a <_vfprintf_r+0x10da>
 8002b76:	4640      	mov	r0, r8
 8002b78:	4621      	mov	r1, r4
 8002b7a:	aa27      	add	r2, sp, #156	; 0x9c
 8002b7c:	f004 fa18 	bl	8006fb0 <__sprint_r>
 8002b80:	2800      	cmp	r0, #0
 8002b82:	f47f a87a 	bne.w	8001c7a <_vfprintf_r+0x21a>
 8002b86:	9b29      	ldr	r3, [sp, #164]	; 0xa4
 8002b88:	9d28      	ldr	r5, [sp, #160]	; 0xa0
 8002b8a:	f10d 0ad0 	add.w	sl, sp, #208	; 0xd0
 8002b8e:	e7d4      	b.n	8002b3a <_vfprintf_r+0x10da>
 8002b90:	4640      	mov	r0, r8
 8002b92:	4621      	mov	r1, r4
 8002b94:	aa27      	add	r2, sp, #156	; 0x9c
 8002b96:	f004 fa0b 	bl	8006fb0 <__sprint_r>
 8002b9a:	2800      	cmp	r0, #0
 8002b9c:	f47f a86d 	bne.w	8001c7a <_vfprintf_r+0x21a>
 8002ba0:	9b29      	ldr	r3, [sp, #164]	; 0xa4
 8002ba2:	9d28      	ldr	r5, [sp, #160]	; 0xa0
 8002ba4:	f10d 0ad0 	add.w	sl, sp, #208	; 0xd0
 8002ba8:	e7d3      	b.n	8002b52 <_vfprintf_r+0x10f2>
 8002baa:	9c11      	ldr	r4, [sp, #68]	; 0x44
 8002bac:	6825      	ldr	r5, [r4, #0]
 8002bae:	1d23      	adds	r3, r4, #4
 8002bb0:	9311      	str	r3, [sp, #68]	; 0x44
 8002bb2:	462c      	mov	r4, r5
 8002bb4:	2301      	movs	r3, #1
 8002bb6:	2500      	movs	r5, #0
 8002bb8:	f7ff b9bb 	b.w	8001f32 <_vfprintf_r+0x4d2>
 8002bbc:	9c11      	ldr	r4, [sp, #68]	; 0x44
 8002bbe:	6825      	ldr	r5, [r4, #0]
 8002bc0:	1d22      	adds	r2, r4, #4
 8002bc2:	9211      	str	r2, [sp, #68]	; 0x44
 8002bc4:	462c      	mov	r4, r5
 8002bc6:	2500      	movs	r5, #0
 8002bc8:	f7ff b9b3 	b.w	8001f32 <_vfprintf_r+0x4d2>
 8002bcc:	9c11      	ldr	r4, [sp, #68]	; 0x44
 8002bce:	6826      	ldr	r6, [r4, #0]
 8002bd0:	1d25      	adds	r5, r4, #4
 8002bd2:	9511      	str	r5, [sp, #68]	; 0x44
 8002bd4:	4634      	mov	r4, r6
 8002bd6:	2500      	movs	r5, #0
 8002bd8:	f7ff b9d5 	b.w	8001f86 <_vfprintf_r+0x526>
 8002bdc:	9828      	ldr	r0, [sp, #160]	; 0xa0
 8002bde:	f8df 8084 	ldr.w	r8, [pc, #132]	; 8002c64 <_vfprintf_r+0x1204>
 8002be2:	1964      	adds	r4, r4, r5
 8002be4:	1c42      	adds	r2, r0, #1
 8002be6:	f8ca 8000 	str.w	r8, [sl]
 8002bea:	f8ca 5004 	str.w	r5, [sl, #4]
 8002bee:	e400      	b.n	80023f2 <_vfprintf_r+0x992>
 8002bf0:	980c      	ldr	r0, [sp, #48]	; 0x30
 8002bf2:	990b      	ldr	r1, [sp, #44]	; 0x2c
 8002bf4:	aa27      	add	r2, sp, #156	; 0x9c
 8002bf6:	f004 f9db 	bl	8006fb0 <__sprint_r>
 8002bfa:	2800      	cmp	r0, #0
 8002bfc:	f47f a83d 	bne.w	8001c7a <_vfprintf_r+0x21a>
 8002c00:	9c29      	ldr	r4, [sp, #164]	; 0xa4
 8002c02:	9b28      	ldr	r3, [sp, #160]	; 0xa0
 8002c04:	f10d 0ad0 	add.w	sl, sp, #208	; 0xd0
 8002c08:	e41a      	b.n	8002440 <_vfprintf_r+0x9e0>
 8002c0a:	f10d 06cf 	add.w	r6, sp, #207	; 0xcf
 8002c0e:	4667      	mov	r7, ip
 8002c10:	4620      	mov	r0, r4
 8002c12:	4629      	mov	r1, r5
 8002c14:	220a      	movs	r2, #10
 8002c16:	2300      	movs	r3, #0
 8002c18:	f7fd ff60 	bl	8000adc <__aeabi_uldivmod>
 8002c1c:	3230      	adds	r2, #48	; 0x30
 8002c1e:	7032      	strb	r2, [r6, #0]
 8002c20:	4620      	mov	r0, r4
 8002c22:	4629      	mov	r1, r5
 8002c24:	220a      	movs	r2, #10
 8002c26:	2300      	movs	r3, #0
 8002c28:	f7fd ff58 	bl	8000adc <__aeabi_uldivmod>
 8002c2c:	4604      	mov	r4, r0
 8002c2e:	460d      	mov	r5, r1
 8002c30:	ea54 0005 	orrs.w	r0, r4, r5
 8002c34:	46b3      	mov	fp, r6
 8002c36:	f106 36ff 	add.w	r6, r6, #4294967295	; 0xffffffff
 8002c3a:	d1e9      	bne.n	8002c10 <_vfprintf_r+0x11b0>
 8002c3c:	9808      	ldr	r0, [sp, #32]
 8002c3e:	46bc      	mov	ip, r7
 8002c40:	ebcb 0400 	rsb	r4, fp, r0
 8002c44:	9410      	str	r4, [sp, #64]	; 0x40
 8002c46:	f7ff b953 	b.w	8001ef0 <_vfprintf_r+0x490>
 8002c4a:	980c      	ldr	r0, [sp, #48]	; 0x30
 8002c4c:	990b      	ldr	r1, [sp, #44]	; 0x2c
 8002c4e:	aa27      	add	r2, sp, #156	; 0x9c
 8002c50:	f004 f9ae 	bl	8006fb0 <__sprint_r>
 8002c54:	2800      	cmp	r0, #0
 8002c56:	f47f a810 	bne.w	8001c7a <_vfprintf_r+0x21a>
 8002c5a:	9c29      	ldr	r4, [sp, #164]	; 0xa4
 8002c5c:	9b28      	ldr	r3, [sp, #160]	; 0xa0
 8002c5e:	f10d 0ad0 	add.w	sl, sp, #208	; 0xd0
 8002c62:	e402      	b.n	800246a <_vfprintf_r+0xa0a>
 8002c64:	08007640 	.word	0x08007640
 8002c68:	4a94      	ldr	r2, [pc, #592]	; (8002ebc <_vfprintf_r+0x145c>)
 8002c6a:	9b28      	ldr	r3, [sp, #160]	; 0xa0
 8002c6c:	9210      	str	r2, [sp, #64]	; 0x40
 8002c6e:	1c58      	adds	r0, r3, #1
 8002c70:	9a10      	ldr	r2, [sp, #64]	; 0x40
 8002c72:	1964      	adds	r4, r4, r5
 8002c74:	2807      	cmp	r0, #7
 8002c76:	e88a 0024 	stmia.w	sl, {r2, r5}
 8002c7a:	9429      	str	r4, [sp, #164]	; 0xa4
 8002c7c:	9028      	str	r0, [sp, #160]	; 0xa0
 8002c7e:	f10a 0a08 	add.w	sl, sl, #8
 8002c82:	dd0a      	ble.n	8002c9a <_vfprintf_r+0x123a>
 8002c84:	980c      	ldr	r0, [sp, #48]	; 0x30
 8002c86:	990b      	ldr	r1, [sp, #44]	; 0x2c
 8002c88:	aa27      	add	r2, sp, #156	; 0x9c
 8002c8a:	f004 f991 	bl	8006fb0 <__sprint_r>
 8002c8e:	2800      	cmp	r0, #0
 8002c90:	f47e aff3 	bne.w	8001c7a <_vfprintf_r+0x21a>
 8002c94:	9c29      	ldr	r4, [sp, #164]	; 0xa4
 8002c96:	f10d 0ad0 	add.w	sl, sp, #208	; 0xd0
 8002c9a:	9b20      	ldr	r3, [sp, #128]	; 0x80
 8002c9c:	9912      	ldr	r1, [sp, #72]	; 0x48
 8002c9e:	9f15      	ldr	r7, [sp, #84]	; 0x54
 8002ca0:	428b      	cmp	r3, r1
 8002ca2:	445f      	add	r7, fp
 8002ca4:	db7c      	blt.n	8002da0 <_vfprintf_r+0x1340>
 8002ca6:	9a09      	ldr	r2, [sp, #36]	; 0x24
 8002ca8:	07d1      	lsls	r1, r2, #31
 8002caa:	d479      	bmi.n	8002da0 <_vfprintf_r+0x1340>
 8002cac:	9812      	ldr	r0, [sp, #72]	; 0x48
 8002cae:	ebc7 0608 	rsb	r6, r7, r8
 8002cb2:	1ac0      	subs	r0, r0, r3
 8002cb4:	42b0      	cmp	r0, r6
 8002cb6:	bfb8      	it	lt
 8002cb8:	4606      	movlt	r6, r0
 8002cba:	2e00      	cmp	r6, #0
 8002cbc:	dd0d      	ble.n	8002cda <_vfprintf_r+0x127a>
 8002cbe:	9a28      	ldr	r2, [sp, #160]	; 0xa0
 8002cc0:	19a4      	adds	r4, r4, r6
 8002cc2:	1c51      	adds	r1, r2, #1
 8002cc4:	2907      	cmp	r1, #7
 8002cc6:	f8ca 7000 	str.w	r7, [sl]
 8002cca:	f8ca 6004 	str.w	r6, [sl, #4]
 8002cce:	9429      	str	r4, [sp, #164]	; 0xa4
 8002cd0:	9128      	str	r1, [sp, #160]	; 0xa0
 8002cd2:	f10a 0a08 	add.w	sl, sl, #8
 8002cd6:	f300 8352 	bgt.w	800337e <_vfprintf_r+0x191e>
 8002cda:	ea26 72e6 	bic.w	r2, r6, r6, asr #31
 8002cde:	1a85      	subs	r5, r0, r2
 8002ce0:	2d00      	cmp	r5, #0
 8002ce2:	f77f ab8d 	ble.w	8002400 <_vfprintf_r+0x9a0>
 8002ce6:	2d10      	cmp	r5, #16
 8002ce8:	f77f af78 	ble.w	8002bdc <_vfprintf_r+0x117c>
 8002cec:	9928      	ldr	r1, [sp, #160]	; 0xa0
 8002cee:	2610      	movs	r6, #16
 8002cf0:	1c48      	adds	r0, r1, #1
 8002cf2:	f1a5 0711 	sub.w	r7, r5, #17
 8002cf6:	19a4      	adds	r4, r4, r6
 8002cf8:	2807      	cmp	r0, #7
 8002cfa:	f8ca 9000 	str.w	r9, [sl]
 8002cfe:	f8ca 6004 	str.w	r6, [sl, #4]
 8002d02:	f8df 81b8 	ldr.w	r8, [pc, #440]	; 8002ebc <_vfprintf_r+0x145c>
 8002d06:	9429      	str	r4, [sp, #164]	; 0xa4
 8002d08:	9028      	str	r0, [sp, #160]	; 0xa0
 8002d0a:	f3c7 1700 	ubfx	r7, r7, #4, #1
 8002d0e:	f10a 0a08 	add.w	sl, sl, #8
 8002d12:	f300 8343 	bgt.w	800339c <_vfprintf_r+0x193c>
 8002d16:	3d10      	subs	r5, #16
 8002d18:	2d10      	cmp	r5, #16
 8002d1a:	f77f af62 	ble.w	8002be2 <_vfprintf_r+0x1182>
 8002d1e:	b187      	cbz	r7, 8002d42 <_vfprintf_r+0x12e2>
 8002d20:	3001      	adds	r0, #1
 8002d22:	3410      	adds	r4, #16
 8002d24:	2807      	cmp	r0, #7
 8002d26:	f8ca 9000 	str.w	r9, [sl]
 8002d2a:	f8ca 6004 	str.w	r6, [sl, #4]
 8002d2e:	9429      	str	r4, [sp, #164]	; 0xa4
 8002d30:	9028      	str	r0, [sp, #160]	; 0xa0
 8002d32:	f10a 0a08 	add.w	sl, sl, #8
 8002d36:	f300 83c9 	bgt.w	80034cc <_vfprintf_r+0x1a6c>
 8002d3a:	3d10      	subs	r5, #16
 8002d3c:	2d10      	cmp	r5, #16
 8002d3e:	f77f af50 	ble.w	8002be2 <_vfprintf_r+0x1182>
 8002d42:	9f0c      	ldr	r7, [sp, #48]	; 0x30
 8002d44:	f8dd b02c 	ldr.w	fp, [sp, #44]	; 0x2c
 8002d48:	e00f      	b.n	8002d6a <_vfprintf_r+0x130a>
 8002d4a:	1c58      	adds	r0, r3, #1
 8002d4c:	3410      	adds	r4, #16
 8002d4e:	2807      	cmp	r0, #7
 8002d50:	f8ca 9000 	str.w	r9, [sl]
 8002d54:	f8ca 6004 	str.w	r6, [sl, #4]
 8002d58:	f10a 0a08 	add.w	sl, sl, #8
 8002d5c:	9028      	str	r0, [sp, #160]	; 0xa0
 8002d5e:	9429      	str	r4, [sp, #164]	; 0xa4
 8002d60:	dc3b      	bgt.n	8002dda <_vfprintf_r+0x137a>
 8002d62:	3d10      	subs	r5, #16
 8002d64:	2d10      	cmp	r5, #16
 8002d66:	f77f af3c 	ble.w	8002be2 <_vfprintf_r+0x1182>
 8002d6a:	1c43      	adds	r3, r0, #1
 8002d6c:	3410      	adds	r4, #16
 8002d6e:	2b07      	cmp	r3, #7
 8002d70:	f8ca 9000 	str.w	r9, [sl]
 8002d74:	f8ca 6004 	str.w	r6, [sl, #4]
 8002d78:	f1a5 0510 	sub.w	r5, r5, #16
 8002d7c:	f10a 0a08 	add.w	sl, sl, #8
 8002d80:	9429      	str	r4, [sp, #164]	; 0xa4
 8002d82:	9328      	str	r3, [sp, #160]	; 0xa0
 8002d84:	dde1      	ble.n	8002d4a <_vfprintf_r+0x12ea>
 8002d86:	4638      	mov	r0, r7
 8002d88:	4659      	mov	r1, fp
 8002d8a:	aa27      	add	r2, sp, #156	; 0x9c
 8002d8c:	f004 f910 	bl	8006fb0 <__sprint_r>
 8002d90:	2800      	cmp	r0, #0
 8002d92:	f47e af72 	bne.w	8001c7a <_vfprintf_r+0x21a>
 8002d96:	9c29      	ldr	r4, [sp, #164]	; 0xa4
 8002d98:	9b28      	ldr	r3, [sp, #160]	; 0xa0
 8002d9a:	f10d 0ad0 	add.w	sl, sp, #208	; 0xd0
 8002d9e:	e7d4      	b.n	8002d4a <_vfprintf_r+0x12ea>
 8002da0:	9928      	ldr	r1, [sp, #160]	; 0xa0
 8002da2:	9816      	ldr	r0, [sp, #88]	; 0x58
 8002da4:	1c4a      	adds	r2, r1, #1
 8002da6:	9914      	ldr	r1, [sp, #80]	; 0x50
 8002da8:	1824      	adds	r4, r4, r0
 8002daa:	2a07      	cmp	r2, #7
 8002dac:	f8ca 1000 	str.w	r1, [sl]
 8002db0:	f8ca 0004 	str.w	r0, [sl, #4]
 8002db4:	9429      	str	r4, [sp, #164]	; 0xa4
 8002db6:	9228      	str	r2, [sp, #160]	; 0xa0
 8002db8:	f10a 0a08 	add.w	sl, sl, #8
 8002dbc:	f77f af76 	ble.w	8002cac <_vfprintf_r+0x124c>
 8002dc0:	980c      	ldr	r0, [sp, #48]	; 0x30
 8002dc2:	990b      	ldr	r1, [sp, #44]	; 0x2c
 8002dc4:	aa27      	add	r2, sp, #156	; 0x9c
 8002dc6:	f004 f8f3 	bl	8006fb0 <__sprint_r>
 8002dca:	2800      	cmp	r0, #0
 8002dcc:	f47e af55 	bne.w	8001c7a <_vfprintf_r+0x21a>
 8002dd0:	9b20      	ldr	r3, [sp, #128]	; 0x80
 8002dd2:	9c29      	ldr	r4, [sp, #164]	; 0xa4
 8002dd4:	f10d 0ad0 	add.w	sl, sp, #208	; 0xd0
 8002dd8:	e768      	b.n	8002cac <_vfprintf_r+0x124c>
 8002dda:	4638      	mov	r0, r7
 8002ddc:	4659      	mov	r1, fp
 8002dde:	aa27      	add	r2, sp, #156	; 0x9c
 8002de0:	f004 f8e6 	bl	8006fb0 <__sprint_r>
 8002de4:	2800      	cmp	r0, #0
 8002de6:	f47e af48 	bne.w	8001c7a <_vfprintf_r+0x21a>
 8002dea:	9c29      	ldr	r4, [sp, #164]	; 0xa4
 8002dec:	9828      	ldr	r0, [sp, #160]	; 0xa0
 8002dee:	f10d 0ad0 	add.w	sl, sp, #208	; 0xd0
 8002df2:	e7b6      	b.n	8002d62 <_vfprintf_r+0x1302>
 8002df4:	980c      	ldr	r0, [sp, #48]	; 0x30
 8002df6:	990b      	ldr	r1, [sp, #44]	; 0x2c
 8002df8:	aa27      	add	r2, sp, #156	; 0x9c
 8002dfa:	f004 f8d9 	bl	8006fb0 <__sprint_r>
 8002dfe:	2800      	cmp	r0, #0
 8002e00:	f47e af3b 	bne.w	8001c7a <_vfprintf_r+0x21a>
 8002e04:	9c29      	ldr	r4, [sp, #164]	; 0xa4
 8002e06:	9b28      	ldr	r3, [sp, #160]	; 0xa0
 8002e08:	f10d 0ad0 	add.w	sl, sp, #208	; 0xd0
 8002e0c:	e475      	b.n	80026fa <_vfprintf_r+0xc9a>
 8002e0e:	980c      	ldr	r0, [sp, #48]	; 0x30
 8002e10:	990b      	ldr	r1, [sp, #44]	; 0x2c
 8002e12:	aa27      	add	r2, sp, #156	; 0x9c
 8002e14:	f004 f8cc 	bl	8006fb0 <__sprint_r>
 8002e18:	2800      	cmp	r0, #0
 8002e1a:	f47e af2e 	bne.w	8001c7a <_vfprintf_r+0x21a>
 8002e1e:	9c29      	ldr	r4, [sp, #164]	; 0xa4
 8002e20:	9b28      	ldr	r3, [sp, #160]	; 0xa0
 8002e22:	f10d 0ad0 	add.w	sl, sp, #208	; 0xd0
 8002e26:	e479      	b.n	800271c <_vfprintf_r+0xcbc>
 8002e28:	9b09      	ldr	r3, [sp, #36]	; 0x24
 8002e2a:	07da      	lsls	r2, r3, #31
 8002e2c:	f53f acdd 	bmi.w	80027ea <_vfprintf_r+0xd8a>
 8002e30:	2201      	movs	r2, #1
 8002e32:	2d07      	cmp	r5, #7
 8002e34:	f8ca b000 	str.w	fp, [sl]
 8002e38:	f8ca 2004 	str.w	r2, [sl, #4]
 8002e3c:	f10a 0a08 	add.w	sl, sl, #8
 8002e40:	9429      	str	r4, [sp, #164]	; 0xa4
 8002e42:	9528      	str	r5, [sp, #160]	; 0xa0
 8002e44:	f77f ad02 	ble.w	800284c <_vfprintf_r+0xdec>
 8002e48:	980c      	ldr	r0, [sp, #48]	; 0x30
 8002e4a:	990b      	ldr	r1, [sp, #44]	; 0x2c
 8002e4c:	aa27      	add	r2, sp, #156	; 0x9c
 8002e4e:	f004 f8af 	bl	8006fb0 <__sprint_r>
 8002e52:	2800      	cmp	r0, #0
 8002e54:	f47e af11 	bne.w	8001c7a <_vfprintf_r+0x21a>
 8002e58:	f10d 0ad0 	add.w	sl, sp, #208	; 0xd0
 8002e5c:	9c29      	ldr	r4, [sp, #164]	; 0xa4
 8002e5e:	9d28      	ldr	r5, [sp, #160]	; 0xa0
 8002e60:	e4f4      	b.n	800284c <_vfprintf_r+0xdec>
 8002e62:	980c      	ldr	r0, [sp, #48]	; 0x30
 8002e64:	990b      	ldr	r1, [sp, #44]	; 0x2c
 8002e66:	aa27      	add	r2, sp, #156	; 0x9c
 8002e68:	f004 f8a2 	bl	8006fb0 <__sprint_r>
 8002e6c:	2800      	cmp	r0, #0
 8002e6e:	f47e af04 	bne.w	8001c7a <_vfprintf_r+0x21a>
 8002e72:	9c29      	ldr	r4, [sp, #164]	; 0xa4
 8002e74:	9d28      	ldr	r5, [sp, #160]	; 0xa0
 8002e76:	f10d 0ad0 	add.w	sl, sp, #208	; 0xd0
 8002e7a:	e4c2      	b.n	8002802 <_vfprintf_r+0xda2>
 8002e7c:	f8df b03c 	ldr.w	fp, [pc, #60]	; 8002ebc <_vfprintf_r+0x145c>
 8002e80:	19a4      	adds	r4, r4, r6
 8002e82:	3501      	adds	r5, #1
 8002e84:	f8ca b000 	str.w	fp, [sl]
 8002e88:	f8ca 6004 	str.w	r6, [sl, #4]
 8002e8c:	e4d7      	b.n	800283e <_vfprintf_r+0xdde>
 8002e8e:	980c      	ldr	r0, [sp, #48]	; 0x30
 8002e90:	990b      	ldr	r1, [sp, #44]	; 0x2c
 8002e92:	aa27      	add	r2, sp, #156	; 0x9c
 8002e94:	f004 f88c 	bl	8006fb0 <__sprint_r>
 8002e98:	2800      	cmp	r0, #0
 8002e9a:	f47e aeee 	bne.w	8001c7a <_vfprintf_r+0x21a>
 8002e9e:	9c29      	ldr	r4, [sp, #164]	; 0xa4
 8002ea0:	9d28      	ldr	r5, [sp, #160]	; 0xa0
 8002ea2:	f10d 0ad0 	add.w	sl, sp, #208	; 0xd0
 8002ea6:	e4b9      	b.n	800281c <_vfprintf_r+0xdbc>
 8002ea8:	262d      	movs	r6, #45	; 0x2d
 8002eaa:	4264      	negs	r4, r4
 8002eac:	eb65 0545 	sbc.w	r5, r5, r5, lsl #1
 8002eb0:	f88d 607b 	strb.w	r6, [sp, #123]	; 0x7b
 8002eb4:	2301      	movs	r3, #1
 8002eb6:	f7fe bffc 	b.w	8001eb2 <_vfprintf_r+0x452>
 8002eba:	bf00      	nop
 8002ebc:	08007640 	.word	0x08007640
 8002ec0:	f8cd c01c 	str.w	ip, [sp, #28]
 8002ec4:	f003 ffe4 	bl	8006e90 <__fpclassifyd>
 8002ec8:	f8dd c01c 	ldr.w	ip, [sp, #28]
 8002ecc:	2800      	cmp	r0, #0
 8002ece:	f000 814d 	beq.w	800316c <_vfprintf_r+0x170c>
 8002ed2:	f1bc 3fff 	cmp.w	ip, #4294967295	; 0xffffffff
 8002ed6:	f000 8364 	beq.w	80035a2 <_vfprintf_r+0x1b42>
 8002eda:	f1b8 0f67 	cmp.w	r8, #103	; 0x67
 8002ede:	f000 8330 	beq.w	8003542 <_vfprintf_r+0x1ae2>
 8002ee2:	f1b8 0f47 	cmp.w	r8, #71	; 0x47
 8002ee6:	f000 832c 	beq.w	8003542 <_vfprintf_r+0x1ae2>
 8002eea:	9809      	ldr	r0, [sp, #36]	; 0x24
 8002eec:	2c00      	cmp	r4, #0
 8002eee:	f440 7380 	orr.w	r3, r0, #256	; 0x100
 8002ef2:	9317      	str	r3, [sp, #92]	; 0x5c
 8002ef4:	f2c0 834b 	blt.w	800358e <_vfprintf_r+0x1b2e>
 8002ef8:	2100      	movs	r1, #0
 8002efa:	9113      	str	r1, [sp, #76]	; 0x4c
 8002efc:	f1b8 0f66 	cmp.w	r8, #102	; 0x66
 8002f00:	f000 82f6 	beq.w	80034f0 <_vfprintf_r+0x1a90>
 8002f04:	f1b8 0f46 	cmp.w	r8, #70	; 0x46
 8002f08:	f000 82f2 	beq.w	80034f0 <_vfprintf_r+0x1a90>
 8002f0c:	f1b8 0f65 	cmp.w	r8, #101	; 0x65
 8002f10:	f000 8344 	beq.w	800359c <_vfprintf_r+0x1b3c>
 8002f14:	f1b8 0f45 	cmp.w	r8, #69	; 0x45
 8002f18:	f000 8340 	beq.w	800359c <_vfprintf_r+0x1b3c>
 8002f1c:	4667      	mov	r7, ip
 8002f1e:	2102      	movs	r1, #2
 8002f20:	e88d 0082 	stmia.w	sp, {r1, r7}
 8002f24:	a821      	add	r0, sp, #132	; 0x84
 8002f26:	a922      	add	r1, sp, #136	; 0x88
 8002f28:	ad20      	add	r5, sp, #128	; 0x80
 8002f2a:	9003      	str	r0, [sp, #12]
 8002f2c:	4632      	mov	r2, r6
 8002f2e:	4623      	mov	r3, r4
 8002f30:	9502      	str	r5, [sp, #8]
 8002f32:	9104      	str	r1, [sp, #16]
 8002f34:	980c      	ldr	r0, [sp, #48]	; 0x30
 8002f36:	f8cd c01c 	str.w	ip, [sp, #28]
 8002f3a:	f000 fdcd 	bl	8003ad8 <_dtoa_r>
 8002f3e:	f1b8 0f67 	cmp.w	r8, #103	; 0x67
 8002f42:	4683      	mov	fp, r0
 8002f44:	f8dd c01c 	ldr.w	ip, [sp, #28]
 8002f48:	d002      	beq.n	8002f50 <_vfprintf_r+0x14f0>
 8002f4a:	f1b8 0f47 	cmp.w	r8, #71	; 0x47
 8002f4e:	d103      	bne.n	8002f58 <_vfprintf_r+0x14f8>
 8002f50:	9b09      	ldr	r3, [sp, #36]	; 0x24
 8002f52:	07d8      	lsls	r0, r3, #31
 8002f54:	f140 8328 	bpl.w	80035a8 <_vfprintf_r+0x1b48>
 8002f58:	f1b8 0f46 	cmp.w	r8, #70	; 0x46
 8002f5c:	eb0b 0507 	add.w	r5, fp, r7
 8002f60:	f000 82dc 	beq.w	800351c <_vfprintf_r+0x1abc>
 8002f64:	4630      	mov	r0, r6
 8002f66:	4621      	mov	r1, r4
 8002f68:	2200      	movs	r2, #0
 8002f6a:	2300      	movs	r3, #0
 8002f6c:	f8cd c01c 	str.w	ip, [sp, #28]
 8002f70:	f7fd fd5a 	bl	8000a28 <__aeabi_dcmpeq>
 8002f74:	f8dd c01c 	ldr.w	ip, [sp, #28]
 8002f78:	b9e8      	cbnz	r0, 8002fb6 <_vfprintf_r+0x1556>
 8002f7a:	9e22      	ldr	r6, [sp, #136]	; 0x88
 8002f7c:	42b5      	cmp	r5, r6
 8002f7e:	f240 8387 	bls.w	8003690 <_vfprintf_r+0x1c30>
 8002f82:	4633      	mov	r3, r6
 8002f84:	2430      	movs	r4, #48	; 0x30
 8002f86:	43f1      	mvns	r1, r6
 8002f88:	f803 4b01 	strb.w	r4, [r3], #1
 8002f8c:	1868      	adds	r0, r5, r1
 8002f8e:	42ab      	cmp	r3, r5
 8002f90:	9322      	str	r3, [sp, #136]	; 0x88
 8002f92:	f000 0201 	and.w	r2, r0, #1
 8002f96:	d00d      	beq.n	8002fb4 <_vfprintf_r+0x1554>
 8002f98:	b122      	cbz	r2, 8002fa4 <_vfprintf_r+0x1544>
 8002f9a:	3301      	adds	r3, #1
 8002f9c:	42ab      	cmp	r3, r5
 8002f9e:	7074      	strb	r4, [r6, #1]
 8002fa0:	9322      	str	r3, [sp, #136]	; 0x88
 8002fa2:	d007      	beq.n	8002fb4 <_vfprintf_r+0x1554>
 8002fa4:	461e      	mov	r6, r3
 8002fa6:	f806 4b01 	strb.w	r4, [r6], #1
 8002faa:	705c      	strb	r4, [r3, #1]
 8002fac:	1c73      	adds	r3, r6, #1
 8002fae:	42ab      	cmp	r3, r5
 8002fb0:	9322      	str	r3, [sp, #136]	; 0x88
 8002fb2:	d1f7      	bne.n	8002fa4 <_vfprintf_r+0x1544>
 8002fb4:	461d      	mov	r5, r3
 8002fb6:	ebcb 0505 	rsb	r5, fp, r5
 8002fba:	f1b8 0f67 	cmp.w	r8, #103	; 0x67
 8002fbe:	9512      	str	r5, [sp, #72]	; 0x48
 8002fc0:	f000 8212 	beq.w	80033e8 <_vfprintf_r+0x1988>
 8002fc4:	f1b8 0f47 	cmp.w	r8, #71	; 0x47
 8002fc8:	f000 820e 	beq.w	80033e8 <_vfprintf_r+0x1988>
 8002fcc:	f1b8 0f66 	cmp.w	r8, #102	; 0x66
 8002fd0:	f040 8363 	bne.w	800369a <_vfprintf_r+0x1c3a>
 8002fd4:	9a20      	ldr	r2, [sp, #128]	; 0x80
 8002fd6:	2a00      	cmp	r2, #0
 8002fd8:	f340 8349 	ble.w	800366e <_vfprintf_r+0x1c0e>
 8002fdc:	f1bc 0f00 	cmp.w	ip, #0
 8002fe0:	f040 830e 	bne.w	8003600 <_vfprintf_r+0x1ba0>
 8002fe4:	9e09      	ldr	r6, [sp, #36]	; 0x24
 8002fe6:	07f5      	lsls	r5, r6, #31
 8002fe8:	f100 830a 	bmi.w	8003600 <_vfprintf_r+0x1ba0>
 8002fec:	ea22 75e2 	bic.w	r5, r2, r2, asr #31
 8002ff0:	950d      	str	r5, [sp, #52]	; 0x34
 8002ff2:	9210      	str	r2, [sp, #64]	; 0x40
 8002ff4:	9215      	str	r2, [sp, #84]	; 0x54
 8002ff6:	9d13      	ldr	r5, [sp, #76]	; 0x4c
 8002ff8:	2d00      	cmp	r5, #0
 8002ffa:	f000 81ef 	beq.w	80033dc <_vfprintf_r+0x197c>
 8002ffe:	9817      	ldr	r0, [sp, #92]	; 0x5c
 8003000:	242d      	movs	r4, #45	; 0x2d
 8003002:	2100      	movs	r1, #0
 8003004:	f88d 407b 	strb.w	r4, [sp, #123]	; 0x7b
 8003008:	9009      	str	r0, [sp, #36]	; 0x24
 800300a:	9113      	str	r1, [sp, #76]	; 0x4c
 800300c:	f7fe beb1 	b.w	8001d72 <_vfprintf_r+0x312>
 8003010:	9909      	ldr	r1, [sp, #36]	; 0x24
 8003012:	06ca      	lsls	r2, r1, #27
 8003014:	d40a      	bmi.n	800302c <_vfprintf_r+0x15cc>
 8003016:	9809      	ldr	r0, [sp, #36]	; 0x24
 8003018:	0643      	lsls	r3, r0, #25
 800301a:	d507      	bpl.n	800302c <_vfprintf_r+0x15cc>
 800301c:	9a11      	ldr	r2, [sp, #68]	; 0x44
 800301e:	990f      	ldr	r1, [sp, #60]	; 0x3c
 8003020:	6813      	ldr	r3, [r2, #0]
 8003022:	1d14      	adds	r4, r2, #4
 8003024:	9411      	str	r4, [sp, #68]	; 0x44
 8003026:	8019      	strh	r1, [r3, #0]
 8003028:	f7fe bd5f 	b.w	8001aea <_vfprintf_r+0x8a>
 800302c:	9811      	ldr	r0, [sp, #68]	; 0x44
 800302e:	9c0f      	ldr	r4, [sp, #60]	; 0x3c
 8003030:	6802      	ldr	r2, [r0, #0]
 8003032:	1d03      	adds	r3, r0, #4
 8003034:	9311      	str	r3, [sp, #68]	; 0x44
 8003036:	6014      	str	r4, [r2, #0]
 8003038:	f7fe bd57 	b.w	8001aea <_vfprintf_r+0x8a>
 800303c:	f893 8000 	ldrb.w	r8, [r3]
 8003040:	f7fe bd8c 	b.w	8001b5c <_vfprintf_r+0xfc>
 8003044:	9828      	ldr	r0, [sp, #160]	; 0xa0
 8003046:	4eb4      	ldr	r6, [pc, #720]	; (8003318 <_vfprintf_r+0x18b8>)
 8003048:	f7ff b9af 	b.w	80023aa <_vfprintf_r+0x94a>
 800304c:	980c      	ldr	r0, [sp, #48]	; 0x30
 800304e:	990b      	ldr	r1, [sp, #44]	; 0x2c
 8003050:	aa27      	add	r2, sp, #156	; 0x9c
 8003052:	f003 ffad 	bl	8006fb0 <__sprint_r>
 8003056:	2800      	cmp	r0, #0
 8003058:	f47e ae0f 	bne.w	8001c7a <_vfprintf_r+0x21a>
 800305c:	9c29      	ldr	r4, [sp, #164]	; 0xa4
 800305e:	f10d 0ad0 	add.w	sl, sp, #208	; 0xd0
 8003062:	f7ff baaf 	b.w	80025c4 <_vfprintf_r+0xb64>
 8003066:	9a28      	ldr	r2, [sp, #160]	; 0xa0
 8003068:	4bac      	ldr	r3, [pc, #688]	; (800331c <_vfprintf_r+0x18bc>)
 800306a:	1c51      	adds	r1, r2, #1
 800306c:	3401      	adds	r4, #1
 800306e:	2001      	movs	r0, #1
 8003070:	2907      	cmp	r1, #7
 8003072:	f8ca 3000 	str.w	r3, [sl]
 8003076:	f8ca 0004 	str.w	r0, [sl, #4]
 800307a:	9429      	str	r4, [sp, #164]	; 0xa4
 800307c:	9128      	str	r1, [sp, #160]	; 0xa0
 800307e:	f10a 0a08 	add.w	sl, sl, #8
 8003082:	f300 809b 	bgt.w	80031bc <_vfprintf_r+0x175c>
 8003086:	2e00      	cmp	r6, #0
 8003088:	f000 808f 	beq.w	80031aa <_vfprintf_r+0x174a>
 800308c:	9b28      	ldr	r3, [sp, #160]	; 0xa0
 800308e:	9816      	ldr	r0, [sp, #88]	; 0x58
 8003090:	3301      	adds	r3, #1
 8003092:	9a14      	ldr	r2, [sp, #80]	; 0x50
 8003094:	1824      	adds	r4, r4, r0
 8003096:	2b07      	cmp	r3, #7
 8003098:	f8ca 2000 	str.w	r2, [sl]
 800309c:	f8ca 0004 	str.w	r0, [sl, #4]
 80030a0:	f10a 0a08 	add.w	sl, sl, #8
 80030a4:	9429      	str	r4, [sp, #164]	; 0xa4
 80030a6:	9328      	str	r3, [sp, #160]	; 0xa0
 80030a8:	f300 8251 	bgt.w	800354e <_vfprintf_r+0x1aee>
 80030ac:	4276      	negs	r6, r6
 80030ae:	2e00      	cmp	r6, #0
 80030b0:	f340 80d3 	ble.w	800325a <_vfprintf_r+0x17fa>
 80030b4:	2e10      	cmp	r6, #16
 80030b6:	f340 80b6 	ble.w	8003226 <_vfprintf_r+0x17c6>
 80030ba:	2710      	movs	r7, #16
 80030bc:	3301      	adds	r3, #1
 80030be:	f1a6 0511 	sub.w	r5, r6, #17
 80030c2:	19e4      	adds	r4, r4, r7
 80030c4:	2b07      	cmp	r3, #7
 80030c6:	f8ca 9000 	str.w	r9, [sl]
 80030ca:	f8ca 7004 	str.w	r7, [sl, #4]
 80030ce:	f8df 8248 	ldr.w	r8, [pc, #584]	; 8003318 <_vfprintf_r+0x18b8>
 80030d2:	9429      	str	r4, [sp, #164]	; 0xa4
 80030d4:	9328      	str	r3, [sp, #160]	; 0xa0
 80030d6:	f3c5 1500 	ubfx	r5, r5, #4, #1
 80030da:	f10a 0a08 	add.w	sl, sl, #8
 80030de:	f300 8265 	bgt.w	80035ac <_vfprintf_r+0x1b4c>
 80030e2:	3e10      	subs	r6, #16
 80030e4:	2e10      	cmp	r6, #16
 80030e6:	f340 80a0 	ble.w	800322a <_vfprintf_r+0x17ca>
 80030ea:	b185      	cbz	r5, 800310e <_vfprintf_r+0x16ae>
 80030ec:	3301      	adds	r3, #1
 80030ee:	3410      	adds	r4, #16
 80030f0:	2b07      	cmp	r3, #7
 80030f2:	f8ca 9000 	str.w	r9, [sl]
 80030f6:	f8ca 7004 	str.w	r7, [sl, #4]
 80030fa:	9429      	str	r4, [sp, #164]	; 0xa4
 80030fc:	9328      	str	r3, [sp, #160]	; 0xa0
 80030fe:	f10a 0a08 	add.w	sl, sl, #8
 8003102:	f300 8260 	bgt.w	80035c6 <_vfprintf_r+0x1b66>
 8003106:	3e10      	subs	r6, #16
 8003108:	2e10      	cmp	r6, #16
 800310a:	f340 808e 	ble.w	800322a <_vfprintf_r+0x17ca>
 800310e:	4620      	mov	r0, r4
 8003110:	9d0c      	ldr	r5, [sp, #48]	; 0x30
 8003112:	9c0b      	ldr	r4, [sp, #44]	; 0x2c
 8003114:	e00f      	b.n	8003136 <_vfprintf_r+0x16d6>
 8003116:	1c4b      	adds	r3, r1, #1
 8003118:	3010      	adds	r0, #16
 800311a:	2b07      	cmp	r3, #7
 800311c:	f8ca 9000 	str.w	r9, [sl]
 8003120:	f8ca 7004 	str.w	r7, [sl, #4]
 8003124:	f10a 0a08 	add.w	sl, sl, #8
 8003128:	9029      	str	r0, [sp, #164]	; 0xa4
 800312a:	9328      	str	r3, [sp, #160]	; 0xa0
 800312c:	dc56      	bgt.n	80031dc <_vfprintf_r+0x177c>
 800312e:	3e10      	subs	r6, #16
 8003130:	2e10      	cmp	r6, #16
 8003132:	f340 8231 	ble.w	8003598 <_vfprintf_r+0x1b38>
 8003136:	1c59      	adds	r1, r3, #1
 8003138:	3010      	adds	r0, #16
 800313a:	2907      	cmp	r1, #7
 800313c:	f8ca 9000 	str.w	r9, [sl]
 8003140:	f8ca 7004 	str.w	r7, [sl, #4]
 8003144:	f1a6 0610 	sub.w	r6, r6, #16
 8003148:	f10a 0a08 	add.w	sl, sl, #8
 800314c:	9029      	str	r0, [sp, #164]	; 0xa4
 800314e:	9128      	str	r1, [sp, #160]	; 0xa0
 8003150:	dde1      	ble.n	8003116 <_vfprintf_r+0x16b6>
 8003152:	4628      	mov	r0, r5
 8003154:	4621      	mov	r1, r4
 8003156:	aa27      	add	r2, sp, #156	; 0x9c
 8003158:	f003 ff2a 	bl	8006fb0 <__sprint_r>
 800315c:	2800      	cmp	r0, #0
 800315e:	f47e ad8c 	bne.w	8001c7a <_vfprintf_r+0x21a>
 8003162:	9829      	ldr	r0, [sp, #164]	; 0xa4
 8003164:	9928      	ldr	r1, [sp, #160]	; 0xa0
 8003166:	f10d 0ad0 	add.w	sl, sp, #208	; 0xd0
 800316a:	e7d4      	b.n	8003116 <_vfprintf_r+0x16b6>
 800316c:	9a09      	ldr	r2, [sp, #36]	; 0x24
 800316e:	4b6c      	ldr	r3, [pc, #432]	; (8003320 <_vfprintf_r+0x18c0>)
 8003170:	4d6c      	ldr	r5, [pc, #432]	; (8003324 <_vfprintf_r+0x18c4>)
 8003172:	2603      	movs	r6, #3
 8003174:	f022 0180 	bic.w	r1, r2, #128	; 0x80
 8003178:	2403      	movs	r4, #3
 800317a:	f1b8 0f47 	cmp.w	r8, #71	; 0x47
 800317e:	bfcc      	ite	gt
 8003180:	469b      	movgt	fp, r3
 8003182:	46ab      	movle	fp, r5
 8003184:	960d      	str	r6, [sp, #52]	; 0x34
 8003186:	9013      	str	r0, [sp, #76]	; 0x4c
 8003188:	9109      	str	r1, [sp, #36]	; 0x24
 800318a:	f89d 307b 	ldrb.w	r3, [sp, #123]	; 0x7b
 800318e:	9410      	str	r4, [sp, #64]	; 0x40
 8003190:	9015      	str	r0, [sp, #84]	; 0x54
 8003192:	f7fe bded 	b.w	8001d70 <_vfprintf_r+0x310>
 8003196:	9a10      	ldr	r2, [sp, #64]	; 0x40
 8003198:	9511      	str	r5, [sp, #68]	; 0x44
 800319a:	ea22 73e2 	bic.w	r3, r2, r2, asr #31
 800319e:	930d      	str	r3, [sp, #52]	; 0x34
 80031a0:	9615      	str	r6, [sp, #84]	; 0x54
 80031a2:	f89d 307b 	ldrb.w	r3, [sp, #123]	; 0x7b
 80031a6:	f7fe bde3 	b.w	8001d70 <_vfprintf_r+0x310>
 80031aa:	9a12      	ldr	r2, [sp, #72]	; 0x48
 80031ac:	2a00      	cmp	r2, #0
 80031ae:	f47f af6d 	bne.w	800308c <_vfprintf_r+0x162c>
 80031b2:	9909      	ldr	r1, [sp, #36]	; 0x24
 80031b4:	07c8      	lsls	r0, r1, #31
 80031b6:	f57f a923 	bpl.w	8002400 <_vfprintf_r+0x9a0>
 80031ba:	e767      	b.n	800308c <_vfprintf_r+0x162c>
 80031bc:	980c      	ldr	r0, [sp, #48]	; 0x30
 80031be:	990b      	ldr	r1, [sp, #44]	; 0x2c
 80031c0:	aa27      	add	r2, sp, #156	; 0x9c
 80031c2:	f003 fef5 	bl	8006fb0 <__sprint_r>
 80031c6:	2800      	cmp	r0, #0
 80031c8:	f47e ad57 	bne.w	8001c7a <_vfprintf_r+0x21a>
 80031cc:	9e20      	ldr	r6, [sp, #128]	; 0x80
 80031ce:	9c29      	ldr	r4, [sp, #164]	; 0xa4
 80031d0:	f10d 0ad0 	add.w	sl, sp, #208	; 0xd0
 80031d4:	2e00      	cmp	r6, #0
 80031d6:	f47f af59 	bne.w	800308c <_vfprintf_r+0x162c>
 80031da:	e7e6      	b.n	80031aa <_vfprintf_r+0x174a>
 80031dc:	4628      	mov	r0, r5
 80031de:	4621      	mov	r1, r4
 80031e0:	aa27      	add	r2, sp, #156	; 0x9c
 80031e2:	f003 fee5 	bl	8006fb0 <__sprint_r>
 80031e6:	2800      	cmp	r0, #0
 80031e8:	f47e ad47 	bne.w	8001c7a <_vfprintf_r+0x21a>
 80031ec:	9829      	ldr	r0, [sp, #164]	; 0xa4
 80031ee:	9b28      	ldr	r3, [sp, #160]	; 0xa0
 80031f0:	f10d 0ad0 	add.w	sl, sp, #208	; 0xd0
 80031f4:	e79b      	b.n	800312e <_vfprintf_r+0x16ce>
 80031f6:	9c09      	ldr	r4, [sp, #36]	; 0x24
 80031f8:	3301      	adds	r3, #1
 80031fa:	f044 0420 	orr.w	r4, r4, #32
 80031fe:	9409      	str	r4, [sp, #36]	; 0x24
 8003200:	f890 8001 	ldrb.w	r8, [r0, #1]
 8003204:	f7fe bcaa 	b.w	8001b5c <_vfprintf_r+0xfc>
 8003208:	980c      	ldr	r0, [sp, #48]	; 0x30
 800320a:	990b      	ldr	r1, [sp, #44]	; 0x2c
 800320c:	aa27      	add	r2, sp, #156	; 0x9c
 800320e:	f003 fecf 	bl	8006fb0 <__sprint_r>
 8003212:	2800      	cmp	r0, #0
 8003214:	f47e ad31 	bne.w	8001c7a <_vfprintf_r+0x21a>
 8003218:	9c29      	ldr	r4, [sp, #164]	; 0xa4
 800321a:	f10d 0ad0 	add.w	sl, sp, #208	; 0xd0
 800321e:	f7ff b9ea 	b.w	80025f6 <_vfprintf_r+0xb96>
 8003222:	461c      	mov	r4, r3
 8003224:	e62c      	b.n	8002e80 <_vfprintf_r+0x1420>
 8003226:	f8df 80f0 	ldr.w	r8, [pc, #240]	; 8003318 <_vfprintf_r+0x18b8>
 800322a:	3301      	adds	r3, #1
 800322c:	19a4      	adds	r4, r4, r6
 800322e:	2b07      	cmp	r3, #7
 8003230:	f8ca 8000 	str.w	r8, [sl]
 8003234:	f8ca 6004 	str.w	r6, [sl, #4]
 8003238:	9429      	str	r4, [sp, #164]	; 0xa4
 800323a:	9328      	str	r3, [sp, #160]	; 0xa0
 800323c:	f10a 0a08 	add.w	sl, sl, #8
 8003240:	dd0b      	ble.n	800325a <_vfprintf_r+0x17fa>
 8003242:	980c      	ldr	r0, [sp, #48]	; 0x30
 8003244:	990b      	ldr	r1, [sp, #44]	; 0x2c
 8003246:	aa27      	add	r2, sp, #156	; 0x9c
 8003248:	f003 feb2 	bl	8006fb0 <__sprint_r>
 800324c:	2800      	cmp	r0, #0
 800324e:	f47e ad14 	bne.w	8001c7a <_vfprintf_r+0x21a>
 8003252:	9c29      	ldr	r4, [sp, #164]	; 0xa4
 8003254:	9b28      	ldr	r3, [sp, #160]	; 0xa0
 8003256:	f10d 0ad0 	add.w	sl, sp, #208	; 0xd0
 800325a:	9a12      	ldr	r2, [sp, #72]	; 0x48
 800325c:	1c59      	adds	r1, r3, #1
 800325e:	18a4      	adds	r4, r4, r2
 8003260:	2907      	cmp	r1, #7
 8003262:	f8ca b000 	str.w	fp, [sl]
 8003266:	f8ca 2004 	str.w	r2, [sl, #4]
 800326a:	f10a 0a08 	add.w	sl, sl, #8
 800326e:	9429      	str	r4, [sp, #164]	; 0xa4
 8003270:	9128      	str	r1, [sp, #160]	; 0xa0
 8003272:	f77f a8c5 	ble.w	8002400 <_vfprintf_r+0x9a0>
 8003276:	f7ff baf8 	b.w	800286a <_vfprintf_r+0xe0a>
 800327a:	f7fe fbc1 	bl	8001a00 <strlen>
 800327e:	9613      	str	r6, [sp, #76]	; 0x4c
 8003280:	9913      	ldr	r1, [sp, #76]	; 0x4c
 8003282:	ea20 73e0 	bic.w	r3, r0, r0, asr #31
 8003286:	930d      	str	r3, [sp, #52]	; 0x34
 8003288:	9010      	str	r0, [sp, #64]	; 0x40
 800328a:	f89d 307b 	ldrb.w	r3, [sp, #123]	; 0x7b
 800328e:	9511      	str	r5, [sp, #68]	; 0x44
 8003290:	9115      	str	r1, [sp, #84]	; 0x54
 8003292:	f7fe bd6d 	b.w	8001d70 <_vfprintf_r+0x310>
 8003296:	980c      	ldr	r0, [sp, #48]	; 0x30
 8003298:	990b      	ldr	r1, [sp, #44]	; 0x2c
 800329a:	aa27      	add	r2, sp, #156	; 0x9c
 800329c:	f003 fe88 	bl	8006fb0 <__sprint_r>
 80032a0:	2800      	cmp	r0, #0
 80032a2:	f47e acea 	bne.w	8001c7a <_vfprintf_r+0x21a>
 80032a6:	9c29      	ldr	r4, [sp, #164]	; 0xa4
 80032a8:	9d28      	ldr	r5, [sp, #160]	; 0xa0
 80032aa:	f10d 0ad0 	add.w	sl, sp, #208	; 0xd0
 80032ae:	e427      	b.n	8002b00 <_vfprintf_r+0x10a0>
 80032b0:	4692      	mov	sl, r2
 80032b2:	460c      	mov	r4, r1
 80032b4:	e4db      	b.n	8002c6e <_vfprintf_r+0x120e>
 80032b6:	461c      	mov	r4, r3
 80032b8:	e493      	b.n	8002be2 <_vfprintf_r+0x1182>
 80032ba:	4c1b      	ldr	r4, [pc, #108]	; (8003328 <_vfprintf_r+0x18c8>)
 80032bc:	9a29      	ldr	r2, [sp, #164]	; 0xa4
 80032be:	9b28      	ldr	r3, [sp, #160]	; 0xa0
 80032c0:	9417      	str	r4, [sp, #92]	; 0x5c
 80032c2:	f7fe bfab 	b.w	800221c <_vfprintf_r+0x7bc>
 80032c6:	980c      	ldr	r0, [sp, #48]	; 0x30
 80032c8:	990b      	ldr	r1, [sp, #44]	; 0x2c
 80032ca:	aa27      	add	r2, sp, #156	; 0x9c
 80032cc:	f003 fe70 	bl	8006fb0 <__sprint_r>
 80032d0:	2800      	cmp	r0, #0
 80032d2:	f47e acd2 	bne.w	8001c7a <_vfprintf_r+0x21a>
 80032d6:	9c29      	ldr	r4, [sp, #164]	; 0xa4
 80032d8:	9d28      	ldr	r5, [sp, #160]	; 0xa0
 80032da:	f10d 0ad0 	add.w	sl, sp, #208	; 0xd0
 80032de:	e423      	b.n	8002b28 <_vfprintf_r+0x10c8>
 80032e0:	980c      	ldr	r0, [sp, #48]	; 0x30
 80032e2:	990b      	ldr	r1, [sp, #44]	; 0x2c
 80032e4:	aa27      	add	r2, sp, #156	; 0x9c
 80032e6:	f003 fe63 	bl	8006fb0 <__sprint_r>
 80032ea:	2800      	cmp	r0, #0
 80032ec:	f47e acc5 	bne.w	8001c7a <_vfprintf_r+0x21a>
 80032f0:	9c29      	ldr	r4, [sp, #164]	; 0xa4
 80032f2:	9828      	ldr	r0, [sp, #160]	; 0xa0
 80032f4:	f10d 0ad0 	add.w	sl, sp, #208	; 0xd0
 80032f8:	f7ff b99a 	b.w	8002630 <_vfprintf_r+0xbd0>
 80032fc:	980c      	ldr	r0, [sp, #48]	; 0x30
 80032fe:	990b      	ldr	r1, [sp, #44]	; 0x2c
 8003300:	aa27      	add	r2, sp, #156	; 0x9c
 8003302:	f003 fe55 	bl	8006fb0 <__sprint_r>
 8003306:	2800      	cmp	r0, #0
 8003308:	f47e acb7 	bne.w	8001c7a <_vfprintf_r+0x21a>
 800330c:	9c29      	ldr	r4, [sp, #164]	; 0xa4
 800330e:	9b28      	ldr	r3, [sp, #160]	; 0xa0
 8003310:	f10d 0ad0 	add.w	sl, sp, #208	; 0xd0
 8003314:	f7ff bb80 	b.w	8002a18 <_vfprintf_r+0xfb8>
 8003318:	08007640 	.word	0x08007640
 800331c:	0800763c 	.word	0x0800763c
 8003320:	08007608 	.word	0x08007608
 8003324:	08007604 	.word	0x08007604
 8003328:	080075ec 	.word	0x080075ec
 800332c:	980c      	ldr	r0, [sp, #48]	; 0x30
 800332e:	990b      	ldr	r1, [sp, #44]	; 0x2c
 8003330:	aa27      	add	r2, sp, #156	; 0x9c
 8003332:	f003 fe3d 	bl	8006fb0 <__sprint_r>
 8003336:	2800      	cmp	r0, #0
 8003338:	f47e ac9f 	bne.w	8001c7a <_vfprintf_r+0x21a>
 800333c:	9c29      	ldr	r4, [sp, #164]	; 0xa4
 800333e:	f10d 0ad0 	add.w	sl, sp, #208	; 0xd0
 8003342:	f7ff bb4a 	b.w	80029da <_vfprintf_r+0xf7a>
 8003346:	980c      	ldr	r0, [sp, #48]	; 0x30
 8003348:	990b      	ldr	r1, [sp, #44]	; 0x2c
 800334a:	aa27      	add	r2, sp, #156	; 0x9c
 800334c:	f003 fe30 	bl	8006fb0 <__sprint_r>
 8003350:	2800      	cmp	r0, #0
 8003352:	f47e ac92 	bne.w	8001c7a <_vfprintf_r+0x21a>
 8003356:	9c29      	ldr	r4, [sp, #164]	; 0xa4
 8003358:	9b28      	ldr	r3, [sp, #160]	; 0xa0
 800335a:	f10d 0ad0 	add.w	sl, sp, #208	; 0xd0
 800335e:	f7ff bb6d 	b.w	8002a3c <_vfprintf_r+0xfdc>
 8003362:	980c      	ldr	r0, [sp, #48]	; 0x30
 8003364:	990b      	ldr	r1, [sp, #44]	; 0x2c
 8003366:	aa27      	add	r2, sp, #156	; 0x9c
 8003368:	f003 fe22 	bl	8006fb0 <__sprint_r>
 800336c:	2800      	cmp	r0, #0
 800336e:	f47e ac84 	bne.w	8001c7a <_vfprintf_r+0x21a>
 8003372:	9c29      	ldr	r4, [sp, #164]	; 0xa4
 8003374:	9828      	ldr	r0, [sp, #160]	; 0xa0
 8003376:	f10d 0ad0 	add.w	sl, sp, #208	; 0xd0
 800337a:	f7ff b96b 	b.w	8002654 <_vfprintf_r+0xbf4>
 800337e:	980c      	ldr	r0, [sp, #48]	; 0x30
 8003380:	990b      	ldr	r1, [sp, #44]	; 0x2c
 8003382:	aa27      	add	r2, sp, #156	; 0x9c
 8003384:	f003 fe14 	bl	8006fb0 <__sprint_r>
 8003388:	2800      	cmp	r0, #0
 800338a:	f47e ac76 	bne.w	8001c7a <_vfprintf_r+0x21a>
 800338e:	9d20      	ldr	r5, [sp, #128]	; 0x80
 8003390:	9b12      	ldr	r3, [sp, #72]	; 0x48
 8003392:	9c29      	ldr	r4, [sp, #164]	; 0xa4
 8003394:	1b58      	subs	r0, r3, r5
 8003396:	f10d 0ad0 	add.w	sl, sp, #208	; 0xd0
 800339a:	e49e      	b.n	8002cda <_vfprintf_r+0x127a>
 800339c:	980c      	ldr	r0, [sp, #48]	; 0x30
 800339e:	990b      	ldr	r1, [sp, #44]	; 0x2c
 80033a0:	aa27      	add	r2, sp, #156	; 0x9c
 80033a2:	f003 fe05 	bl	8006fb0 <__sprint_r>
 80033a6:	2800      	cmp	r0, #0
 80033a8:	f47e ac67 	bne.w	8001c7a <_vfprintf_r+0x21a>
 80033ac:	9c29      	ldr	r4, [sp, #164]	; 0xa4
 80033ae:	9828      	ldr	r0, [sp, #160]	; 0xa0
 80033b0:	f10d 0ad0 	add.w	sl, sp, #208	; 0xd0
 80033b4:	e4af      	b.n	8002d16 <_vfprintf_r+0x12b6>
 80033b6:	f1be 0f06 	cmp.w	lr, #6
 80033ba:	bf34      	ite	cc
 80033bc:	4671      	movcc	r1, lr
 80033be:	2106      	movcs	r1, #6
 80033c0:	ea21 74e1 	bic.w	r4, r1, r1, asr #31
 80033c4:	9110      	str	r1, [sp, #64]	; 0x40
 80033c6:	940d      	str	r4, [sp, #52]	; 0x34
 80033c8:	9511      	str	r5, [sp, #68]	; 0x44
 80033ca:	f8df b2d8 	ldr.w	fp, [pc, #728]	; 80036a4 <_vfprintf_r+0x1c44>
 80033ce:	f7fe bea6 	b.w	800211e <_vfprintf_r+0x6be>
 80033d2:	232d      	movs	r3, #45	; 0x2d
 80033d4:	f88d 307b 	strb.w	r3, [sp, #123]	; 0x7b
 80033d8:	f7fe bcb7 	b.w	8001d4a <_vfprintf_r+0x2ea>
 80033dc:	9a17      	ldr	r2, [sp, #92]	; 0x5c
 80033de:	f89d 307b 	ldrb.w	r3, [sp, #123]	; 0x7b
 80033e2:	9209      	str	r2, [sp, #36]	; 0x24
 80033e4:	f7fe bcc4 	b.w	8001d70 <_vfprintf_r+0x310>
 80033e8:	9a20      	ldr	r2, [sp, #128]	; 0x80
 80033ea:	1cd1      	adds	r1, r2, #3
 80033ec:	4610      	mov	r0, r2
 80033ee:	db01      	blt.n	80033f4 <_vfprintf_r+0x1994>
 80033f0:	4594      	cmp	ip, r2
 80033f2:	da5d      	bge.n	80034b0 <_vfprintf_r+0x1a50>
 80033f4:	f1a8 0802 	sub.w	r8, r8, #2
 80033f8:	1e43      	subs	r3, r0, #1
 80033fa:	2b00      	cmp	r3, #0
 80033fc:	9320      	str	r3, [sp, #128]	; 0x80
 80033fe:	f88d 808c 	strb.w	r8, [sp, #140]	; 0x8c
 8003402:	f2c0 8124 	blt.w	800364e <_vfprintf_r+0x1bee>
 8003406:	222b      	movs	r2, #43	; 0x2b
 8003408:	f88d 208d 	strb.w	r2, [sp, #141]	; 0x8d
 800340c:	2b09      	cmp	r3, #9
 800340e:	f340 8108 	ble.w	8003622 <_vfprintf_r+0x1bc2>
 8003412:	f246 6667 	movw	r6, #26215	; 0x6667
 8003416:	f10d 009a 	add.w	r0, sp, #154	; 0x9a
 800341a:	f2c6 6666 	movt	r6, #26214	; 0x6666
 800341e:	fb86 2103 	smull	r2, r1, r6, r3
 8003422:	17da      	asrs	r2, r3, #31
 8003424:	ebc2 05a1 	rsb	r5, r2, r1, asr #2
 8003428:	eb05 0485 	add.w	r4, r5, r5, lsl #2
 800342c:	eba3 0344 	sub.w	r3, r3, r4, lsl #1
 8003430:	4602      	mov	r2, r0
 8003432:	f103 0030 	add.w	r0, r3, #48	; 0x30
 8003436:	7010      	strb	r0, [r2, #0]
 8003438:	1e50      	subs	r0, r2, #1
 800343a:	2d09      	cmp	r5, #9
 800343c:	462b      	mov	r3, r5
 800343e:	dcee      	bgt.n	800341e <_vfprintf_r+0x19be>
 8003440:	3330      	adds	r3, #48	; 0x30
 8003442:	f10d 059b 	add.w	r5, sp, #155	; 0x9b
 8003446:	b2d9      	uxtb	r1, r3
 8003448:	4285      	cmp	r5, r0
 800344a:	f802 1c01 	strb.w	r1, [r2, #-1]
 800344e:	f240 8121 	bls.w	8003694 <_vfprintf_r+0x1c34>
 8003452:	1aac      	subs	r4, r5, r2
 8003454:	07e6      	lsls	r6, r4, #31
 8003456:	f10d 008d 	add.w	r0, sp, #141	; 0x8d
 800345a:	4613      	mov	r3, r2
 800345c:	d50d      	bpl.n	800347a <_vfprintf_r+0x1a1a>
 800345e:	f88d 108e 	strb.w	r1, [sp, #142]	; 0x8e
 8003462:	4613      	mov	r3, r2
 8003464:	f10d 008e 	add.w	r0, sp, #142	; 0x8e
 8003468:	f813 1b01 	ldrb.w	r1, [r3], #1
 800346c:	e005      	b.n	800347a <_vfprintf_r+0x1a1a>
 800346e:	f813 4b01 	ldrb.w	r4, [r3], #1
 8003472:	1c70      	adds	r0, r6, #1
 8003474:	7074      	strb	r4, [r6, #1]
 8003476:	f813 1b01 	ldrb.w	r1, [r3], #1
 800347a:	1c46      	adds	r6, r0, #1
 800347c:	42ab      	cmp	r3, r5
 800347e:	7041      	strb	r1, [r0, #1]
 8003480:	d1f5      	bne.n	800346e <_vfprintf_r+0x1a0e>
 8003482:	ad44      	add	r5, sp, #272	; 0x110
 8003484:	ebc2 0645 	rsb	r6, r2, r5, lsl #1
 8003488:	3ef6      	subs	r6, #246	; 0xf6
 800348a:	aa23      	add	r2, sp, #140	; 0x8c
 800348c:	9b12      	ldr	r3, [sp, #72]	; 0x48
 800348e:	9912      	ldr	r1, [sp, #72]	; 0x48
 8003490:	1ab4      	subs	r4, r6, r2
 8003492:	1918      	adds	r0, r3, r4
 8003494:	2901      	cmp	r1, #1
 8003496:	941b      	str	r4, [sp, #108]	; 0x6c
 8003498:	9010      	str	r0, [sp, #64]	; 0x40
 800349a:	f340 80dd 	ble.w	8003658 <_vfprintf_r+0x1bf8>
 800349e:	9b10      	ldr	r3, [sp, #64]	; 0x40
 80034a0:	2600      	movs	r6, #0
 80034a2:	1c58      	adds	r0, r3, #1
 80034a4:	ea20 71e0 	bic.w	r1, r0, r0, asr #31
 80034a8:	9010      	str	r0, [sp, #64]	; 0x40
 80034aa:	910d      	str	r1, [sp, #52]	; 0x34
 80034ac:	9615      	str	r6, [sp, #84]	; 0x54
 80034ae:	e5a2      	b.n	8002ff6 <_vfprintf_r+0x1596>
 80034b0:	9b12      	ldr	r3, [sp, #72]	; 0x48
 80034b2:	429a      	cmp	r2, r3
 80034b4:	db5d      	blt.n	8003572 <_vfprintf_r+0x1b12>
 80034b6:	9909      	ldr	r1, [sp, #36]	; 0x24
 80034b8:	07c8      	lsls	r0, r1, #31
 80034ba:	f100 80aa 	bmi.w	8003612 <_vfprintf_r+0x1bb2>
 80034be:	ea22 70e2 	bic.w	r0, r2, r2, asr #31
 80034c2:	900d      	str	r0, [sp, #52]	; 0x34
 80034c4:	9210      	str	r2, [sp, #64]	; 0x40
 80034c6:	f04f 0867 	mov.w	r8, #103	; 0x67
 80034ca:	e593      	b.n	8002ff4 <_vfprintf_r+0x1594>
 80034cc:	980c      	ldr	r0, [sp, #48]	; 0x30
 80034ce:	990b      	ldr	r1, [sp, #44]	; 0x2c
 80034d0:	aa27      	add	r2, sp, #156	; 0x9c
 80034d2:	f003 fd6d 	bl	8006fb0 <__sprint_r>
 80034d6:	2800      	cmp	r0, #0
 80034d8:	f47e abcf 	bne.w	8001c7a <_vfprintf_r+0x21a>
 80034dc:	9c29      	ldr	r4, [sp, #164]	; 0xa4
 80034de:	9828      	ldr	r0, [sp, #160]	; 0xa0
 80034e0:	f10d 0ad0 	add.w	sl, sp, #208	; 0xd0
 80034e4:	e429      	b.n	8002d3a <_vfprintf_r+0x12da>
 80034e6:	496e      	ldr	r1, [pc, #440]	; (80036a0 <_vfprintf_r+0x1c40>)
 80034e8:	9b28      	ldr	r3, [sp, #160]	; 0xa0
 80034ea:	9117      	str	r1, [sp, #92]	; 0x5c
 80034ec:	f7ff b95e 	b.w	80027ac <_vfprintf_r+0xd4c>
 80034f0:	2103      	movs	r1, #3
 80034f2:	af20      	add	r7, sp, #128	; 0x80
 80034f4:	ad21      	add	r5, sp, #132	; 0x84
 80034f6:	a822      	add	r0, sp, #136	; 0x88
 80034f8:	e88d 1002 	stmia.w	sp, {r1, ip}
 80034fc:	9702      	str	r7, [sp, #8]
 80034fe:	9503      	str	r5, [sp, #12]
 8003500:	9004      	str	r0, [sp, #16]
 8003502:	4632      	mov	r2, r6
 8003504:	4623      	mov	r3, r4
 8003506:	980c      	ldr	r0, [sp, #48]	; 0x30
 8003508:	f8cd c01c 	str.w	ip, [sp, #28]
 800350c:	f000 fae4 	bl	8003ad8 <_dtoa_r>
 8003510:	f8dd c01c 	ldr.w	ip, [sp, #28]
 8003514:	4683      	mov	fp, r0
 8003516:	eb00 050c 	add.w	r5, r0, ip
 800351a:	4667      	mov	r7, ip
 800351c:	f89b 2000 	ldrb.w	r2, [fp]
 8003520:	2a30      	cmp	r2, #48	; 0x30
 8003522:	d05d      	beq.n	80035e0 <_vfprintf_r+0x1b80>
 8003524:	9f20      	ldr	r7, [sp, #128]	; 0x80
 8003526:	19ed      	adds	r5, r5, r7
 8003528:	e51c      	b.n	8002f64 <_vfprintf_r+0x1504>
 800352a:	ea2c 74ec 	bic.w	r4, ip, ip, asr #31
 800352e:	9013      	str	r0, [sp, #76]	; 0x4c
 8003530:	940d      	str	r4, [sp, #52]	; 0x34
 8003532:	f89d 307b 	ldrb.w	r3, [sp, #123]	; 0x7b
 8003536:	9511      	str	r5, [sp, #68]	; 0x44
 8003538:	f8cd c040 	str.w	ip, [sp, #64]	; 0x40
 800353c:	9015      	str	r0, [sp, #84]	; 0x54
 800353e:	f7fe bc17 	b.w	8001d70 <_vfprintf_r+0x310>
 8003542:	f1bc 0f00 	cmp.w	ip, #0
 8003546:	bf08      	it	eq
 8003548:	f04f 0c01 	moveq.w	ip, #1
 800354c:	e4cd      	b.n	8002eea <_vfprintf_r+0x148a>
 800354e:	980c      	ldr	r0, [sp, #48]	; 0x30
 8003550:	990b      	ldr	r1, [sp, #44]	; 0x2c
 8003552:	aa27      	add	r2, sp, #156	; 0x9c
 8003554:	f003 fd2c 	bl	8006fb0 <__sprint_r>
 8003558:	2800      	cmp	r0, #0
 800355a:	f47e ab8e 	bne.w	8001c7a <_vfprintf_r+0x21a>
 800355e:	9e20      	ldr	r6, [sp, #128]	; 0x80
 8003560:	9c29      	ldr	r4, [sp, #164]	; 0xa4
 8003562:	9b28      	ldr	r3, [sp, #160]	; 0xa0
 8003564:	f10d 0ad0 	add.w	sl, sp, #208	; 0xd0
 8003568:	e5a0      	b.n	80030ac <_vfprintf_r+0x164c>
 800356a:	4623      	mov	r3, r4
 800356c:	2600      	movs	r6, #0
 800356e:	f7fe baf6 	b.w	8001b5e <_vfprintf_r+0xfe>
 8003572:	2a00      	cmp	r2, #0
 8003574:	9e12      	ldr	r6, [sp, #72]	; 0x48
 8003576:	bfd4      	ite	le
 8003578:	f1c2 0002 	rsble	r0, r2, #2
 800357c:	2001      	movgt	r0, #1
 800357e:	1985      	adds	r5, r0, r6
 8003580:	ea25 74e5 	bic.w	r4, r5, r5, asr #31
 8003584:	9510      	str	r5, [sp, #64]	; 0x40
 8003586:	940d      	str	r4, [sp, #52]	; 0x34
 8003588:	f04f 0867 	mov.w	r8, #103	; 0x67
 800358c:	e532      	b.n	8002ff4 <_vfprintf_r+0x1594>
 800358e:	222d      	movs	r2, #45	; 0x2d
 8003590:	f104 4400 	add.w	r4, r4, #2147483648	; 0x80000000
 8003594:	9213      	str	r2, [sp, #76]	; 0x4c
 8003596:	e4b1      	b.n	8002efc <_vfprintf_r+0x149c>
 8003598:	4604      	mov	r4, r0
 800359a:	e646      	b.n	800322a <_vfprintf_r+0x17ca>
 800359c:	f10c 0701 	add.w	r7, ip, #1
 80035a0:	e4bd      	b.n	8002f1e <_vfprintf_r+0x14be>
 80035a2:	f04f 0c06 	mov.w	ip, #6
 80035a6:	e4a0      	b.n	8002eea <_vfprintf_r+0x148a>
 80035a8:	9d22      	ldr	r5, [sp, #136]	; 0x88
 80035aa:	e504      	b.n	8002fb6 <_vfprintf_r+0x1556>
 80035ac:	980c      	ldr	r0, [sp, #48]	; 0x30
 80035ae:	990b      	ldr	r1, [sp, #44]	; 0x2c
 80035b0:	aa27      	add	r2, sp, #156	; 0x9c
 80035b2:	f003 fcfd 	bl	8006fb0 <__sprint_r>
 80035b6:	2800      	cmp	r0, #0
 80035b8:	f47e ab5f 	bne.w	8001c7a <_vfprintf_r+0x21a>
 80035bc:	9c29      	ldr	r4, [sp, #164]	; 0xa4
 80035be:	9b28      	ldr	r3, [sp, #160]	; 0xa0
 80035c0:	f10d 0ad0 	add.w	sl, sp, #208	; 0xd0
 80035c4:	e58d      	b.n	80030e2 <_vfprintf_r+0x1682>
 80035c6:	980c      	ldr	r0, [sp, #48]	; 0x30
 80035c8:	990b      	ldr	r1, [sp, #44]	; 0x2c
 80035ca:	aa27      	add	r2, sp, #156	; 0x9c
 80035cc:	f003 fcf0 	bl	8006fb0 <__sprint_r>
 80035d0:	2800      	cmp	r0, #0
 80035d2:	f47e ab52 	bne.w	8001c7a <_vfprintf_r+0x21a>
 80035d6:	9c29      	ldr	r4, [sp, #164]	; 0xa4
 80035d8:	9b28      	ldr	r3, [sp, #160]	; 0xa0
 80035da:	f10d 0ad0 	add.w	sl, sp, #208	; 0xd0
 80035de:	e592      	b.n	8003106 <_vfprintf_r+0x16a6>
 80035e0:	4630      	mov	r0, r6
 80035e2:	4621      	mov	r1, r4
 80035e4:	2200      	movs	r2, #0
 80035e6:	2300      	movs	r3, #0
 80035e8:	f8cd c01c 	str.w	ip, [sp, #28]
 80035ec:	f7fd fa1c 	bl	8000a28 <__aeabi_dcmpeq>
 80035f0:	f8dd c01c 	ldr.w	ip, [sp, #28]
 80035f4:	2800      	cmp	r0, #0
 80035f6:	d195      	bne.n	8003524 <_vfprintf_r+0x1ac4>
 80035f8:	f1c7 0701 	rsb	r7, r7, #1
 80035fc:	9720      	str	r7, [sp, #128]	; 0x80
 80035fe:	e792      	b.n	8003526 <_vfprintf_r+0x1ac6>
 8003600:	f10c 0e01 	add.w	lr, ip, #1
 8003604:	eb02 040e 	add.w	r4, r2, lr
 8003608:	ea24 71e4 	bic.w	r1, r4, r4, asr #31
 800360c:	9410      	str	r4, [sp, #64]	; 0x40
 800360e:	910d      	str	r1, [sp, #52]	; 0x34
 8003610:	e4f0      	b.n	8002ff4 <_vfprintf_r+0x1594>
 8003612:	1c53      	adds	r3, r2, #1
 8003614:	ea23 76e3 	bic.w	r6, r3, r3, asr #31
 8003618:	9310      	str	r3, [sp, #64]	; 0x40
 800361a:	960d      	str	r6, [sp, #52]	; 0x34
 800361c:	f04f 0867 	mov.w	r8, #103	; 0x67
 8003620:	e4e8      	b.n	8002ff4 <_vfprintf_r+0x1594>
 8003622:	3330      	adds	r3, #48	; 0x30
 8003624:	2430      	movs	r4, #48	; 0x30
 8003626:	f88d 408e 	strb.w	r4, [sp, #142]	; 0x8e
 800362a:	f88d 308f 	strb.w	r3, [sp, #143]	; 0x8f
 800362e:	ae24      	add	r6, sp, #144	; 0x90
 8003630:	e72b      	b.n	800348a <_vfprintf_r+0x1a2a>
 8003632:	9811      	ldr	r0, [sp, #68]	; 0x44
 8003634:	f893 8001 	ldrb.w	r8, [r3, #1]
 8003638:	6806      	ldr	r6, [r0, #0]
 800363a:	3004      	adds	r0, #4
 800363c:	2e00      	cmp	r6, #0
 800363e:	9011      	str	r0, [sp, #68]	; 0x44
 8003640:	4623      	mov	r3, r4
 8003642:	f6be aa8b 	bge.w	8001b5c <_vfprintf_r+0xfc>
 8003646:	f04f 36ff 	mov.w	r6, #4294967295	; 0xffffffff
 800364a:	f7fe ba87 	b.w	8001b5c <_vfprintf_r+0xfc>
 800364e:	252d      	movs	r5, #45	; 0x2d
 8003650:	425b      	negs	r3, r3
 8003652:	f88d 508d 	strb.w	r5, [sp, #141]	; 0x8d
 8003656:	e6d9      	b.n	800340c <_vfprintf_r+0x19ac>
 8003658:	9e09      	ldr	r6, [sp, #36]	; 0x24
 800365a:	f016 0501 	ands.w	r5, r6, #1
 800365e:	f47f af1e 	bne.w	800349e <_vfprintf_r+0x1a3e>
 8003662:	9a10      	ldr	r2, [sp, #64]	; 0x40
 8003664:	9515      	str	r5, [sp, #84]	; 0x54
 8003666:	ea22 74e2 	bic.w	r4, r2, r2, asr #31
 800366a:	940d      	str	r4, [sp, #52]	; 0x34
 800366c:	e4c3      	b.n	8002ff6 <_vfprintf_r+0x1596>
 800366e:	f1bc 0f00 	cmp.w	ip, #0
 8003672:	d106      	bne.n	8003682 <_vfprintf_r+0x1c22>
 8003674:	9c09      	ldr	r4, [sp, #36]	; 0x24
 8003676:	07e4      	lsls	r4, r4, #31
 8003678:	d403      	bmi.n	8003682 <_vfprintf_r+0x1c22>
 800367a:	2101      	movs	r1, #1
 800367c:	910d      	str	r1, [sp, #52]	; 0x34
 800367e:	9110      	str	r1, [sp, #64]	; 0x40
 8003680:	e4b8      	b.n	8002ff4 <_vfprintf_r+0x1594>
 8003682:	f10c 0002 	add.w	r0, ip, #2
 8003686:	ea20 73e0 	bic.w	r3, r0, r0, asr #31
 800368a:	9010      	str	r0, [sp, #64]	; 0x40
 800368c:	930d      	str	r3, [sp, #52]	; 0x34
 800368e:	e4b1      	b.n	8002ff4 <_vfprintf_r+0x1594>
 8003690:	4635      	mov	r5, r6
 8003692:	e490      	b.n	8002fb6 <_vfprintf_r+0x1556>
 8003694:	f10d 068e 	add.w	r6, sp, #142	; 0x8e
 8003698:	e6f7      	b.n	800348a <_vfprintf_r+0x1a2a>
 800369a:	9820      	ldr	r0, [sp, #128]	; 0x80
 800369c:	e6ac      	b.n	80033f8 <_vfprintf_r+0x1998>
 800369e:	bf00      	nop
 80036a0:	08007640 	.word	0x08007640
 80036a4:	08007634 	.word	0x08007634

080036a8 <__sbprintf>:
__sbprintf():
 80036a8:	e92d 47f0 	stmdb	sp!, {r4, r5, r6, r7, r8, r9, sl, lr}
 80036ac:	69ce      	ldr	r6, [r1, #28]
 80036ae:	f5ad 6d8d 	sub.w	sp, sp, #1128	; 0x468
 80036b2:	f8b1 a00c 	ldrh.w	sl, [r1, #12]
 80036b6:	4688      	mov	r8, r1
 80036b8:	6e4f      	ldr	r7, [r1, #100]	; 0x64
 80036ba:	f8b1 c00e 	ldrh.w	ip, [r1, #14]
 80036be:	ac1a      	add	r4, sp, #104	; 0x68
 80036c0:	9607      	str	r6, [sp, #28]
 80036c2:	f8d8 6024 	ldr.w	r6, [r8, #36]	; 0x24
 80036c6:	f44f 6580 	mov.w	r5, #1024	; 0x400
 80036ca:	9400      	str	r4, [sp, #0]
 80036cc:	9404      	str	r4, [sp, #16]
 80036ce:	f02a 0a02 	bic.w	sl, sl, #2
 80036d2:	2400      	movs	r4, #0
 80036d4:	4669      	mov	r1, sp
 80036d6:	9406      	str	r4, [sp, #24]
 80036d8:	4681      	mov	r9, r0
 80036da:	f8ad a00c 	strh.w	sl, [sp, #12]
 80036de:	9719      	str	r7, [sp, #100]	; 0x64
 80036e0:	f8ad c00e 	strh.w	ip, [sp, #14]
 80036e4:	9609      	str	r6, [sp, #36]	; 0x24
 80036e6:	9502      	str	r5, [sp, #8]
 80036e8:	9505      	str	r5, [sp, #20]
 80036ea:	f7fe f9b9 	bl	8001a60 <_vfprintf_r>
 80036ee:	1e04      	subs	r4, r0, #0
 80036f0:	db07      	blt.n	8003702 <__sbprintf+0x5a>
 80036f2:	4648      	mov	r0, r9
 80036f4:	4669      	mov	r1, sp
 80036f6:	f001 faeb 	bl	8004cd0 <_fflush_r>
 80036fa:	2800      	cmp	r0, #0
 80036fc:	bf18      	it	ne
 80036fe:	f04f 34ff 	movne.w	r4, #4294967295	; 0xffffffff
 8003702:	f8bd 300c 	ldrh.w	r3, [sp, #12]
 8003706:	f003 0040 	and.w	r0, r3, #64	; 0x40
 800370a:	b201      	sxth	r1, r0
 800370c:	b129      	cbz	r1, 800371a <__sbprintf+0x72>
 800370e:	f8b8 200c 	ldrh.w	r2, [r8, #12]
 8003712:	f042 0340 	orr.w	r3, r2, #64	; 0x40
 8003716:	f8a8 300c 	strh.w	r3, [r8, #12]
 800371a:	4620      	mov	r0, r4
 800371c:	b01a      	add	sp, #104	; 0x68
 800371e:	f50d 6d80 	add.w	sp, sp, #1024	; 0x400
 8003722:	e8bd 87f0 	ldmia.w	sp!, {r4, r5, r6, r7, r8, r9, sl, pc}
 8003726:	bf00      	nop

08003728 <__swsetup_r>:
__swsetup_r():
 8003728:	b538      	push	{r3, r4, r5, lr}
 800372a:	4b2f      	ldr	r3, [pc, #188]	; (80037e8 <__swsetup_r+0xc0>)
 800372c:	4605      	mov	r5, r0
 800372e:	6818      	ldr	r0, [r3, #0]
 8003730:	460c      	mov	r4, r1
 8003732:	b110      	cbz	r0, 800373a <__swsetup_r+0x12>
 8003734:	6b82      	ldr	r2, [r0, #56]	; 0x38
 8003736:	2a00      	cmp	r2, #0
 8003738:	d03d      	beq.n	80037b6 <__swsetup_r+0x8e>
 800373a:	89a3      	ldrh	r3, [r4, #12]
 800373c:	f003 0008 	and.w	r0, r3, #8
 8003740:	b202      	sxth	r2, r0
 8003742:	4619      	mov	r1, r3
 8003744:	b16a      	cbz	r2, 8003762 <__swsetup_r+0x3a>
 8003746:	6922      	ldr	r2, [r4, #16]
 8003748:	b1ca      	cbz	r2, 800377e <__swsetup_r+0x56>
 800374a:	f013 0101 	ands.w	r1, r3, #1
 800374e:	d122      	bne.n	8003796 <__swsetup_r+0x6e>
 8003750:	f003 0002 	and.w	r0, r3, #2
 8003754:	b203      	sxth	r3, r0
 8003756:	b903      	cbnz	r3, 800375a <__swsetup_r+0x32>
 8003758:	6961      	ldr	r1, [r4, #20]
 800375a:	60a1      	str	r1, [r4, #8]
 800375c:	b312      	cbz	r2, 80037a4 <__swsetup_r+0x7c>
 800375e:	2000      	movs	r0, #0
 8003760:	bd38      	pop	{r3, r4, r5, pc}
 8003762:	f003 0010 	and.w	r0, r3, #16
 8003766:	b202      	sxth	r2, r0
 8003768:	b312      	cbz	r2, 80037b0 <__swsetup_r+0x88>
 800376a:	f001 0104 	and.w	r1, r1, #4
 800376e:	b208      	sxth	r0, r1
 8003770:	bb20      	cbnz	r0, 80037bc <__swsetup_r+0x94>
 8003772:	6922      	ldr	r2, [r4, #16]
 8003774:	f043 0308 	orr.w	r3, r3, #8
 8003778:	81a3      	strh	r3, [r4, #12]
 800377a:	2a00      	cmp	r2, #0
 800377c:	d1e5      	bne.n	800374a <__swsetup_r+0x22>
 800377e:	f403 7020 	and.w	r0, r3, #640	; 0x280
 8003782:	f5b0 7f00 	cmp.w	r0, #512	; 0x200
 8003786:	d0e0      	beq.n	800374a <__swsetup_r+0x22>
 8003788:	4628      	mov	r0, r5
 800378a:	4621      	mov	r1, r4
 800378c:	f001 feb8 	bl	8005500 <__smakebuf_r>
 8003790:	89a3      	ldrh	r3, [r4, #12]
 8003792:	6922      	ldr	r2, [r4, #16]
 8003794:	e7d9      	b.n	800374a <__swsetup_r+0x22>
 8003796:	6960      	ldr	r0, [r4, #20]
 8003798:	2100      	movs	r1, #0
 800379a:	4243      	negs	r3, r0
 800379c:	60a1      	str	r1, [r4, #8]
 800379e:	61a3      	str	r3, [r4, #24]
 80037a0:	2a00      	cmp	r2, #0
 80037a2:	d1dc      	bne.n	800375e <__swsetup_r+0x36>
 80037a4:	89a2      	ldrh	r2, [r4, #12]
 80037a6:	f002 0080 	and.w	r0, r2, #128	; 0x80
 80037aa:	b203      	sxth	r3, r0
 80037ac:	2b00      	cmp	r3, #0
 80037ae:	d0d6      	beq.n	800375e <__swsetup_r+0x36>
 80037b0:	f04f 30ff 	mov.w	r0, #4294967295	; 0xffffffff
 80037b4:	bd38      	pop	{r3, r4, r5, pc}
 80037b6:	f001 fb6b 	bl	8004e90 <__sinit>
 80037ba:	e7be      	b.n	800373a <__swsetup_r+0x12>
 80037bc:	6b21      	ldr	r1, [r4, #48]	; 0x30
 80037be:	b149      	cbz	r1, 80037d4 <__swsetup_r+0xac>
 80037c0:	f104 0240 	add.w	r2, r4, #64	; 0x40
 80037c4:	4291      	cmp	r1, r2
 80037c6:	d003      	beq.n	80037d0 <__swsetup_r+0xa8>
 80037c8:	4628      	mov	r0, r5
 80037ca:	f001 fbd7 	bl	8004f7c <_free_r>
 80037ce:	89a3      	ldrh	r3, [r4, #12]
 80037d0:	2100      	movs	r1, #0
 80037d2:	6321      	str	r1, [r4, #48]	; 0x30
 80037d4:	f023 0324 	bic.w	r3, r3, #36	; 0x24
 80037d8:	6922      	ldr	r2, [r4, #16]
 80037da:	0418      	lsls	r0, r3, #16
 80037dc:	2100      	movs	r1, #0
 80037de:	0c03      	lsrs	r3, r0, #16
 80037e0:	6061      	str	r1, [r4, #4]
 80037e2:	6022      	str	r2, [r4, #0]
 80037e4:	e7c6      	b.n	8003774 <__swsetup_r+0x4c>
 80037e6:	bf00      	nop
 80037e8:	20000430 	.word	0x20000430

080037ec <quorem>:
quorem():
 80037ec:	e92d 4ff0 	stmdb	sp!, {r4, r5, r6, r7, r8, r9, sl, fp, lr}
 80037f0:	6903      	ldr	r3, [r0, #16]
 80037f2:	690c      	ldr	r4, [r1, #16]
 80037f4:	b083      	sub	sp, #12
 80037f6:	429c      	cmp	r4, r3
 80037f8:	4606      	mov	r6, r0
 80037fa:	f300 816b 	bgt.w	8003ad4 <quorem+0x2e8>
 80037fe:	1ce0      	adds	r0, r4, #3
 8003800:	0082      	lsls	r2, r0, #2
 8003802:	188f      	adds	r7, r1, r2
 8003804:	18b5      	adds	r5, r6, r2
 8003806:	687b      	ldr	r3, [r7, #4]
 8003808:	6868      	ldr	r0, [r5, #4]
 800380a:	1c5a      	adds	r2, r3, #1
 800380c:	fbb0 f5f2 	udiv	r5, r0, r2
 8003810:	f101 0314 	add.w	r3, r1, #20
 8003814:	9301      	str	r3, [sp, #4]
 8003816:	3c01      	subs	r4, #1
 8003818:	3704      	adds	r7, #4
 800381a:	f106 0814 	add.w	r8, r6, #20
 800381e:	2d00      	cmp	r5, #0
 8003820:	f000 80bf 	beq.w	80039a2 <quorem+0x1b6>
 8003824:	694b      	ldr	r3, [r1, #20]
 8003826:	f8d8 2000 	ldr.w	r2, [r8]
 800382a:	b298      	uxth	r0, r3
 800382c:	ea4f 4c13 	mov.w	ip, r3, lsr #16
 8003830:	fb05 f000 	mul.w	r0, r5, r0
 8003834:	fb05 f30c 	mul.w	r3, r5, ip
 8003838:	eb03 4c10 	add.w	ip, r3, r0, lsr #16
 800383c:	fa1f fe8c 	uxth.w	lr, ip
 8003840:	b293      	uxth	r3, r2
 8003842:	b280      	uxth	r0, r0
 8003844:	1a1b      	subs	r3, r3, r0
 8003846:	ebce 4212 	rsb	r2, lr, r2, lsr #16
 800384a:	9801      	ldr	r0, [sp, #4]
 800384c:	eb02 4e23 	add.w	lr, r2, r3, asr #16
 8003850:	fa1f f983 	uxth.w	r9, r3
 8003854:	f101 0218 	add.w	r2, r1, #24
 8003858:	ea49 490e 	orr.w	r9, r9, lr, lsl #16
 800385c:	1a38      	subs	r0, r7, r0
 800385e:	f106 0318 	add.w	r3, r6, #24
 8003862:	4297      	cmp	r7, r2
 8003864:	f843 9c04 	str.w	r9, [r3, #-4]
 8003868:	f3c0 0080 	ubfx	r0, r0, #2, #1
 800386c:	ea4f 4c1c 	mov.w	ip, ip, lsr #16
 8003870:	ea4f 4e2e 	mov.w	lr, lr, asr #16
 8003874:	d372      	bcc.n	800395c <quorem+0x170>
 8003876:	b328      	cbz	r0, 80038c4 <quorem+0xd8>
 8003878:	6810      	ldr	r0, [r2, #0]
 800387a:	681b      	ldr	r3, [r3, #0]
 800387c:	b282      	uxth	r2, r0
 800387e:	0c00      	lsrs	r0, r0, #16
 8003880:	fb05 c202 	mla	r2, r5, r2, ip
 8003884:	fb05 f000 	mul.w	r0, r5, r0
 8003888:	fa1f fc83 	uxth.w	ip, r3
 800388c:	eb00 4012 	add.w	r0, r0, r2, lsr #16
 8003890:	44f4      	add	ip, lr
 8003892:	b292      	uxth	r2, r2
 8003894:	fa1f fe80 	uxth.w	lr, r0
 8003898:	ebc2 0c0c 	rsb	ip, r2, ip
 800389c:	ebce 4313 	rsb	r3, lr, r3, lsr #16
 80038a0:	eb03 4e2c 	add.w	lr, r3, ip, asr #16
 80038a4:	fa1f f28c 	uxth.w	r2, ip
 80038a8:	ea42 4c0e 	orr.w	ip, r2, lr, lsl #16
 80038ac:	f101 021c 	add.w	r2, r1, #28
 80038b0:	f106 031c 	add.w	r3, r6, #28
 80038b4:	4297      	cmp	r7, r2
 80038b6:	f843 cc04 	str.w	ip, [r3, #-4]
 80038ba:	ea4f 4e2e 	mov.w	lr, lr, asr #16
 80038be:	ea4f 4c10 	mov.w	ip, r0, lsr #16
 80038c2:	d34b      	bcc.n	800395c <quorem+0x170>
 80038c4:	4610      	mov	r0, r2
 80038c6:	f850 bb04 	ldr.w	fp, [r0], #4
 80038ca:	f8d3 9000 	ldr.w	r9, [r3]
 80038ce:	fa1f fa8b 	uxth.w	sl, fp
 80038d2:	ea4f 4b1b 	mov.w	fp, fp, lsr #16
 80038d6:	fb05 cc0a 	mla	ip, r5, sl, ip
 80038da:	fb05 fb0b 	mul.w	fp, r5, fp
 80038de:	fa1f fa89 	uxth.w	sl, r9
 80038e2:	eb0b 4b1c 	add.w	fp, fp, ip, lsr #16
 80038e6:	44d6      	add	lr, sl
 80038e8:	fa1f fc8c 	uxth.w	ip, ip
 80038ec:	fa1f fa8b 	uxth.w	sl, fp
 80038f0:	ebcc 0e0e 	rsb	lr, ip, lr
 80038f4:	ebca 4919 	rsb	r9, sl, r9, lsr #16
 80038f8:	eb09 4a2e 	add.w	sl, r9, lr, asr #16
 80038fc:	fa1f fc8e 	uxth.w	ip, lr
 8003900:	4699      	mov	r9, r3
 8003902:	ea4c 4e0a 	orr.w	lr, ip, sl, lsl #16
 8003906:	f849 eb04 	str.w	lr, [r9], #4
 800390a:	f8d2 c004 	ldr.w	ip, [r2, #4]
 800390e:	685a      	ldr	r2, [r3, #4]
 8003910:	fa1f f38c 	uxth.w	r3, ip
 8003914:	fb05 fe03 	mul.w	lr, r5, r3
 8003918:	ea4f 4c1c 	mov.w	ip, ip, lsr #16
 800391c:	fb05 f30c 	mul.w	r3, r5, ip
 8003920:	eb0e 4b1b 	add.w	fp, lr, fp, lsr #16
 8003924:	eb03 4c1b 	add.w	ip, r3, fp, lsr #16
 8003928:	b293      	uxth	r3, r2
 800392a:	fa1f fe8c 	uxth.w	lr, ip
 800392e:	eb03 432a 	add.w	r3, r3, sl, asr #16
 8003932:	fa1f fb8b 	uxth.w	fp, fp
 8003936:	ebcb 0303 	rsb	r3, fp, r3
 800393a:	ebce 4212 	rsb	r2, lr, r2, lsr #16
 800393e:	eb02 4e23 	add.w	lr, r2, r3, asr #16
 8003942:	b29a      	uxth	r2, r3
 8003944:	464b      	mov	r3, r9
 8003946:	ea42 490e 	orr.w	r9, r2, lr, lsl #16
 800394a:	1d02      	adds	r2, r0, #4
 800394c:	4297      	cmp	r7, r2
 800394e:	f843 9b04 	str.w	r9, [r3], #4
 8003952:	ea4f 4c1c 	mov.w	ip, ip, lsr #16
 8003956:	ea4f 4e2e 	mov.w	lr, lr, asr #16
 800395a:	d2b3      	bcs.n	80038c4 <quorem+0xd8>
 800395c:	1d20      	adds	r0, r4, #4
 800395e:	eb06 0380 	add.w	r3, r6, r0, lsl #2
 8003962:	685a      	ldr	r2, [r3, #4]
 8003964:	b9ea      	cbnz	r2, 80039a2 <quorem+0x1b6>
 8003966:	1d18      	adds	r0, r3, #4
 8003968:	4598      	cmp	r8, r3
 800396a:	d219      	bcs.n	80039a0 <quorem+0x1b4>
 800396c:	f850 2c04 	ldr.w	r2, [r0, #-4]
 8003970:	b9b2      	cbnz	r2, 80039a0 <quorem+0x1b4>
 8003972:	3b04      	subs	r3, #4
 8003974:	ebc8 0003 	rsb	r0, r8, r3
 8003978:	1cc2      	adds	r2, r0, #3
 800397a:	0750      	lsls	r0, r2, #29
 800397c:	d50d      	bpl.n	800399a <quorem+0x1ae>
 800397e:	3c01      	subs	r4, #1
 8003980:	4598      	cmp	r8, r3
 8003982:	d20d      	bcs.n	80039a0 <quorem+0x1b4>
 8003984:	681a      	ldr	r2, [r3, #0]
 8003986:	3b04      	subs	r3, #4
 8003988:	b13a      	cbz	r2, 800399a <quorem+0x1ae>
 800398a:	e009      	b.n	80039a0 <quorem+0x1b4>
 800398c:	6818      	ldr	r0, [r3, #0]
 800398e:	3b04      	subs	r3, #4
 8003990:	b930      	cbnz	r0, 80039a0 <quorem+0x1b4>
 8003992:	681a      	ldr	r2, [r3, #0]
 8003994:	3c01      	subs	r4, #1
 8003996:	3b04      	subs	r3, #4
 8003998:	b912      	cbnz	r2, 80039a0 <quorem+0x1b4>
 800399a:	3c01      	subs	r4, #1
 800399c:	4598      	cmp	r8, r3
 800399e:	d3f5      	bcc.n	800398c <quorem+0x1a0>
 80039a0:	6134      	str	r4, [r6, #16]
 80039a2:	4630      	mov	r0, r6
 80039a4:	f002 fee4 	bl	8006770 <__mcmp>
 80039a8:	2800      	cmp	r0, #0
 80039aa:	f2c0 8082 	blt.w	8003ab2 <quorem+0x2c6>
 80039ae:	9a01      	ldr	r2, [sp, #4]
 80039b0:	f8d8 1000 	ldr.w	r1, [r8]
 80039b4:	f852 0b04 	ldr.w	r0, [r2], #4
 80039b8:	fa1f fc81 	uxth.w	ip, r1
 80039bc:	b283      	uxth	r3, r0
 80039be:	0c00      	lsrs	r0, r0, #16
 80039c0:	ebc3 030c 	rsb	r3, r3, ip
 80039c4:	ebc0 4111 	rsb	r1, r0, r1, lsr #16
 80039c8:	eb01 4023 	add.w	r0, r1, r3, asr #16
 80039cc:	fa1f fe83 	uxth.w	lr, r3
 80039d0:	9b01      	ldr	r3, [sp, #4]
 80039d2:	ea4e 4c00 	orr.w	ip, lr, r0, lsl #16
 80039d6:	1af9      	subs	r1, r7, r3
 80039d8:	3501      	adds	r5, #1
 80039da:	4643      	mov	r3, r8
 80039dc:	1400      	asrs	r0, r0, #16
 80039de:	4297      	cmp	r7, r2
 80039e0:	f843 cb04 	str.w	ip, [r3], #4
 80039e4:	f3c1 0180 	ubfx	r1, r1, #2, #1
 80039e8:	d34b      	bcc.n	8003a82 <quorem+0x296>
 80039ea:	b1b9      	cbz	r1, 8003a1c <quorem+0x230>
 80039ec:	f852 eb04 	ldr.w	lr, [r2], #4
 80039f0:	6819      	ldr	r1, [r3, #0]
 80039f2:	fa1f f98e 	uxth.w	r9, lr
 80039f6:	fa1f fa81 	uxth.w	sl, r1
 80039fa:	ebc9 090a 	rsb	r9, r9, sl
 80039fe:	ea4f 4c1e 	mov.w	ip, lr, lsr #16
 8003a02:	4448      	add	r0, r9
 8003a04:	ebcc 4111 	rsb	r1, ip, r1, lsr #16
 8003a08:	eb01 4120 	add.w	r1, r1, r0, asr #16
 8003a0c:	b280      	uxth	r0, r0
 8003a0e:	ea40 4001 	orr.w	r0, r0, r1, lsl #16
 8003a12:	f843 0b04 	str.w	r0, [r3], #4
 8003a16:	1408      	asrs	r0, r1, #16
 8003a18:	4297      	cmp	r7, r2
 8003a1a:	d332      	bcc.n	8003a82 <quorem+0x296>
 8003a1c:	4682      	mov	sl, r0
 8003a1e:	4611      	mov	r1, r2
 8003a20:	f851 0b04 	ldr.w	r0, [r1], #4
 8003a24:	f8d3 e000 	ldr.w	lr, [r3]
 8003a28:	fa1f f980 	uxth.w	r9, r0
 8003a2c:	fa1f fb8e 	uxth.w	fp, lr
 8003a30:	ea4f 4c10 	mov.w	ip, r0, lsr #16
 8003a34:	ebc9 0b0b 	rsb	fp, r9, fp
 8003a38:	eb0b 000a 	add.w	r0, fp, sl
 8003a3c:	ebcc 4a1e 	rsb	sl, ip, lr, lsr #16
 8003a40:	eb0a 4920 	add.w	r9, sl, r0, asr #16
 8003a44:	b280      	uxth	r0, r0
 8003a46:	469e      	mov	lr, r3
 8003a48:	ea40 4009 	orr.w	r0, r0, r9, lsl #16
 8003a4c:	f84e 0b04 	str.w	r0, [lr], #4
 8003a50:	6850      	ldr	r0, [r2, #4]
 8003a52:	685a      	ldr	r2, [r3, #4]
 8003a54:	b283      	uxth	r3, r0
 8003a56:	fa1f fc82 	uxth.w	ip, r2
 8003a5a:	0c00      	lsrs	r0, r0, #16
 8003a5c:	ebc3 030c 	rsb	r3, r3, ip
 8003a60:	eb03 4329 	add.w	r3, r3, r9, asr #16
 8003a64:	ebc0 4212 	rsb	r2, r0, r2, lsr #16
 8003a68:	eb02 4023 	add.w	r0, r2, r3, asr #16
 8003a6c:	b29a      	uxth	r2, r3
 8003a6e:	ea42 4a00 	orr.w	sl, r2, r0, lsl #16
 8003a72:	1d0a      	adds	r2, r1, #4
 8003a74:	4673      	mov	r3, lr
 8003a76:	4297      	cmp	r7, r2
 8003a78:	f843 ab04 	str.w	sl, [r3], #4
 8003a7c:	ea4f 4a20 	mov.w	sl, r0, asr #16
 8003a80:	d2cd      	bcs.n	8003a1e <quorem+0x232>
 8003a82:	1d21      	adds	r1, r4, #4
 8003a84:	eb06 0381 	add.w	r3, r6, r1, lsl #2
 8003a88:	6858      	ldr	r0, [r3, #4]
 8003a8a:	b990      	cbnz	r0, 8003ab2 <quorem+0x2c6>
 8003a8c:	1d1a      	adds	r2, r3, #4
 8003a8e:	4598      	cmp	r8, r3
 8003a90:	d20e      	bcs.n	8003ab0 <quorem+0x2c4>
 8003a92:	f852 1c04 	ldr.w	r1, [r2, #-4]
 8003a96:	b959      	cbnz	r1, 8003ab0 <quorem+0x2c4>
 8003a98:	3b04      	subs	r3, #4
 8003a9a:	ebc8 0003 	rsb	r0, r8, r3
 8003a9e:	1cc2      	adds	r2, r0, #3
 8003aa0:	0752      	lsls	r2, r2, #29
 8003aa2:	d513      	bpl.n	8003acc <quorem+0x2e0>
 8003aa4:	3c01      	subs	r4, #1
 8003aa6:	4598      	cmp	r8, r3
 8003aa8:	d202      	bcs.n	8003ab0 <quorem+0x2c4>
 8003aaa:	6818      	ldr	r0, [r3, #0]
 8003aac:	3b04      	subs	r3, #4
 8003aae:	b168      	cbz	r0, 8003acc <quorem+0x2e0>
 8003ab0:	6134      	str	r4, [r6, #16]
 8003ab2:	4628      	mov	r0, r5
 8003ab4:	b003      	add	sp, #12
 8003ab6:	e8bd 8ff0 	ldmia.w	sp!, {r4, r5, r6, r7, r8, r9, sl, fp, pc}
 8003aba:	681a      	ldr	r2, [r3, #0]
 8003abc:	3b04      	subs	r3, #4
 8003abe:	2a00      	cmp	r2, #0
 8003ac0:	d1f6      	bne.n	8003ab0 <quorem+0x2c4>
 8003ac2:	6819      	ldr	r1, [r3, #0]
 8003ac4:	3c01      	subs	r4, #1
 8003ac6:	3b04      	subs	r3, #4
 8003ac8:	2900      	cmp	r1, #0
 8003aca:	d1f1      	bne.n	8003ab0 <quorem+0x2c4>
 8003acc:	3c01      	subs	r4, #1
 8003ace:	4598      	cmp	r8, r3
 8003ad0:	d3f3      	bcc.n	8003aba <quorem+0x2ce>
 8003ad2:	e7ed      	b.n	8003ab0 <quorem+0x2c4>
 8003ad4:	2000      	movs	r0, #0
 8003ad6:	e7ed      	b.n	8003ab4 <quorem+0x2c8>

08003ad8 <_dtoa_r>:
_dtoa_r():
 8003ad8:	e92d 4ff0 	stmdb	sp!, {r4, r5, r6, r7, r8, r9, sl, fp, lr}
 8003adc:	6c01      	ldr	r1, [r0, #64]	; 0x40
 8003ade:	b09f      	sub	sp, #124	; 0x7c
 8003ae0:	4681      	mov	r9, r0
 8003ae2:	9c2b      	ldr	r4, [sp, #172]	; 0xac
 8003ae4:	4692      	mov	sl, r2
 8003ae6:	469b      	mov	fp, r3
 8003ae8:	b151      	cbz	r1, 8003b00 <_dtoa_r+0x28>
 8003aea:	6c43      	ldr	r3, [r0, #68]	; 0x44
 8003aec:	2201      	movs	r2, #1
 8003aee:	fa02 f203 	lsl.w	r2, r2, r3
 8003af2:	604b      	str	r3, [r1, #4]
 8003af4:	608a      	str	r2, [r1, #8]
 8003af6:	f002 faf5 	bl	80060e4 <_Bfree>
 8003afa:	2000      	movs	r0, #0
 8003afc:	f8c9 0040 	str.w	r0, [r9, #64]	; 0x40
 8003b00:	f1bb 0800 	subs.w	r8, fp, #0
 8003b04:	db39      	blt.n	8003b7a <_dtoa_r+0xa2>
 8003b06:	2100      	movs	r1, #0
 8003b08:	6021      	str	r1, [r4, #0]
 8003b0a:	2400      	movs	r4, #0
 8003b0c:	4622      	mov	r2, r4
 8003b0e:	f6c7 74f0 	movt	r4, #32752	; 0x7ff0
 8003b12:	f6c7 72f0 	movt	r2, #32752	; 0x7ff0
 8003b16:	ea08 0304 	and.w	r3, r8, r4
 8003b1a:	4293      	cmp	r3, r2
 8003b1c:	d016      	beq.n	8003b4c <_dtoa_r+0x74>
 8003b1e:	4650      	mov	r0, sl
 8003b20:	4659      	mov	r1, fp
 8003b22:	2200      	movs	r2, #0
 8003b24:	2300      	movs	r3, #0
 8003b26:	f7fc ff7f 	bl	8000a28 <__aeabi_dcmpeq>
 8003b2a:	2800      	cmp	r0, #0
 8003b2c:	d02b      	beq.n	8003b86 <_dtoa_r+0xae>
 8003b2e:	9d2a      	ldr	r5, [sp, #168]	; 0xa8
 8003b30:	9c2c      	ldr	r4, [sp, #176]	; 0xb0
 8003b32:	2101      	movs	r1, #1
 8003b34:	6029      	str	r1, [r5, #0]
 8003b36:	2c00      	cmp	r4, #0
 8003b38:	f000 80cf 	beq.w	8003cda <_dtoa_r+0x202>
 8003b3c:	4aa2      	ldr	r2, [pc, #648]	; (8003dc8 <_dtoa_r+0x2f0>)
 8003b3e:	6022      	str	r2, [r4, #0]
 8003b40:	f102 38ff 	add.w	r8, r2, #4294967295	; 0xffffffff
 8003b44:	4640      	mov	r0, r8
 8003b46:	b01f      	add	sp, #124	; 0x7c
 8003b48:	e8bd 8ff0 	ldmia.w	sp!, {r4, r5, r6, r7, r8, r9, sl, fp, pc}
 8003b4c:	9c2a      	ldr	r4, [sp, #168]	; 0xa8
 8003b4e:	f242 750f 	movw	r5, #9999	; 0x270f
 8003b52:	6025      	str	r5, [r4, #0]
 8003b54:	f1ba 0f00 	cmp.w	sl, #0
 8003b58:	f000 80a6 	beq.w	8003ca8 <_dtoa_r+0x1d0>
 8003b5c:	f8df 8270 	ldr.w	r8, [pc, #624]	; 8003dd0 <_dtoa_r+0x2f8>
 8003b60:	9d2c      	ldr	r5, [sp, #176]	; 0xb0
 8003b62:	2d00      	cmp	r5, #0
 8003b64:	d0ee      	beq.n	8003b44 <_dtoa_r+0x6c>
 8003b66:	f898 4003 	ldrb.w	r4, [r8, #3]
 8003b6a:	2c00      	cmp	r4, #0
 8003b6c:	f000 8208 	beq.w	8003f80 <_dtoa_r+0x4a8>
 8003b70:	f108 0108 	add.w	r1, r8, #8
 8003b74:	9c2c      	ldr	r4, [sp, #176]	; 0xb0
 8003b76:	6021      	str	r1, [r4, #0]
 8003b78:	e7e4      	b.n	8003b44 <_dtoa_r+0x6c>
 8003b7a:	f028 4800 	bic.w	r8, r8, #2147483648	; 0x80000000
 8003b7e:	2501      	movs	r5, #1
 8003b80:	6025      	str	r5, [r4, #0]
 8003b82:	46c3      	mov	fp, r8
 8003b84:	e7c1      	b.n	8003b0a <_dtoa_r+0x32>
 8003b86:	ae1d      	add	r6, sp, #116	; 0x74
 8003b88:	af1c      	add	r7, sp, #112	; 0x70
 8003b8a:	4652      	mov	r2, sl
 8003b8c:	9600      	str	r6, [sp, #0]
 8003b8e:	9701      	str	r7, [sp, #4]
 8003b90:	4648      	mov	r0, r9
 8003b92:	465b      	mov	r3, fp
 8003b94:	f002 ff26 	bl	80069e4 <__d2b>
 8003b98:	f3c8 520a 	ubfx	r2, r8, #20, #11
 8003b9c:	900b      	str	r0, [sp, #44]	; 0x2c
 8003b9e:	2a00      	cmp	r2, #0
 8003ba0:	f040 808c 	bne.w	8003cbc <_dtoa_r+0x1e4>
 8003ba4:	9f1c      	ldr	r7, [sp, #112]	; 0x70
 8003ba6:	981d      	ldr	r0, [sp, #116]	; 0x74
 8003ba8:	f46f 6182 	mvn.w	r1, #1040	; 0x410
 8003bac:	183e      	adds	r6, r7, r0
 8003bae:	428e      	cmp	r6, r1
 8003bb0:	f2c0 8318 	blt.w	80041e4 <_dtoa_r+0x70c>
 8003bb4:	f64f 450e 	movw	r5, #64526	; 0xfc0e
 8003bb8:	f6cf 75ff 	movt	r5, #65535	; 0xffff
 8003bbc:	1ba8      	subs	r0, r5, r6
 8003bbe:	f206 4212 	addw	r2, r6, #1042	; 0x412
 8003bc2:	fa08 f100 	lsl.w	r1, r8, r0
 8003bc6:	fa2a f302 	lsr.w	r3, sl, r2
 8003bca:	ea41 0003 	orr.w	r0, r1, r3
 8003bce:	f7fc fc4d 	bl	800046c <__aeabi_ui2d>
 8003bd2:	2401      	movs	r4, #1
 8003bd4:	f1a1 71f8 	sub.w	r1, r1, #32505856	; 0x1f00000
 8003bd8:	3e01      	subs	r6, #1
 8003bda:	940c      	str	r4, [sp, #48]	; 0x30
 8003bdc:	2300      	movs	r3, #0
 8003bde:	2200      	movs	r2, #0
 8003be0:	f6c3 73f8 	movt	r3, #16376	; 0x3ff8
 8003be4:	f7fc fb04 	bl	80001f0 <__aeabi_dsub>
 8003be8:	a371      	add	r3, pc, #452	; (adr r3, 8003db0 <_dtoa_r+0x2d8>)
 8003bea:	e9d3 2300 	ldrd	r2, r3, [r3]
 8003bee:	f7fc fcb3 	bl	8000558 <__aeabi_dmul>
 8003bf2:	a371      	add	r3, pc, #452	; (adr r3, 8003db8 <_dtoa_r+0x2e0>)
 8003bf4:	e9d3 2300 	ldrd	r2, r3, [r3]
 8003bf8:	f7fc fafc 	bl	80001f4 <__adddf3>
 8003bfc:	4604      	mov	r4, r0
 8003bfe:	4630      	mov	r0, r6
 8003c00:	460d      	mov	r5, r1
 8003c02:	f7fc fc43 	bl	800048c <__aeabi_i2d>
 8003c06:	a36e      	add	r3, pc, #440	; (adr r3, 8003dc0 <_dtoa_r+0x2e8>)
 8003c08:	e9d3 2300 	ldrd	r2, r3, [r3]
 8003c0c:	f7fc fca4 	bl	8000558 <__aeabi_dmul>
 8003c10:	4602      	mov	r2, r0
 8003c12:	460b      	mov	r3, r1
 8003c14:	4620      	mov	r0, r4
 8003c16:	4629      	mov	r1, r5
 8003c18:	f7fc faec 	bl	80001f4 <__adddf3>
 8003c1c:	4604      	mov	r4, r0
 8003c1e:	460d      	mov	r5, r1
 8003c20:	f7fc ff34 	bl	8000a8c <__aeabi_d2iz>
 8003c24:	4629      	mov	r1, r5
 8003c26:	9007      	str	r0, [sp, #28]
 8003c28:	2200      	movs	r2, #0
 8003c2a:	4620      	mov	r0, r4
 8003c2c:	2300      	movs	r3, #0
 8003c2e:	f7fc ff05 	bl	8000a3c <__aeabi_dcmplt>
 8003c32:	2800      	cmp	r0, #0
 8003c34:	f040 82ac 	bne.w	8004190 <_dtoa_r+0x6b8>
 8003c38:	9c07      	ldr	r4, [sp, #28]
 8003c3a:	2c16      	cmp	r4, #22
 8003c3c:	f200 82a5 	bhi.w	800418a <_dtoa_r+0x6b2>
 8003c40:	4d62      	ldr	r5, [pc, #392]	; (8003dcc <_dtoa_r+0x2f4>)
 8003c42:	4652      	mov	r2, sl
 8003c44:	eb05 00c4 	add.w	r0, r5, r4, lsl #3
 8003c48:	465b      	mov	r3, fp
 8003c4a:	c803      	ldmia	r0, {r0, r1}
 8003c4c:	f7fc ff14 	bl	8000a78 <__aeabi_dcmpgt>
 8003c50:	2800      	cmp	r0, #0
 8003c52:	f000 82cf 	beq.w	80041f4 <_dtoa_r+0x71c>
 8003c56:	9a07      	ldr	r2, [sp, #28]
 8003c58:	2400      	movs	r4, #0
 8003c5a:	1e51      	subs	r1, r2, #1
 8003c5c:	9107      	str	r1, [sp, #28]
 8003c5e:	9410      	str	r4, [sp, #64]	; 0x40
 8003c60:	1bbe      	subs	r6, r7, r6
 8003c62:	3e01      	subs	r6, #1
 8003c64:	f100 82ab 	bmi.w	80041be <_dtoa_r+0x6e6>
 8003c68:	2500      	movs	r5, #0
 8003c6a:	9608      	str	r6, [sp, #32]
 8003c6c:	950a      	str	r5, [sp, #40]	; 0x28
 8003c6e:	9807      	ldr	r0, [sp, #28]
 8003c70:	2800      	cmp	r0, #0
 8003c72:	f2c0 829b 	blt.w	80041ac <_dtoa_r+0x6d4>
 8003c76:	9a08      	ldr	r2, [sp, #32]
 8003c78:	900f      	str	r0, [sp, #60]	; 0x3c
 8003c7a:	1811      	adds	r1, r2, r0
 8003c7c:	2000      	movs	r0, #0
 8003c7e:	9108      	str	r1, [sp, #32]
 8003c80:	900e      	str	r0, [sp, #56]	; 0x38
 8003c82:	9c28      	ldr	r4, [sp, #160]	; 0xa0
 8003c84:	2c09      	cmp	r4, #9
 8003c86:	d82b      	bhi.n	8003ce0 <_dtoa_r+0x208>
 8003c88:	2c05      	cmp	r4, #5
 8003c8a:	f341 801e 	ble.w	8004cca <_dtoa_r+0x11f2>
 8003c8e:	1f23      	subs	r3, r4, #4
 8003c90:	9328      	str	r3, [sp, #160]	; 0xa0
 8003c92:	2500      	movs	r5, #0
 8003c94:	9a28      	ldr	r2, [sp, #160]	; 0xa0
 8003c96:	1e91      	subs	r1, r2, #2
 8003c98:	2903      	cmp	r1, #3
 8003c9a:	d823      	bhi.n	8003ce4 <_dtoa_r+0x20c>
 8003c9c:	e8df f011 	tbh	[pc, r1, lsl #1]
 8003ca0:	05130525 	.word	0x05130525
 8003ca4:	0522032b 	.word	0x0522032b
 8003ca8:	4b49      	ldr	r3, [pc, #292]	; (8003dd0 <_dtoa_r+0x2f8>)
 8003caa:	484a      	ldr	r0, [pc, #296]	; (8003dd4 <_dtoa_r+0x2fc>)
 8003cac:	f3c8 0813 	ubfx	r8, r8, #0, #20
 8003cb0:	f1b8 0f00 	cmp.w	r8, #0
 8003cb4:	bf0c      	ite	eq
 8003cb6:	4680      	moveq	r8, r0
 8003cb8:	4698      	movne	r8, r3
 8003cba:	e751      	b.n	8003b60 <_dtoa_r+0x88>
 8003cbc:	f02b 477f 	bic.w	r7, fp, #4278190080	; 0xff000000
 8003cc0:	f427 0470 	bic.w	r4, r7, #15728640	; 0xf00000
 8003cc4:	f044 557f 	orr.w	r5, r4, #1069547520	; 0x3fc00000
 8003cc8:	f2a2 36ff 	subw	r6, r2, #1023	; 0x3ff
 8003ccc:	2200      	movs	r2, #0
 8003cce:	4650      	mov	r0, sl
 8003cd0:	f445 1140 	orr.w	r1, r5, #3145728	; 0x300000
 8003cd4:	9f1c      	ldr	r7, [sp, #112]	; 0x70
 8003cd6:	920c      	str	r2, [sp, #48]	; 0x30
 8003cd8:	e780      	b.n	8003bdc <_dtoa_r+0x104>
 8003cda:	f8df 80fc 	ldr.w	r8, [pc, #252]	; 8003dd8 <_dtoa_r+0x300>
 8003cde:	e731      	b.n	8003b44 <_dtoa_r+0x6c>
 8003ce0:	2500      	movs	r5, #0
 8003ce2:	9528      	str	r5, [sp, #160]	; 0xa0
 8003ce4:	2400      	movs	r4, #0
 8003ce6:	4621      	mov	r1, r4
 8003ce8:	f8c9 4044 	str.w	r4, [r9, #68]	; 0x44
 8003cec:	4648      	mov	r0, r9
 8003cee:	f002 f9d3 	bl	8006098 <_Balloc>
 8003cf2:	f04f 33ff 	mov.w	r3, #4294967295	; 0xffffffff
 8003cf6:	2101      	movs	r1, #1
 8003cf8:	4680      	mov	r8, r0
 8003cfa:	9309      	str	r3, [sp, #36]	; 0x24
 8003cfc:	f8c9 0040 	str.w	r0, [r9, #64]	; 0x40
 8003d00:	9311      	str	r3, [sp, #68]	; 0x44
 8003d02:	9429      	str	r4, [sp, #164]	; 0xa4
 8003d04:	910d      	str	r1, [sp, #52]	; 0x34
 8003d06:	981d      	ldr	r0, [sp, #116]	; 0x74
 8003d08:	2800      	cmp	r0, #0
 8003d0a:	f2c0 813c 	blt.w	8003f86 <_dtoa_r+0x4ae>
 8003d0e:	9a07      	ldr	r2, [sp, #28]
 8003d10:	2a0e      	cmp	r2, #14
 8003d12:	f300 8138 	bgt.w	8003f86 <_dtoa_r+0x4ae>
 8003d16:	4d2d      	ldr	r5, [pc, #180]	; (8003dcc <_dtoa_r+0x2f4>)
 8003d18:	9b29      	ldr	r3, [sp, #164]	; 0xa4
 8003d1a:	eb05 00c2 	add.w	r0, r5, r2, lsl #3
 8003d1e:	2b00      	cmp	r3, #0
 8003d20:	e9d0 4500 	ldrd	r4, r5, [r0]
 8003d24:	e9cd 4504 	strd	r4, r5, [sp, #16]
 8003d28:	f2c0 84e2 	blt.w	80046f0 <_dtoa_r+0xc18>
 8003d2c:	e9dd 2304 	ldrd	r2, r3, [sp, #16]
 8003d30:	4650      	mov	r0, sl
 8003d32:	4659      	mov	r1, fp
 8003d34:	f7fc fd3a 	bl	80007ac <__aeabi_ddiv>
 8003d38:	f7fc fea8 	bl	8000a8c <__aeabi_d2iz>
 8003d3c:	4606      	mov	r6, r0
 8003d3e:	f7fc fba5 	bl	800048c <__aeabi_i2d>
 8003d42:	e9dd 2304 	ldrd	r2, r3, [sp, #16]
 8003d46:	f7fc fc07 	bl	8000558 <__aeabi_dmul>
 8003d4a:	4602      	mov	r2, r0
 8003d4c:	460b      	mov	r3, r1
 8003d4e:	4650      	mov	r0, sl
 8003d50:	4659      	mov	r1, fp
 8003d52:	f7fc fa4d 	bl	80001f0 <__aeabi_dsub>
 8003d56:	9b09      	ldr	r3, [sp, #36]	; 0x24
 8003d58:	f106 0230 	add.w	r2, r6, #48	; 0x30
 8003d5c:	46c2      	mov	sl, r8
 8003d5e:	2b01      	cmp	r3, #1
 8003d60:	4604      	mov	r4, r0
 8003d62:	460d      	mov	r5, r1
 8003d64:	f80a 2b01 	strb.w	r2, [sl], #1
 8003d68:	f000 8095 	beq.w	8003e96 <_dtoa_r+0x3be>
 8003d6c:	2300      	movs	r3, #0
 8003d6e:	2200      	movs	r2, #0
 8003d70:	f2c4 0324 	movt	r3, #16420	; 0x4024
 8003d74:	f7fc fbf0 	bl	8000558 <__aeabi_dmul>
 8003d78:	2200      	movs	r2, #0
 8003d7a:	2300      	movs	r3, #0
 8003d7c:	4604      	mov	r4, r0
 8003d7e:	460d      	mov	r5, r1
 8003d80:	f7fc fe52 	bl	8000a28 <__aeabi_dcmpeq>
 8003d84:	2800      	cmp	r0, #0
 8003d86:	f040 80be 	bne.w	8003f06 <_dtoa_r+0x42e>
 8003d8a:	9e09      	ldr	r6, [sp, #36]	; 0x24
 8003d8c:	f108 0702 	add.w	r7, r8, #2
 8003d90:	eb08 0b06 	add.w	fp, r8, r6
 8003d94:	ebc7 000b 	rsb	r0, r7, fp
 8003d98:	07c2      	lsls	r2, r0, #31
 8003d9a:	f100 80c6 	bmi.w	8003f2a <_dtoa_r+0x452>
 8003d9e:	f8cd 8018 	str.w	r8, [sp, #24]
 8003da2:	f8cd 9020 	str.w	r9, [sp, #32]
 8003da6:	e9dd 8904 	ldrd	r8, r9, [sp, #16]
 8003daa:	e04c      	b.n	8003e46 <_dtoa_r+0x36e>
 8003dac:	f3af 8000 	nop.w
 8003db0:	636f4361 	.word	0x636f4361
 8003db4:	3fd287a7 	.word	0x3fd287a7
 8003db8:	8b60c8b3 	.word	0x8b60c8b3
 8003dbc:	3fc68a28 	.word	0x3fc68a28
 8003dc0:	509f79fb 	.word	0x509f79fb
 8003dc4:	3fd34413 	.word	0x3fd34413
 8003dc8:	0800763d 	.word	0x0800763d
 8003dcc:	08007680 	.word	0x08007680
 8003dd0:	0800765c 	.word	0x0800765c
 8003dd4:	08007650 	.word	0x08007650
 8003dd8:	0800763c 	.word	0x0800763c
 8003ddc:	f7fc fbbc 	bl	8000558 <__aeabi_dmul>
 8003de0:	2200      	movs	r2, #0
 8003de2:	2300      	movs	r3, #0
 8003de4:	4604      	mov	r4, r0
 8003de6:	460d      	mov	r5, r1
 8003de8:	f7fc fe1e 	bl	8000a28 <__aeabi_dcmpeq>
 8003dec:	4642      	mov	r2, r8
 8003dee:	464b      	mov	r3, r9
 8003df0:	2800      	cmp	r0, #0
 8003df2:	f040 8575 	bne.w	80048e0 <_dtoa_r+0xe08>
 8003df6:	4620      	mov	r0, r4
 8003df8:	4629      	mov	r1, r5
 8003dfa:	f7fc fcd7 	bl	80007ac <__aeabi_ddiv>
 8003dfe:	f7fc fe45 	bl	8000a8c <__aeabi_d2iz>
 8003e02:	4606      	mov	r6, r0
 8003e04:	f7fc fb42 	bl	800048c <__aeabi_i2d>
 8003e08:	4642      	mov	r2, r8
 8003e0a:	464b      	mov	r3, r9
 8003e0c:	f7fc fba4 	bl	8000558 <__aeabi_dmul>
 8003e10:	4602      	mov	r2, r0
 8003e12:	460b      	mov	r3, r1
 8003e14:	4620      	mov	r0, r4
 8003e16:	4629      	mov	r1, r5
 8003e18:	f7fc f9ea 	bl	80001f0 <__aeabi_dsub>
 8003e1c:	3630      	adds	r6, #48	; 0x30
 8003e1e:	2300      	movs	r3, #0
 8003e20:	2200      	movs	r2, #0
 8003e22:	f2c4 0324 	movt	r3, #16420	; 0x4024
 8003e26:	f807 6c01 	strb.w	r6, [r7, #-1]
 8003e2a:	f7fc fb95 	bl	8000558 <__aeabi_dmul>
 8003e2e:	2200      	movs	r2, #0
 8003e30:	2300      	movs	r3, #0
 8003e32:	46ba      	mov	sl, r7
 8003e34:	4604      	mov	r4, r0
 8003e36:	460d      	mov	r5, r1
 8003e38:	f107 0701 	add.w	r7, r7, #1
 8003e3c:	f7fc fdf4 	bl	8000a28 <__aeabi_dcmpeq>
 8003e40:	2800      	cmp	r0, #0
 8003e42:	f040 854d 	bne.w	80048e0 <_dtoa_r+0xe08>
 8003e46:	4642      	mov	r2, r8
 8003e48:	464b      	mov	r3, r9
 8003e4a:	4620      	mov	r0, r4
 8003e4c:	4629      	mov	r1, r5
 8003e4e:	f7fc fcad 	bl	80007ac <__aeabi_ddiv>
 8003e52:	f7fc fe1b 	bl	8000a8c <__aeabi_d2iz>
 8003e56:	4606      	mov	r6, r0
 8003e58:	f7fc fb18 	bl	800048c <__aeabi_i2d>
 8003e5c:	4642      	mov	r2, r8
 8003e5e:	464b      	mov	r3, r9
 8003e60:	f7fc fb7a 	bl	8000558 <__aeabi_dmul>
 8003e64:	4602      	mov	r2, r0
 8003e66:	460b      	mov	r3, r1
 8003e68:	4620      	mov	r0, r4
 8003e6a:	4629      	mov	r1, r5
 8003e6c:	f7fc f9c0 	bl	80001f0 <__aeabi_dsub>
 8003e70:	2300      	movs	r3, #0
 8003e72:	2200      	movs	r2, #0
 8003e74:	f106 0c30 	add.w	ip, r6, #48	; 0x30
 8003e78:	455f      	cmp	r7, fp
 8003e7a:	f807 cc01 	strb.w	ip, [r7, #-1]
 8003e7e:	46ba      	mov	sl, r7
 8003e80:	4604      	mov	r4, r0
 8003e82:	460d      	mov	r5, r1
 8003e84:	f2c4 0324 	movt	r3, #16420	; 0x4024
 8003e88:	f107 0701 	add.w	r7, r7, #1
 8003e8c:	d1a6      	bne.n	8003ddc <_dtoa_r+0x304>
 8003e8e:	f8dd 8018 	ldr.w	r8, [sp, #24]
 8003e92:	f8dd 9020 	ldr.w	r9, [sp, #32]
 8003e96:	4622      	mov	r2, r4
 8003e98:	462b      	mov	r3, r5
 8003e9a:	4620      	mov	r0, r4
 8003e9c:	4629      	mov	r1, r5
 8003e9e:	f7fc f9a9 	bl	80001f4 <__adddf3>
 8003ea2:	4604      	mov	r4, r0
 8003ea4:	460d      	mov	r5, r1
 8003ea6:	4622      	mov	r2, r4
 8003ea8:	e9dd 0104 	ldrd	r0, r1, [sp, #16]
 8003eac:	462b      	mov	r3, r5
 8003eae:	f7fc fdc5 	bl	8000a3c <__aeabi_dcmplt>
 8003eb2:	b940      	cbnz	r0, 8003ec6 <_dtoa_r+0x3ee>
 8003eb4:	e9dd 0104 	ldrd	r0, r1, [sp, #16]
 8003eb8:	4622      	mov	r2, r4
 8003eba:	462b      	mov	r3, r5
 8003ebc:	f7fc fdb4 	bl	8000a28 <__aeabi_dcmpeq>
 8003ec0:	b308      	cbz	r0, 8003f06 <_dtoa_r+0x42e>
 8003ec2:	07f0      	lsls	r0, r6, #31
 8003ec4:	d51f      	bpl.n	8003f06 <_dtoa_r+0x42e>
 8003ec6:	f81a 7c01 	ldrb.w	r7, [sl, #-1]
 8003eca:	ea6f 0108 	mvn.w	r1, r8
 8003ece:	eb0a 0201 	add.w	r2, sl, r1
 8003ed2:	07d1      	lsls	r1, r2, #31
 8003ed4:	d506      	bpl.n	8003ee4 <_dtoa_r+0x40c>
 8003ed6:	2f39      	cmp	r7, #57	; 0x39
 8003ed8:	f10a 33ff 	add.w	r3, sl, #4294967295	; 0xffffffff
 8003edc:	d110      	bne.n	8003f00 <_dtoa_r+0x428>
 8003ede:	f813 7c01 	ldrb.w	r7, [r3, #-1]
 8003ee2:	469a      	mov	sl, r3
 8003ee4:	2f39      	cmp	r7, #57	; 0x39
 8003ee6:	f10a 33ff 	add.w	r3, sl, #4294967295	; 0xffffffff
 8003eea:	d109      	bne.n	8003f00 <_dtoa_r+0x428>
 8003eec:	4598      	cmp	r8, r3
 8003eee:	f000 8505 	beq.w	80048fc <_dtoa_r+0xe24>
 8003ef2:	f813 7c01 	ldrb.w	r7, [r3, #-1]
 8003ef6:	469a      	mov	sl, r3
 8003ef8:	2f39      	cmp	r7, #57	; 0x39
 8003efa:	f103 33ff 	add.w	r3, r3, #4294967295	; 0xffffffff
 8003efe:	d0ee      	beq.n	8003ede <_dtoa_r+0x406>
 8003f00:	1c78      	adds	r0, r7, #1
 8003f02:	b2c4      	uxtb	r4, r0
 8003f04:	701c      	strb	r4, [r3, #0]
 8003f06:	4648      	mov	r0, r9
 8003f08:	990b      	ldr	r1, [sp, #44]	; 0x2c
 8003f0a:	f002 f8eb 	bl	80060e4 <_Bfree>
 8003f0e:	2400      	movs	r4, #0
 8003f10:	9b07      	ldr	r3, [sp, #28]
 8003f12:	f88a 4000 	strb.w	r4, [sl]
 8003f16:	9d2a      	ldr	r5, [sp, #168]	; 0xa8
 8003f18:	9c2c      	ldr	r4, [sp, #176]	; 0xb0
 8003f1a:	1c58      	adds	r0, r3, #1
 8003f1c:	6028      	str	r0, [r5, #0]
 8003f1e:	2c00      	cmp	r4, #0
 8003f20:	f43f ae10 	beq.w	8003b44 <_dtoa_r+0x6c>
 8003f24:	f8c4 a000 	str.w	sl, [r4]
 8003f28:	e60c      	b.n	8003b44 <_dtoa_r+0x6c>
 8003f2a:	e9dd 2304 	ldrd	r2, r3, [sp, #16]
 8003f2e:	4620      	mov	r0, r4
 8003f30:	4629      	mov	r1, r5
 8003f32:	f7fc fc3b 	bl	80007ac <__aeabi_ddiv>
 8003f36:	f7fc fda9 	bl	8000a8c <__aeabi_d2iz>
 8003f3a:	4606      	mov	r6, r0
 8003f3c:	f7fc faa6 	bl	800048c <__aeabi_i2d>
 8003f40:	e9dd 2304 	ldrd	r2, r3, [sp, #16]
 8003f44:	f7fc fb08 	bl	8000558 <__aeabi_dmul>
 8003f48:	4602      	mov	r2, r0
 8003f4a:	460b      	mov	r3, r1
 8003f4c:	4620      	mov	r0, r4
 8003f4e:	4629      	mov	r1, r5
 8003f50:	f7fc f94e 	bl	80001f0 <__aeabi_dsub>
 8003f54:	3630      	adds	r6, #48	; 0x30
 8003f56:	2300      	movs	r3, #0
 8003f58:	2200      	movs	r2, #0
 8003f5a:	f2c4 0324 	movt	r3, #16420	; 0x4024
 8003f5e:	f807 6c01 	strb.w	r6, [r7, #-1]
 8003f62:	f7fc faf9 	bl	8000558 <__aeabi_dmul>
 8003f66:	2200      	movs	r2, #0
 8003f68:	2300      	movs	r3, #0
 8003f6a:	46ba      	mov	sl, r7
 8003f6c:	4604      	mov	r4, r0
 8003f6e:	460d      	mov	r5, r1
 8003f70:	f108 0703 	add.w	r7, r8, #3
 8003f74:	f7fc fd58 	bl	8000a28 <__aeabi_dcmpeq>
 8003f78:	2800      	cmp	r0, #0
 8003f7a:	f43f af10 	beq.w	8003d9e <_dtoa_r+0x2c6>
 8003f7e:	e7c2      	b.n	8003f06 <_dtoa_r+0x42e>
 8003f80:	f108 0103 	add.w	r1, r8, #3
 8003f84:	e5f6      	b.n	8003b74 <_dtoa_r+0x9c>
 8003f86:	9f0d      	ldr	r7, [sp, #52]	; 0x34
 8003f88:	2f00      	cmp	r7, #0
 8003f8a:	f000 811d 	beq.w	80041c8 <_dtoa_r+0x6f0>
 8003f8e:	9c28      	ldr	r4, [sp, #160]	; 0xa0
 8003f90:	2c01      	cmp	r4, #1
 8003f92:	f340 83dc 	ble.w	800474e <_dtoa_r+0xc76>
 8003f96:	9909      	ldr	r1, [sp, #36]	; 0x24
 8003f98:	9a0e      	ldr	r2, [sp, #56]	; 0x38
 8003f9a:	1e48      	subs	r0, r1, #1
 8003f9c:	4282      	cmp	r2, r0
 8003f9e:	f2c0 84b8 	blt.w	8004912 <_dtoa_r+0xe3a>
 8003fa2:	1a15      	subs	r5, r2, r0
 8003fa4:	9909      	ldr	r1, [sp, #36]	; 0x24
 8003fa6:	2900      	cmp	r1, #0
 8003fa8:	f2c0 8607 	blt.w	8004bba <_dtoa_r+0x10e2>
 8003fac:	9c0a      	ldr	r4, [sp, #40]	; 0x28
 8003fae:	9f09      	ldr	r7, [sp, #36]	; 0x24
 8003fb0:	9a0a      	ldr	r2, [sp, #40]	; 0x28
 8003fb2:	4648      	mov	r0, r9
 8003fb4:	19d3      	adds	r3, r2, r7
 8003fb6:	9a08      	ldr	r2, [sp, #32]
 8003fb8:	2101      	movs	r1, #1
 8003fba:	19d7      	adds	r7, r2, r7
 8003fbc:	930a      	str	r3, [sp, #40]	; 0x28
 8003fbe:	9708      	str	r7, [sp, #32]
 8003fc0:	f002 f964 	bl	800628c <__i2b>
 8003fc4:	900c      	str	r0, [sp, #48]	; 0x30
 8003fc6:	b164      	cbz	r4, 8003fe2 <_dtoa_r+0x50a>
 8003fc8:	9808      	ldr	r0, [sp, #32]
 8003fca:	2800      	cmp	r0, #0
 8003fcc:	dd09      	ble.n	8003fe2 <_dtoa_r+0x50a>
 8003fce:	990a      	ldr	r1, [sp, #40]	; 0x28
 8003fd0:	4603      	mov	r3, r0
 8003fd2:	42a3      	cmp	r3, r4
 8003fd4:	bfa8      	it	ge
 8003fd6:	4623      	movge	r3, r4
 8003fd8:	1aca      	subs	r2, r1, r3
 8003fda:	1ac7      	subs	r7, r0, r3
 8003fdc:	920a      	str	r2, [sp, #40]	; 0x28
 8003fde:	1ae4      	subs	r4, r4, r3
 8003fe0:	9708      	str	r7, [sp, #32]
 8003fe2:	980e      	ldr	r0, [sp, #56]	; 0x38
 8003fe4:	2800      	cmp	r0, #0
 8003fe6:	dd1a      	ble.n	800401e <_dtoa_r+0x546>
 8003fe8:	9b0d      	ldr	r3, [sp, #52]	; 0x34
 8003fea:	2b00      	cmp	r3, #0
 8003fec:	f000 847e 	beq.w	80048ec <_dtoa_r+0xe14>
 8003ff0:	2d00      	cmp	r5, #0
 8003ff2:	dd10      	ble.n	8004016 <_dtoa_r+0x53e>
 8003ff4:	990c      	ldr	r1, [sp, #48]	; 0x30
 8003ff6:	462a      	mov	r2, r5
 8003ff8:	4648      	mov	r0, r9
 8003ffa:	f002 fab9 	bl	8006570 <__pow5mult>
 8003ffe:	900c      	str	r0, [sp, #48]	; 0x30
 8004000:	990c      	ldr	r1, [sp, #48]	; 0x30
 8004002:	9a0b      	ldr	r2, [sp, #44]	; 0x2c
 8004004:	4648      	mov	r0, r9
 8004006:	f002 f94b 	bl	80062a0 <__multiply>
 800400a:	990b      	ldr	r1, [sp, #44]	; 0x2c
 800400c:	4606      	mov	r6, r0
 800400e:	4648      	mov	r0, r9
 8004010:	f002 f868 	bl	80060e4 <_Bfree>
 8004014:	960b      	str	r6, [sp, #44]	; 0x2c
 8004016:	990e      	ldr	r1, [sp, #56]	; 0x38
 8004018:	1b4a      	subs	r2, r1, r5
 800401a:	f040 8392 	bne.w	8004742 <_dtoa_r+0xc6a>
 800401e:	2101      	movs	r1, #1
 8004020:	4648      	mov	r0, r9
 8004022:	f002 f933 	bl	800628c <__i2b>
 8004026:	9d0f      	ldr	r5, [sp, #60]	; 0x3c
 8004028:	4607      	mov	r7, r0
 800402a:	2d00      	cmp	r5, #0
 800402c:	dd05      	ble.n	800403a <_dtoa_r+0x562>
 800402e:	4639      	mov	r1, r7
 8004030:	4648      	mov	r0, r9
 8004032:	462a      	mov	r2, r5
 8004034:	f002 fa9c 	bl	8006570 <__pow5mult>
 8004038:	4607      	mov	r7, r0
 800403a:	9a28      	ldr	r2, [sp, #160]	; 0xa0
 800403c:	2a01      	cmp	r2, #1
 800403e:	f340 8141 	ble.w	80042c4 <_dtoa_r+0x7ec>
 8004042:	2500      	movs	r5, #0
 8004044:	990f      	ldr	r1, [sp, #60]	; 0x3c
 8004046:	2900      	cmp	r1, #0
 8004048:	f040 83f5 	bne.w	8004836 <_dtoa_r+0xd5e>
 800404c:	2201      	movs	r2, #1
 800404e:	9908      	ldr	r1, [sp, #32]
 8004050:	1852      	adds	r2, r2, r1
 8004052:	f012 001f 	ands.w	r0, r2, #31
 8004056:	f000 80bc 	beq.w	80041d2 <_dtoa_r+0x6fa>
 800405a:	f1c0 0220 	rsb	r2, r0, #32
 800405e:	2a04      	cmp	r2, #4
 8004060:	f340 862d 	ble.w	8004cbe <_dtoa_r+0x11e6>
 8004064:	9a0a      	ldr	r2, [sp, #40]	; 0x28
 8004066:	f1c0 001c 	rsb	r0, r0, #28
 800406a:	1813      	adds	r3, r2, r0
 800406c:	1809      	adds	r1, r1, r0
 800406e:	930a      	str	r3, [sp, #40]	; 0x28
 8004070:	1824      	adds	r4, r4, r0
 8004072:	9108      	str	r1, [sp, #32]
 8004074:	9a0a      	ldr	r2, [sp, #40]	; 0x28
 8004076:	2a00      	cmp	r2, #0
 8004078:	dd04      	ble.n	8004084 <_dtoa_r+0x5ac>
 800407a:	4648      	mov	r0, r9
 800407c:	990b      	ldr	r1, [sp, #44]	; 0x2c
 800407e:	f002 fac1 	bl	8006604 <__lshift>
 8004082:	900b      	str	r0, [sp, #44]	; 0x2c
 8004084:	9a08      	ldr	r2, [sp, #32]
 8004086:	2a00      	cmp	r2, #0
 8004088:	dd04      	ble.n	8004094 <_dtoa_r+0x5bc>
 800408a:	4639      	mov	r1, r7
 800408c:	4648      	mov	r0, r9
 800408e:	f002 fab9 	bl	8006604 <__lshift>
 8004092:	4607      	mov	r7, r0
 8004094:	9810      	ldr	r0, [sp, #64]	; 0x40
 8004096:	2800      	cmp	r0, #0
 8004098:	f040 83b5 	bne.w	8004806 <_dtoa_r+0xd2e>
 800409c:	9909      	ldr	r1, [sp, #36]	; 0x24
 800409e:	2900      	cmp	r1, #0
 80040a0:	f340 83d2 	ble.w	8004848 <_dtoa_r+0xd70>
 80040a4:	980d      	ldr	r0, [sp, #52]	; 0x34
 80040a6:	2800      	cmp	r0, #0
 80040a8:	f040 80a6 	bne.w	80041f8 <_dtoa_r+0x720>
 80040ac:	9c09      	ldr	r4, [sp, #36]	; 0x24
 80040ae:	9d0d      	ldr	r5, [sp, #52]	; 0x34
 80040b0:	07e3      	lsls	r3, r4, #31
 80040b2:	f140 8389 	bpl.w	80047c8 <_dtoa_r+0xcf0>
 80040b6:	46a2      	mov	sl, r4
 80040b8:	9e0b      	ldr	r6, [sp, #44]	; 0x2c
 80040ba:	e010      	b.n	80040de <_dtoa_r+0x606>
 80040bc:	f002 f81c 	bl	80060f8 <__multadd>
 80040c0:	4639      	mov	r1, r7
 80040c2:	4606      	mov	r6, r0
 80040c4:	f7ff fb92 	bl	80037ec <quorem>
 80040c8:	3030      	adds	r0, #48	; 0x30
 80040ca:	f808 0004 	strb.w	r0, [r8, r4]
 80040ce:	4631      	mov	r1, r6
 80040d0:	4648      	mov	r0, r9
 80040d2:	220a      	movs	r2, #10
 80040d4:	2300      	movs	r3, #0
 80040d6:	f002 f80f 	bl	80060f8 <__multadd>
 80040da:	1c65      	adds	r5, r4, #1
 80040dc:	4606      	mov	r6, r0
 80040de:	4639      	mov	r1, r7
 80040e0:	4630      	mov	r0, r6
 80040e2:	f7ff fb83 	bl	80037ec <quorem>
 80040e6:	1c6c      	adds	r4, r5, #1
 80040e8:	f100 0b30 	add.w	fp, r0, #48	; 0x30
 80040ec:	220a      	movs	r2, #10
 80040ee:	2300      	movs	r3, #0
 80040f0:	45a2      	cmp	sl, r4
 80040f2:	4631      	mov	r1, r6
 80040f4:	4648      	mov	r0, r9
 80040f6:	f808 b005 	strb.w	fp, [r8, r5]
 80040fa:	dcdf      	bgt.n	80040bc <_dtoa_r+0x5e4>
 80040fc:	960b      	str	r6, [sp, #44]	; 0x2c
 80040fe:	9909      	ldr	r1, [sp, #36]	; 0x24
 8004100:	2500      	movs	r5, #0
 8004102:	2901      	cmp	r1, #1
 8004104:	bfac      	ite	ge
 8004106:	eb08 0a01 	addge.w	sl, r8, r1
 800410a:	f108 0a01 	addlt.w	sl, r8, #1
 800410e:	2201      	movs	r2, #1
 8004110:	990b      	ldr	r1, [sp, #44]	; 0x2c
 8004112:	4648      	mov	r0, r9
 8004114:	f002 fa76 	bl	8006604 <__lshift>
 8004118:	4639      	mov	r1, r7
 800411a:	900b      	str	r0, [sp, #44]	; 0x2c
 800411c:	f002 fb28 	bl	8006770 <__mcmp>
 8004120:	2800      	cmp	r0, #0
 8004122:	f340 842b 	ble.w	800497c <_dtoa_r+0xea4>
 8004126:	f81a 2c01 	ldrb.w	r2, [sl, #-1]
 800412a:	ea6f 0308 	mvn.w	r3, r8
 800412e:	eb0a 0103 	add.w	r1, sl, r3
 8004132:	07cc      	lsls	r4, r1, #31
 8004134:	d506      	bpl.n	8004144 <_dtoa_r+0x66c>
 8004136:	2a39      	cmp	r2, #57	; 0x39
 8004138:	f10a 34ff 	add.w	r4, sl, #4294967295	; 0xffffffff
 800413c:	d110      	bne.n	8004160 <_dtoa_r+0x688>
 800413e:	f814 2c01 	ldrb.w	r2, [r4, #-1]
 8004142:	46a2      	mov	sl, r4
 8004144:	2a39      	cmp	r2, #57	; 0x39
 8004146:	f10a 34ff 	add.w	r4, sl, #4294967295	; 0xffffffff
 800414a:	d109      	bne.n	8004160 <_dtoa_r+0x688>
 800414c:	45a0      	cmp	r8, r4
 800414e:	f000 8353 	beq.w	80047f8 <_dtoa_r+0xd20>
 8004152:	f814 2c01 	ldrb.w	r2, [r4, #-1]
 8004156:	46a2      	mov	sl, r4
 8004158:	2a39      	cmp	r2, #57	; 0x39
 800415a:	f104 34ff 	add.w	r4, r4, #4294967295	; 0xffffffff
 800415e:	d0ee      	beq.n	800413e <_dtoa_r+0x666>
 8004160:	1c50      	adds	r0, r2, #1
 8004162:	7020      	strb	r0, [r4, #0]
 8004164:	4648      	mov	r0, r9
 8004166:	4639      	mov	r1, r7
 8004168:	f001 ffbc 	bl	80060e4 <_Bfree>
 800416c:	9a0c      	ldr	r2, [sp, #48]	; 0x30
 800416e:	2a00      	cmp	r2, #0
 8004170:	f43f aec9 	beq.w	8003f06 <_dtoa_r+0x42e>
 8004174:	2d00      	cmp	r5, #0
 8004176:	f000 82de 	beq.w	8004736 <_dtoa_r+0xc5e>
 800417a:	4295      	cmp	r5, r2
 800417c:	f000 82db 	beq.w	8004736 <_dtoa_r+0xc5e>
 8004180:	4648      	mov	r0, r9
 8004182:	4629      	mov	r1, r5
 8004184:	f001 ffae 	bl	80060e4 <_Bfree>
 8004188:	e2d5      	b.n	8004736 <_dtoa_r+0xc5e>
 800418a:	2301      	movs	r3, #1
 800418c:	9310      	str	r3, [sp, #64]	; 0x40
 800418e:	e567      	b.n	8003c60 <_dtoa_r+0x188>
 8004190:	9807      	ldr	r0, [sp, #28]
 8004192:	f7fc f97b 	bl	800048c <__aeabi_i2d>
 8004196:	4622      	mov	r2, r4
 8004198:	462b      	mov	r3, r5
 800419a:	f7fc fc45 	bl	8000a28 <__aeabi_dcmpeq>
 800419e:	2800      	cmp	r0, #0
 80041a0:	f47f ad4a 	bne.w	8003c38 <_dtoa_r+0x160>
 80041a4:	9807      	ldr	r0, [sp, #28]
 80041a6:	1e41      	subs	r1, r0, #1
 80041a8:	9107      	str	r1, [sp, #28]
 80041aa:	e545      	b.n	8003c38 <_dtoa_r+0x160>
 80041ac:	9a0a      	ldr	r2, [sp, #40]	; 0x28
 80041ae:	9907      	ldr	r1, [sp, #28]
 80041b0:	2500      	movs	r5, #0
 80041b2:	1a54      	subs	r4, r2, r1
 80041b4:	424b      	negs	r3, r1
 80041b6:	940a      	str	r4, [sp, #40]	; 0x28
 80041b8:	930e      	str	r3, [sp, #56]	; 0x38
 80041ba:	950f      	str	r5, [sp, #60]	; 0x3c
 80041bc:	e561      	b.n	8003c82 <_dtoa_r+0x1aa>
 80041be:	4276      	negs	r6, r6
 80041c0:	2300      	movs	r3, #0
 80041c2:	960a      	str	r6, [sp, #40]	; 0x28
 80041c4:	9308      	str	r3, [sp, #32]
 80041c6:	e552      	b.n	8003c6e <_dtoa_r+0x196>
 80041c8:	9b0d      	ldr	r3, [sp, #52]	; 0x34
 80041ca:	9d0e      	ldr	r5, [sp, #56]	; 0x38
 80041cc:	9c0a      	ldr	r4, [sp, #40]	; 0x28
 80041ce:	930c      	str	r3, [sp, #48]	; 0x30
 80041d0:	e6f9      	b.n	8003fc6 <_dtoa_r+0x4ee>
 80041d2:	231c      	movs	r3, #28
 80041d4:	990a      	ldr	r1, [sp, #40]	; 0x28
 80041d6:	9a08      	ldr	r2, [sp, #32]
 80041d8:	18c8      	adds	r0, r1, r3
 80041da:	18e4      	adds	r4, r4, r3
 80041dc:	18d3      	adds	r3, r2, r3
 80041de:	900a      	str	r0, [sp, #40]	; 0x28
 80041e0:	9308      	str	r3, [sp, #32]
 80041e2:	e747      	b.n	8004074 <_dtoa_r+0x59c>
 80041e4:	f64f 33ee 	movw	r3, #64494	; 0xfbee
 80041e8:	f6cf 73ff 	movt	r3, #65535	; 0xffff
 80041ec:	1b9c      	subs	r4, r3, r6
 80041ee:	fa0a f004 	lsl.w	r0, sl, r4
 80041f2:	e4ec      	b.n	8003bce <_dtoa_r+0xf6>
 80041f4:	9010      	str	r0, [sp, #64]	; 0x40
 80041f6:	e533      	b.n	8003c60 <_dtoa_r+0x188>
 80041f8:	2c00      	cmp	r4, #0
 80041fa:	dd05      	ble.n	8004208 <_dtoa_r+0x730>
 80041fc:	4648      	mov	r0, r9
 80041fe:	990c      	ldr	r1, [sp, #48]	; 0x30
 8004200:	4622      	mov	r2, r4
 8004202:	f002 f9ff 	bl	8006604 <__lshift>
 8004206:	900c      	str	r0, [sp, #48]	; 0x30
 8004208:	2d00      	cmp	r5, #0
 800420a:	f040 83f0 	bne.w	80049ee <_dtoa_r+0xf16>
 800420e:	9e0c      	ldr	r6, [sp, #48]	; 0x30
 8004210:	9809      	ldr	r0, [sp, #36]	; 0x24
 8004212:	f108 0401 	add.w	r4, r8, #1
 8004216:	eb08 0100 	add.w	r1, r8, r0
 800421a:	9d0c      	ldr	r5, [sp, #48]	; 0x30
 800421c:	f00a 0201 	and.w	r2, sl, #1
 8004220:	f8cd 8030 	str.w	r8, [sp, #48]	; 0x30
 8004224:	f8dd 802c 	ldr.w	r8, [sp, #44]	; 0x2c
 8004228:	9109      	str	r1, [sp, #36]	; 0x24
 800422a:	920a      	str	r2, [sp, #40]	; 0x28
 800422c:	4639      	mov	r1, r7
 800422e:	4640      	mov	r0, r8
 8004230:	f7ff fadc 	bl	80037ec <quorem>
 8004234:	4629      	mov	r1, r5
 8004236:	4682      	mov	sl, r0
 8004238:	4640      	mov	r0, r8
 800423a:	f002 fa99 	bl	8006770 <__mcmp>
 800423e:	4632      	mov	r2, r6
 8004240:	9006      	str	r0, [sp, #24]
 8004242:	4639      	mov	r1, r7
 8004244:	4648      	mov	r0, r9
 8004246:	f002 fac1 	bl	80067cc <__mdiff>
 800424a:	68c3      	ldr	r3, [r0, #12]
 800424c:	4602      	mov	r2, r0
 800424e:	1e60      	subs	r0, r4, #1
 8004250:	9008      	str	r0, [sp, #32]
 8004252:	f10a 0b30 	add.w	fp, sl, #48	; 0x30
 8004256:	2b00      	cmp	r3, #0
 8004258:	f000 8282 	beq.w	8004760 <_dtoa_r+0xc88>
 800425c:	4648      	mov	r0, r9
 800425e:	4611      	mov	r1, r2
 8004260:	f001 ff40 	bl	80060e4 <_Bfree>
 8004264:	2301      	movs	r3, #1
 8004266:	9906      	ldr	r1, [sp, #24]
 8004268:	2900      	cmp	r1, #0
 800426a:	f2c0 8366 	blt.w	800493a <_dtoa_r+0xe62>
 800426e:	d105      	bne.n	800427c <_dtoa_r+0x7a4>
 8004270:	9a28      	ldr	r2, [sp, #160]	; 0xa0
 8004272:	b91a      	cbnz	r2, 800427c <_dtoa_r+0x7a4>
 8004274:	980a      	ldr	r0, [sp, #40]	; 0x28
 8004276:	2800      	cmp	r0, #0
 8004278:	f000 835f 	beq.w	800493a <_dtoa_r+0xe62>
 800427c:	2b00      	cmp	r3, #0
 800427e:	f300 83ce 	bgt.w	8004a1e <_dtoa_r+0xf46>
 8004282:	9b09      	ldr	r3, [sp, #36]	; 0x24
 8004284:	f804 bc01 	strb.w	fp, [r4, #-1]
 8004288:	429c      	cmp	r4, r3
 800428a:	46a2      	mov	sl, r4
 800428c:	f000 83d7 	beq.w	8004a3e <_dtoa_r+0xf66>
 8004290:	4641      	mov	r1, r8
 8004292:	220a      	movs	r2, #10
 8004294:	2300      	movs	r3, #0
 8004296:	4648      	mov	r0, r9
 8004298:	f001 ff2e 	bl	80060f8 <__multadd>
 800429c:	42b5      	cmp	r5, r6
 800429e:	4680      	mov	r8, r0
 80042a0:	f000 8288 	beq.w	80047b4 <_dtoa_r+0xcdc>
 80042a4:	4629      	mov	r1, r5
 80042a6:	220a      	movs	r2, #10
 80042a8:	2300      	movs	r3, #0
 80042aa:	4648      	mov	r0, r9
 80042ac:	f001 ff24 	bl	80060f8 <__multadd>
 80042b0:	4631      	mov	r1, r6
 80042b2:	4605      	mov	r5, r0
 80042b4:	220a      	movs	r2, #10
 80042b6:	4648      	mov	r0, r9
 80042b8:	2300      	movs	r3, #0
 80042ba:	f001 ff1d 	bl	80060f8 <__multadd>
 80042be:	3401      	adds	r4, #1
 80042c0:	4606      	mov	r6, r0
 80042c2:	e7b3      	b.n	800422c <_dtoa_r+0x754>
 80042c4:	f1ba 0f00 	cmp.w	sl, #0
 80042c8:	f47f aebb 	bne.w	8004042 <_dtoa_r+0x56a>
 80042cc:	f3cb 0313 	ubfx	r3, fp, #0, #20
 80042d0:	4658      	mov	r0, fp
 80042d2:	2b00      	cmp	r3, #0
 80042d4:	f040 8476 	bne.w	8004bc4 <_dtoa_r+0x10ec>
 80042d8:	2500      	movs	r5, #0
 80042da:	f6c7 75f0 	movt	r5, #32752	; 0x7ff0
 80042de:	4005      	ands	r5, r0
 80042e0:	2d00      	cmp	r5, #0
 80042e2:	f43f aeaf 	beq.w	8004044 <_dtoa_r+0x56c>
 80042e6:	990a      	ldr	r1, [sp, #40]	; 0x28
 80042e8:	9808      	ldr	r0, [sp, #32]
 80042ea:	1c4a      	adds	r2, r1, #1
 80042ec:	1c43      	adds	r3, r0, #1
 80042ee:	920a      	str	r2, [sp, #40]	; 0x28
 80042f0:	9308      	str	r3, [sp, #32]
 80042f2:	2501      	movs	r5, #1
 80042f4:	e6a6      	b.n	8004044 <_dtoa_r+0x56c>
 80042f6:	2001      	movs	r0, #1
 80042f8:	900d      	str	r0, [sp, #52]	; 0x34
 80042fa:	9a29      	ldr	r2, [sp, #164]	; 0xa4
 80042fc:	2a00      	cmp	r2, #0
 80042fe:	f340 8317 	ble.w	8004930 <_dtoa_r+0xe58>
 8004302:	4614      	mov	r4, r2
 8004304:	9211      	str	r2, [sp, #68]	; 0x44
 8004306:	9209      	str	r2, [sp, #36]	; 0x24
 8004308:	2100      	movs	r1, #0
 800430a:	2c17      	cmp	r4, #23
 800430c:	f8c9 1044 	str.w	r1, [r9, #68]	; 0x44
 8004310:	d90a      	bls.n	8004328 <_dtoa_r+0x850>
 8004312:	2201      	movs	r2, #1
 8004314:	2304      	movs	r3, #4
 8004316:	005b      	lsls	r3, r3, #1
 8004318:	f103 0014 	add.w	r0, r3, #20
 800431c:	4611      	mov	r1, r2
 800431e:	3201      	adds	r2, #1
 8004320:	42a0      	cmp	r0, r4
 8004322:	d9f8      	bls.n	8004316 <_dtoa_r+0x83e>
 8004324:	f8c9 1044 	str.w	r1, [r9, #68]	; 0x44
 8004328:	4648      	mov	r0, r9
 800432a:	f001 feb5 	bl	8006098 <_Balloc>
 800432e:	2c0e      	cmp	r4, #14
 8004330:	4680      	mov	r8, r0
 8004332:	f8c9 0040 	str.w	r0, [r9, #64]	; 0x40
 8004336:	f63f ace6 	bhi.w	8003d06 <_dtoa_r+0x22e>
 800433a:	2d00      	cmp	r5, #0
 800433c:	f43f ace3 	beq.w	8003d06 <_dtoa_r+0x22e>
 8004340:	9f07      	ldr	r7, [sp, #28]
 8004342:	e9cd ab14 	strd	sl, fp, [sp, #80]	; 0x50
 8004346:	2f00      	cmp	r7, #0
 8004348:	f340 832e 	ble.w	80049a8 <_dtoa_r+0xed0>
 800434c:	4899      	ldr	r0, [pc, #612]	; (80045b4 <_dtoa_r+0xadc>)
 800434e:	f007 060f 	and.w	r6, r7, #15
 8004352:	eb00 01c6 	add.w	r1, r0, r6, lsl #3
 8004356:	113e      	asrs	r6, r7, #4
 8004358:	e9d1 4500 	ldrd	r4, r5, [r1]
 800435c:	06f1      	lsls	r1, r6, #27
 800435e:	f140 82e1 	bpl.w	8004924 <_dtoa_r+0xe4c>
 8004362:	4f95      	ldr	r7, [pc, #596]	; (80045b8 <_dtoa_r+0xae0>)
 8004364:	4650      	mov	r0, sl
 8004366:	e9d7 2308 	ldrd	r2, r3, [r7, #32]
 800436a:	4659      	mov	r1, fp
 800436c:	f7fc fa1e 	bl	80007ac <__aeabi_ddiv>
 8004370:	e9cd 0112 	strd	r0, r1, [sp, #72]	; 0x48
 8004374:	f006 060f 	and.w	r6, r6, #15
 8004378:	2703      	movs	r7, #3
 800437a:	b186      	cbz	r6, 800439e <_dtoa_r+0x8c6>
 800437c:	f8df a238 	ldr.w	sl, [pc, #568]	; 80045b8 <_dtoa_r+0xae0>
 8004380:	4620      	mov	r0, r4
 8004382:	4629      	mov	r1, r5
 8004384:	07f2      	lsls	r2, r6, #31
 8004386:	d504      	bpl.n	8004392 <_dtoa_r+0x8ba>
 8004388:	e9da 2300 	ldrd	r2, r3, [sl]
 800438c:	f7fc f8e4 	bl	8000558 <__aeabi_dmul>
 8004390:	3701      	adds	r7, #1
 8004392:	1076      	asrs	r6, r6, #1
 8004394:	f10a 0a08 	add.w	sl, sl, #8
 8004398:	d1f4      	bne.n	8004384 <_dtoa_r+0x8ac>
 800439a:	4604      	mov	r4, r0
 800439c:	460d      	mov	r5, r1
 800439e:	e9dd 0112 	ldrd	r0, r1, [sp, #72]	; 0x48
 80043a2:	4622      	mov	r2, r4
 80043a4:	462b      	mov	r3, r5
 80043a6:	f7fc fa01 	bl	80007ac <__aeabi_ddiv>
 80043aa:	4682      	mov	sl, r0
 80043ac:	468b      	mov	fp, r1
 80043ae:	9b10      	ldr	r3, [sp, #64]	; 0x40
 80043b0:	b153      	cbz	r3, 80043c8 <_dtoa_r+0x8f0>
 80043b2:	2300      	movs	r3, #0
 80043b4:	4650      	mov	r0, sl
 80043b6:	4659      	mov	r1, fp
 80043b8:	2200      	movs	r2, #0
 80043ba:	f6c3 73f0 	movt	r3, #16368	; 0x3ff0
 80043be:	f7fc fb3d 	bl	8000a3c <__aeabi_dcmplt>
 80043c2:	2800      	cmp	r0, #0
 80043c4:	f040 840d 	bne.w	8004be2 <_dtoa_r+0x110a>
 80043c8:	4638      	mov	r0, r7
 80043ca:	f7fc f85f 	bl	800048c <__aeabi_i2d>
 80043ce:	4652      	mov	r2, sl
 80043d0:	465b      	mov	r3, fp
 80043d2:	f7fc f8c1 	bl	8000558 <__aeabi_dmul>
 80043d6:	2300      	movs	r3, #0
 80043d8:	2200      	movs	r2, #0
 80043da:	f2c4 031c 	movt	r3, #16412	; 0x401c
 80043de:	f7fb ff09 	bl	80001f4 <__adddf3>
 80043e2:	4604      	mov	r4, r0
 80043e4:	9809      	ldr	r0, [sp, #36]	; 0x24
 80043e6:	f1a1 7550 	sub.w	r5, r1, #54525952	; 0x3400000
 80043ea:	2800      	cmp	r0, #0
 80043ec:	f000 825b 	beq.w	80048a6 <_dtoa_r+0xdce>
 80043f0:	9e07      	ldr	r6, [sp, #28]
 80043f2:	961a      	str	r6, [sp, #104]	; 0x68
 80043f4:	9e09      	ldr	r6, [sp, #36]	; 0x24
 80043f6:	990d      	ldr	r1, [sp, #52]	; 0x34
 80043f8:	2900      	cmp	r1, #0
 80043fa:	f000 832a 	beq.w	8004a52 <_dtoa_r+0xf7a>
 80043fe:	4f6d      	ldr	r7, [pc, #436]	; (80045b4 <_dtoa_r+0xadc>)
 8004400:	2100      	movs	r1, #0
 8004402:	eb07 02c6 	add.w	r2, r7, r6, lsl #3
 8004406:	f1a2 0308 	sub.w	r3, r2, #8
 800440a:	e9d3 2300 	ldrd	r2, r3, [r3]
 800440e:	2000      	movs	r0, #0
 8004410:	f6c3 71e0 	movt	r1, #16352	; 0x3fe0
 8004414:	f7fc f9ca 	bl	80007ac <__aeabi_ddiv>
 8004418:	4622      	mov	r2, r4
 800441a:	462b      	mov	r3, r5
 800441c:	f7fb fee8 	bl	80001f0 <__aeabi_dsub>
 8004420:	e9cd 0116 	strd	r0, r1, [sp, #88]	; 0x58
 8004424:	4650      	mov	r0, sl
 8004426:	4659      	mov	r1, fp
 8004428:	f7fc fb30 	bl	8000a8c <__aeabi_d2iz>
 800442c:	4604      	mov	r4, r0
 800442e:	f7fc f82d 	bl	800048c <__aeabi_i2d>
 8004432:	4602      	mov	r2, r0
 8004434:	460b      	mov	r3, r1
 8004436:	4650      	mov	r0, sl
 8004438:	4659      	mov	r1, fp
 800443a:	f7fb fed9 	bl	80001f0 <__aeabi_dsub>
 800443e:	3430      	adds	r4, #48	; 0x30
 8004440:	e9cd 0112 	strd	r0, r1, [sp, #72]	; 0x48
 8004444:	e9dd 2312 	ldrd	r2, r3, [sp, #72]	; 0x48
 8004448:	e9dd 0116 	ldrd	r0, r1, [sp, #88]	; 0x58
 800444c:	b2e7      	uxtb	r7, r4
 800444e:	46c2      	mov	sl, r8
 8004450:	f80a 7b01 	strb.w	r7, [sl], #1
 8004454:	f7fc fb10 	bl	8000a78 <__aeabi_dcmpgt>
 8004458:	2800      	cmp	r0, #0
 800445a:	f040 8403 	bne.w	8004c64 <_dtoa_r+0x118c>
 800445e:	2100      	movs	r1, #0
 8004460:	e9dd 2312 	ldrd	r2, r3, [sp, #72]	; 0x48
 8004464:	2000      	movs	r0, #0
 8004466:	f6c3 71f0 	movt	r1, #16368	; 0x3ff0
 800446a:	f7fb fec1 	bl	80001f0 <__aeabi_dsub>
 800446e:	4602      	mov	r2, r0
 8004470:	460b      	mov	r3, r1
 8004472:	e9dd 0116 	ldrd	r0, r1, [sp, #88]	; 0x58
 8004476:	f7fc faff 	bl	8000a78 <__aeabi_dcmpgt>
 800447a:	2800      	cmp	r0, #0
 800447c:	f040 841b 	bne.w	8004cb6 <_dtoa_r+0x11de>
 8004480:	2e01      	cmp	r6, #1
 8004482:	f340 828d 	ble.w	80049a0 <_dtoa_r+0xec8>
 8004486:	ea6f 050a 	mvn.w	r5, sl
 800448a:	4446      	add	r6, r8
 800448c:	19af      	adds	r7, r5, r6
 800448e:	2300      	movs	r3, #0
 8004490:	f007 0401 	and.w	r4, r7, #1
 8004494:	2200      	movs	r2, #0
 8004496:	f2c4 0324 	movt	r3, #16420	; 0x4024
 800449a:	e9dd 0116 	ldrd	r0, r1, [sp, #88]	; 0x58
 800449e:	9618      	str	r6, [sp, #96]	; 0x60
 80044a0:	9416      	str	r4, [sp, #88]	; 0x58
 80044a2:	f7fc f859 	bl	8000558 <__aeabi_dmul>
 80044a6:	2300      	movs	r3, #0
 80044a8:	2200      	movs	r2, #0
 80044aa:	f2c4 0324 	movt	r3, #16420	; 0x4024
 80044ae:	4604      	mov	r4, r0
 80044b0:	460d      	mov	r5, r1
 80044b2:	e9dd 0112 	ldrd	r0, r1, [sp, #72]	; 0x48
 80044b6:	f7fc f84f 	bl	8000558 <__aeabi_dmul>
 80044ba:	460f      	mov	r7, r1
 80044bc:	4606      	mov	r6, r0
 80044be:	f7fc fae5 	bl	8000a8c <__aeabi_d2iz>
 80044c2:	4683      	mov	fp, r0
 80044c4:	f7fb ffe2 	bl	800048c <__aeabi_i2d>
 80044c8:	4602      	mov	r2, r0
 80044ca:	460b      	mov	r3, r1
 80044cc:	4630      	mov	r0, r6
 80044ce:	4639      	mov	r1, r7
 80044d0:	f7fb fe8e 	bl	80001f0 <__aeabi_dsub>
 80044d4:	f10b 0330 	add.w	r3, fp, #48	; 0x30
 80044d8:	b2df      	uxtb	r7, r3
 80044da:	46d3      	mov	fp, sl
 80044dc:	f80b 7b01 	strb.w	r7, [fp], #1
 80044e0:	4622      	mov	r2, r4
 80044e2:	462b      	mov	r3, r5
 80044e4:	e9cd 0112 	strd	r0, r1, [sp, #72]	; 0x48
 80044e8:	46da      	mov	sl, fp
 80044ea:	f7fc faa7 	bl	8000a3c <__aeabi_dcmplt>
 80044ee:	2800      	cmp	r0, #0
 80044f0:	f040 80e6 	bne.w	80046c0 <_dtoa_r+0xbe8>
 80044f4:	2100      	movs	r1, #0
 80044f6:	e9dd 2312 	ldrd	r2, r3, [sp, #72]	; 0x48
 80044fa:	2000      	movs	r0, #0
 80044fc:	f6c3 71f0 	movt	r1, #16368	; 0x3ff0
 8004500:	f7fb fe76 	bl	80001f0 <__aeabi_dsub>
 8004504:	4622      	mov	r2, r4
 8004506:	462b      	mov	r3, r5
 8004508:	f7fc fa98 	bl	8000a3c <__aeabi_dcmplt>
 800450c:	2800      	cmp	r0, #0
 800450e:	f040 83b2 	bne.w	8004c76 <_dtoa_r+0x119e>
 8004512:	9918      	ldr	r1, [sp, #96]	; 0x60
 8004514:	458b      	cmp	fp, r1
 8004516:	f000 8243 	beq.w	80049a0 <_dtoa_r+0xec8>
 800451a:	9816      	ldr	r0, [sp, #88]	; 0x58
 800451c:	2800      	cmp	r0, #0
 800451e:	d040      	beq.n	80045a2 <_dtoa_r+0xaca>
 8004520:	2300      	movs	r3, #0
 8004522:	2200      	movs	r2, #0
 8004524:	f2c4 0324 	movt	r3, #16420	; 0x4024
 8004528:	4620      	mov	r0, r4
 800452a:	4629      	mov	r1, r5
 800452c:	f7fc f814 	bl	8000558 <__aeabi_dmul>
 8004530:	2300      	movs	r3, #0
 8004532:	2200      	movs	r2, #0
 8004534:	f2c4 0324 	movt	r3, #16420	; 0x4024
 8004538:	4604      	mov	r4, r0
 800453a:	460d      	mov	r5, r1
 800453c:	e9dd 0112 	ldrd	r0, r1, [sp, #72]	; 0x48
 8004540:	f7fc f80a 	bl	8000558 <__aeabi_dmul>
 8004544:	460f      	mov	r7, r1
 8004546:	4606      	mov	r6, r0
 8004548:	f7fc faa0 	bl	8000a8c <__aeabi_d2iz>
 800454c:	4682      	mov	sl, r0
 800454e:	f7fb ff9d 	bl	800048c <__aeabi_i2d>
 8004552:	4602      	mov	r2, r0
 8004554:	460b      	mov	r3, r1
 8004556:	4630      	mov	r0, r6
 8004558:	4639      	mov	r1, r7
 800455a:	f7fb fe49 	bl	80001f0 <__aeabi_dsub>
 800455e:	f10a 0230 	add.w	r2, sl, #48	; 0x30
 8004562:	b2d7      	uxtb	r7, r2
 8004564:	f80b 7b01 	strb.w	r7, [fp], #1
 8004568:	4622      	mov	r2, r4
 800456a:	462b      	mov	r3, r5
 800456c:	e9cd 0112 	strd	r0, r1, [sp, #72]	; 0x48
 8004570:	46da      	mov	sl, fp
 8004572:	f7fc fa63 	bl	8000a3c <__aeabi_dcmplt>
 8004576:	2800      	cmp	r0, #0
 8004578:	f040 80a2 	bne.w	80046c0 <_dtoa_r+0xbe8>
 800457c:	2100      	movs	r1, #0
 800457e:	e9dd 2312 	ldrd	r2, r3, [sp, #72]	; 0x48
 8004582:	2000      	movs	r0, #0
 8004584:	f6c3 71f0 	movt	r1, #16368	; 0x3ff0
 8004588:	f7fb fe32 	bl	80001f0 <__aeabi_dsub>
 800458c:	4622      	mov	r2, r4
 800458e:	462b      	mov	r3, r5
 8004590:	f7fc fa54 	bl	8000a3c <__aeabi_dcmplt>
 8004594:	2800      	cmp	r0, #0
 8004596:	f040 836e 	bne.w	8004c76 <_dtoa_r+0x119e>
 800459a:	9b18      	ldr	r3, [sp, #96]	; 0x60
 800459c:	459b      	cmp	fp, r3
 800459e:	f000 81ff 	beq.w	80049a0 <_dtoa_r+0xec8>
 80045a2:	f8cd 906c 	str.w	r9, [sp, #108]	; 0x6c
 80045a6:	f8cd 8058 	str.w	r8, [sp, #88]	; 0x58
 80045aa:	f8dd 9060 	ldr.w	r9, [sp, #96]	; 0x60
 80045ae:	e9dd 6712 	ldrd	r6, r7, [sp, #72]	; 0x48
 80045b2:	e050      	b.n	8004656 <_dtoa_r+0xb7e>
 80045b4:	08007680 	.word	0x08007680
 80045b8:	08007748 	.word	0x08007748
 80045bc:	2100      	movs	r1, #0
 80045be:	2000      	movs	r0, #0
 80045c0:	f6c3 71f0 	movt	r1, #16368	; 0x3ff0
 80045c4:	f7fb fe14 	bl	80001f0 <__aeabi_dsub>
 80045c8:	4622      	mov	r2, r4
 80045ca:	462b      	mov	r3, r5
 80045cc:	f7fc fa36 	bl	8000a3c <__aeabi_dcmplt>
 80045d0:	2300      	movs	r3, #0
 80045d2:	2200      	movs	r2, #0
 80045d4:	f2c4 0324 	movt	r3, #16420	; 0x4024
 80045d8:	2800      	cmp	r0, #0
 80045da:	f040 8347 	bne.w	8004c6c <_dtoa_r+0x1194>
 80045de:	4620      	mov	r0, r4
 80045e0:	4629      	mov	r1, r5
 80045e2:	f7fb ffb9 	bl	8000558 <__aeabi_dmul>
 80045e6:	2300      	movs	r3, #0
 80045e8:	2200      	movs	r2, #0
 80045ea:	f2c4 0324 	movt	r3, #16420	; 0x4024
 80045ee:	4604      	mov	r4, r0
 80045f0:	460d      	mov	r5, r1
 80045f2:	4630      	mov	r0, r6
 80045f4:	4639      	mov	r1, r7
 80045f6:	f7fb ffaf 	bl	8000558 <__aeabi_dmul>
 80045fa:	460f      	mov	r7, r1
 80045fc:	4606      	mov	r6, r0
 80045fe:	f7fc fa45 	bl	8000a8c <__aeabi_d2iz>
 8004602:	4682      	mov	sl, r0
 8004604:	f7fb ff42 	bl	800048c <__aeabi_i2d>
 8004608:	4602      	mov	r2, r0
 800460a:	460b      	mov	r3, r1
 800460c:	4630      	mov	r0, r6
 800460e:	4639      	mov	r1, r7
 8004610:	f7fb fdee 	bl	80001f0 <__aeabi_dsub>
 8004614:	f10a 0330 	add.w	r3, sl, #48	; 0x30
 8004618:	fa5f f883 	uxtb.w	r8, r3
 800461c:	f80b 8b01 	strb.w	r8, [fp], #1
 8004620:	4622      	mov	r2, r4
 8004622:	462b      	mov	r3, r5
 8004624:	4606      	mov	r6, r0
 8004626:	460f      	mov	r7, r1
 8004628:	f7fc fa08 	bl	8000a3c <__aeabi_dcmplt>
 800462c:	46da      	mov	sl, fp
 800462e:	4632      	mov	r2, r6
 8004630:	463b      	mov	r3, r7
 8004632:	2800      	cmp	r0, #0
 8004634:	d140      	bne.n	80046b8 <_dtoa_r+0xbe0>
 8004636:	2100      	movs	r1, #0
 8004638:	2000      	movs	r0, #0
 800463a:	f6c3 71f0 	movt	r1, #16368	; 0x3ff0
 800463e:	f7fb fdd7 	bl	80001f0 <__aeabi_dsub>
 8004642:	4622      	mov	r2, r4
 8004644:	462b      	mov	r3, r5
 8004646:	f7fc f9f9 	bl	8000a3c <__aeabi_dcmplt>
 800464a:	2800      	cmp	r0, #0
 800464c:	f040 830e 	bne.w	8004c6c <_dtoa_r+0x1194>
 8004650:	45cb      	cmp	fp, r9
 8004652:	f000 81a1 	beq.w	8004998 <_dtoa_r+0xec0>
 8004656:	2300      	movs	r3, #0
 8004658:	4620      	mov	r0, r4
 800465a:	4629      	mov	r1, r5
 800465c:	2200      	movs	r2, #0
 800465e:	f2c4 0324 	movt	r3, #16420	; 0x4024
 8004662:	f7fb ff79 	bl	8000558 <__aeabi_dmul>
 8004666:	2300      	movs	r3, #0
 8004668:	2200      	movs	r2, #0
 800466a:	f2c4 0324 	movt	r3, #16420	; 0x4024
 800466e:	4604      	mov	r4, r0
 8004670:	460d      	mov	r5, r1
 8004672:	4630      	mov	r0, r6
 8004674:	4639      	mov	r1, r7
 8004676:	f7fb ff6f 	bl	8000558 <__aeabi_dmul>
 800467a:	460f      	mov	r7, r1
 800467c:	4606      	mov	r6, r0
 800467e:	f7fc fa05 	bl	8000a8c <__aeabi_d2iz>
 8004682:	4680      	mov	r8, r0
 8004684:	f7fb ff02 	bl	800048c <__aeabi_i2d>
 8004688:	4602      	mov	r2, r0
 800468a:	460b      	mov	r3, r1
 800468c:	4630      	mov	r0, r6
 800468e:	4639      	mov	r1, r7
 8004690:	f7fb fdae 	bl	80001f0 <__aeabi_dsub>
 8004694:	f108 0230 	add.w	r2, r8, #48	; 0x30
 8004698:	46da      	mov	sl, fp
 800469a:	fa5f f882 	uxtb.w	r8, r2
 800469e:	f80a 8b01 	strb.w	r8, [sl], #1
 80046a2:	4622      	mov	r2, r4
 80046a4:	462b      	mov	r3, r5
 80046a6:	4606      	mov	r6, r0
 80046a8:	460f      	mov	r7, r1
 80046aa:	f7fc f9c7 	bl	8000a3c <__aeabi_dcmplt>
 80046ae:	46d3      	mov	fp, sl
 80046b0:	4632      	mov	r2, r6
 80046b2:	463b      	mov	r3, r7
 80046b4:	2800      	cmp	r0, #0
 80046b6:	d081      	beq.n	80045bc <_dtoa_r+0xae4>
 80046b8:	f8dd 8058 	ldr.w	r8, [sp, #88]	; 0x58
 80046bc:	f8dd 906c 	ldr.w	r9, [sp, #108]	; 0x6c
 80046c0:	981a      	ldr	r0, [sp, #104]	; 0x68
 80046c2:	9007      	str	r0, [sp, #28]
 80046c4:	e41f      	b.n	8003f06 <_dtoa_r+0x42e>
 80046c6:	2400      	movs	r4, #0
 80046c8:	940d      	str	r4, [sp, #52]	; 0x34
 80046ca:	9829      	ldr	r0, [sp, #164]	; 0xa4
 80046cc:	9b07      	ldr	r3, [sp, #28]
 80046ce:	18c2      	adds	r2, r0, r3
 80046d0:	1c54      	adds	r4, r2, #1
 80046d2:	2c00      	cmp	r4, #0
 80046d4:	9211      	str	r2, [sp, #68]	; 0x44
 80046d6:	9409      	str	r4, [sp, #36]	; 0x24
 80046d8:	f73f ae16 	bgt.w	8004308 <_dtoa_r+0x830>
 80046dc:	2100      	movs	r1, #0
 80046de:	f8c9 1044 	str.w	r1, [r9, #68]	; 0x44
 80046e2:	e621      	b.n	8004328 <_dtoa_r+0x850>
 80046e4:	2101      	movs	r1, #1
 80046e6:	910d      	str	r1, [sp, #52]	; 0x34
 80046e8:	e7ef      	b.n	80046ca <_dtoa_r+0xbf2>
 80046ea:	2300      	movs	r3, #0
 80046ec:	930d      	str	r3, [sp, #52]	; 0x34
 80046ee:	e604      	b.n	80042fa <_dtoa_r+0x822>
 80046f0:	9909      	ldr	r1, [sp, #36]	; 0x24
 80046f2:	2900      	cmp	r1, #0
 80046f4:	f73f ab1a 	bgt.w	8003d2c <_dtoa_r+0x254>
 80046f8:	f040 82cd 	bne.w	8004c96 <_dtoa_r+0x11be>
 80046fc:	2300      	movs	r3, #0
 80046fe:	2200      	movs	r2, #0
 8004700:	f2c4 0314 	movt	r3, #16404	; 0x4014
 8004704:	e9dd 0104 	ldrd	r0, r1, [sp, #16]
 8004708:	f7fb ff26 	bl	8000558 <__aeabi_dmul>
 800470c:	4652      	mov	r2, sl
 800470e:	465b      	mov	r3, fp
 8004710:	f7fc f9a8 	bl	8000a64 <__aeabi_dcmpge>
 8004714:	9f09      	ldr	r7, [sp, #36]	; 0x24
 8004716:	970c      	str	r7, [sp, #48]	; 0x30
 8004718:	2800      	cmp	r0, #0
 800471a:	f000 80aa 	beq.w	8004872 <_dtoa_r+0xd9a>
 800471e:	9d29      	ldr	r5, [sp, #164]	; 0xa4
 8004720:	46c2      	mov	sl, r8
 8004722:	43e9      	mvns	r1, r5
 8004724:	9107      	str	r1, [sp, #28]
 8004726:	4648      	mov	r0, r9
 8004728:	4639      	mov	r1, r7
 800472a:	f001 fcdb 	bl	80060e4 <_Bfree>
 800472e:	9a0c      	ldr	r2, [sp, #48]	; 0x30
 8004730:	2a00      	cmp	r2, #0
 8004732:	f43f abe8 	beq.w	8003f06 <_dtoa_r+0x42e>
 8004736:	4648      	mov	r0, r9
 8004738:	990c      	ldr	r1, [sp, #48]	; 0x30
 800473a:	f001 fcd3 	bl	80060e4 <_Bfree>
 800473e:	f7ff bbe2 	b.w	8003f06 <_dtoa_r+0x42e>
 8004742:	4648      	mov	r0, r9
 8004744:	990b      	ldr	r1, [sp, #44]	; 0x2c
 8004746:	f001 ff13 	bl	8006570 <__pow5mult>
 800474a:	900b      	str	r0, [sp, #44]	; 0x2c
 800474c:	e467      	b.n	800401e <_dtoa_r+0x546>
 800474e:	9a0c      	ldr	r2, [sp, #48]	; 0x30
 8004750:	2a00      	cmp	r2, #0
 8004752:	f000 823a 	beq.w	8004bca <_dtoa_r+0x10f2>
 8004756:	f200 4733 	addw	r7, r0, #1075	; 0x433
 800475a:	9d0e      	ldr	r5, [sp, #56]	; 0x38
 800475c:	9c0a      	ldr	r4, [sp, #40]	; 0x28
 800475e:	e427      	b.n	8003fb0 <_dtoa_r+0x4d8>
 8004760:	4611      	mov	r1, r2
 8004762:	4640      	mov	r0, r8
 8004764:	9203      	str	r2, [sp, #12]
 8004766:	f002 f803 	bl	8006770 <__mcmp>
 800476a:	9903      	ldr	r1, [sp, #12]
 800476c:	4603      	mov	r3, r0
 800476e:	4648      	mov	r0, r9
 8004770:	9303      	str	r3, [sp, #12]
 8004772:	f001 fcb7 	bl	80060e4 <_Bfree>
 8004776:	9b03      	ldr	r3, [sp, #12]
 8004778:	2b00      	cmp	r3, #0
 800477a:	f47f ad74 	bne.w	8004266 <_dtoa_r+0x78e>
 800477e:	9a28      	ldr	r2, [sp, #160]	; 0xa0
 8004780:	2a00      	cmp	r2, #0
 8004782:	f47f ad70 	bne.w	8004266 <_dtoa_r+0x78e>
 8004786:	980a      	ldr	r0, [sp, #40]	; 0x28
 8004788:	2800      	cmp	r0, #0
 800478a:	f47f ad6c 	bne.w	8004266 <_dtoa_r+0x78e>
 800478e:	f1bb 0f39 	cmp.w	fp, #57	; 0x39
 8004792:	f8cd 802c 	str.w	r8, [sp, #44]	; 0x2c
 8004796:	f8dd 8030 	ldr.w	r8, [sp, #48]	; 0x30
 800479a:	f000 80e7 	beq.w	800496c <_dtoa_r+0xe94>
 800479e:	9806      	ldr	r0, [sp, #24]
 80047a0:	2800      	cmp	r0, #0
 80047a2:	dd01      	ble.n	80047a8 <_dtoa_r+0xcd0>
 80047a4:	f10a 0b31 	add.w	fp, sl, #49	; 0x31
 80047a8:	f8dd a020 	ldr.w	sl, [sp, #32]
 80047ac:	f80a bb01 	strb.w	fp, [sl], #1
 80047b0:	960c      	str	r6, [sp, #48]	; 0x30
 80047b2:	e4d7      	b.n	8004164 <_dtoa_r+0x68c>
 80047b4:	4629      	mov	r1, r5
 80047b6:	4648      	mov	r0, r9
 80047b8:	220a      	movs	r2, #10
 80047ba:	2300      	movs	r3, #0
 80047bc:	f001 fc9c 	bl	80060f8 <__multadd>
 80047c0:	3401      	adds	r4, #1
 80047c2:	4605      	mov	r5, r0
 80047c4:	4606      	mov	r6, r0
 80047c6:	e531      	b.n	800422c <_dtoa_r+0x754>
 80047c8:	980b      	ldr	r0, [sp, #44]	; 0x2c
 80047ca:	4639      	mov	r1, r7
 80047cc:	f7ff f80e 	bl	80037ec <quorem>
 80047d0:	9b09      	ldr	r3, [sp, #36]	; 0x24
 80047d2:	2501      	movs	r5, #1
 80047d4:	f100 0b30 	add.w	fp, r0, #48	; 0x30
 80047d8:	42ab      	cmp	r3, r5
 80047da:	f888 b000 	strb.w	fp, [r8]
 80047de:	f77f ac8e 	ble.w	80040fe <_dtoa_r+0x626>
 80047e2:	4648      	mov	r0, r9
 80047e4:	990b      	ldr	r1, [sp, #44]	; 0x2c
 80047e6:	220a      	movs	r2, #10
 80047e8:	9b0d      	ldr	r3, [sp, #52]	; 0x34
 80047ea:	f001 fc85 	bl	80060f8 <__multadd>
 80047ee:	f8dd a024 	ldr.w	sl, [sp, #36]	; 0x24
 80047f2:	900b      	str	r0, [sp, #44]	; 0x2c
 80047f4:	4606      	mov	r6, r0
 80047f6:	e472      	b.n	80040de <_dtoa_r+0x606>
 80047f8:	9b07      	ldr	r3, [sp, #28]
 80047fa:	2431      	movs	r4, #49	; 0x31
 80047fc:	1c59      	adds	r1, r3, #1
 80047fe:	9107      	str	r1, [sp, #28]
 8004800:	f888 4000 	strb.w	r4, [r8]
 8004804:	e4ae      	b.n	8004164 <_dtoa_r+0x68c>
 8004806:	980b      	ldr	r0, [sp, #44]	; 0x2c
 8004808:	4639      	mov	r1, r7
 800480a:	f001 ffb1 	bl	8006770 <__mcmp>
 800480e:	2800      	cmp	r0, #0
 8004810:	f6bf ac44 	bge.w	800409c <_dtoa_r+0x5c4>
 8004814:	990b      	ldr	r1, [sp, #44]	; 0x2c
 8004816:	220a      	movs	r2, #10
 8004818:	2300      	movs	r3, #0
 800481a:	4648      	mov	r0, r9
 800481c:	f001 fc6c 	bl	80060f8 <__multadd>
 8004820:	9b07      	ldr	r3, [sp, #28]
 8004822:	9a0d      	ldr	r2, [sp, #52]	; 0x34
 8004824:	1e59      	subs	r1, r3, #1
 8004826:	900b      	str	r0, [sp, #44]	; 0x2c
 8004828:	9107      	str	r1, [sp, #28]
 800482a:	2a00      	cmp	r2, #0
 800482c:	f040 8235 	bne.w	8004c9a <_dtoa_r+0x11c2>
 8004830:	9811      	ldr	r0, [sp, #68]	; 0x44
 8004832:	9009      	str	r0, [sp, #36]	; 0x24
 8004834:	e432      	b.n	800409c <_dtoa_r+0x5c4>
 8004836:	6938      	ldr	r0, [r7, #16]
 8004838:	eb07 0380 	add.w	r3, r7, r0, lsl #2
 800483c:	6918      	ldr	r0, [r3, #16]
 800483e:	f001 fcd9 	bl	80061f4 <__hi0bits>
 8004842:	f1c0 0220 	rsb	r2, r0, #32
 8004846:	e402      	b.n	800404e <_dtoa_r+0x576>
 8004848:	9a28      	ldr	r2, [sp, #160]	; 0xa0
 800484a:	2a02      	cmp	r2, #2
 800484c:	f77f ac2a 	ble.w	80040a4 <_dtoa_r+0x5cc>
 8004850:	2900      	cmp	r1, #0
 8004852:	f47f af64 	bne.w	800471e <_dtoa_r+0xc46>
 8004856:	4639      	mov	r1, r7
 8004858:	2205      	movs	r2, #5
 800485a:	9b09      	ldr	r3, [sp, #36]	; 0x24
 800485c:	4648      	mov	r0, r9
 800485e:	f001 fc4b 	bl	80060f8 <__multadd>
 8004862:	4607      	mov	r7, r0
 8004864:	4639      	mov	r1, r7
 8004866:	980b      	ldr	r0, [sp, #44]	; 0x2c
 8004868:	f001 ff82 	bl	8006770 <__mcmp>
 800486c:	2800      	cmp	r0, #0
 800486e:	f77f af56 	ble.w	800471e <_dtoa_r+0xc46>
 8004872:	9807      	ldr	r0, [sp, #28]
 8004874:	46c2      	mov	sl, r8
 8004876:	2331      	movs	r3, #49	; 0x31
 8004878:	1c44      	adds	r4, r0, #1
 800487a:	f80a 3b01 	strb.w	r3, [sl], #1
 800487e:	9407      	str	r4, [sp, #28]
 8004880:	e751      	b.n	8004726 <_dtoa_r+0xc4e>
 8004882:	4638      	mov	r0, r7
 8004884:	f7fb fe02 	bl	800048c <__aeabi_i2d>
 8004888:	4602      	mov	r2, r0
 800488a:	460b      	mov	r3, r1
 800488c:	4650      	mov	r0, sl
 800488e:	4659      	mov	r1, fp
 8004890:	f7fb fe62 	bl	8000558 <__aeabi_dmul>
 8004894:	2300      	movs	r3, #0
 8004896:	2200      	movs	r2, #0
 8004898:	f2c4 031c 	movt	r3, #16412	; 0x401c
 800489c:	f7fb fcaa 	bl	80001f4 <__adddf3>
 80048a0:	4604      	mov	r4, r0
 80048a2:	f1a1 7550 	sub.w	r5, r1, #54525952	; 0x3400000
 80048a6:	2300      	movs	r3, #0
 80048a8:	2200      	movs	r2, #0
 80048aa:	f2c4 0314 	movt	r3, #16404	; 0x4014
 80048ae:	4650      	mov	r0, sl
 80048b0:	4659      	mov	r1, fp
 80048b2:	f7fb fc9d 	bl	80001f0 <__aeabi_dsub>
 80048b6:	4622      	mov	r2, r4
 80048b8:	462b      	mov	r3, r5
 80048ba:	4682      	mov	sl, r0
 80048bc:	468b      	mov	fp, r1
 80048be:	f7fc f8db 	bl	8000a78 <__aeabi_dcmpgt>
 80048c2:	4607      	mov	r7, r0
 80048c4:	2800      	cmp	r0, #0
 80048c6:	f040 80c1 	bne.w	8004a4c <_dtoa_r+0xf74>
 80048ca:	4622      	mov	r2, r4
 80048cc:	f105 4300 	add.w	r3, r5, #2147483648	; 0x80000000
 80048d0:	4650      	mov	r0, sl
 80048d2:	4659      	mov	r1, fp
 80048d4:	f7fc f8b2 	bl	8000a3c <__aeabi_dcmplt>
 80048d8:	2800      	cmp	r0, #0
 80048da:	d061      	beq.n	80049a0 <_dtoa_r+0xec8>
 80048dc:	970c      	str	r7, [sp, #48]	; 0x30
 80048de:	e71e      	b.n	800471e <_dtoa_r+0xc46>
 80048e0:	f8dd 8018 	ldr.w	r8, [sp, #24]
 80048e4:	f8dd 9020 	ldr.w	r9, [sp, #32]
 80048e8:	f7ff bb0d 	b.w	8003f06 <_dtoa_r+0x42e>
 80048ec:	4648      	mov	r0, r9
 80048ee:	990b      	ldr	r1, [sp, #44]	; 0x2c
 80048f0:	9a0e      	ldr	r2, [sp, #56]	; 0x38
 80048f2:	f001 fe3d 	bl	8006570 <__pow5mult>
 80048f6:	900b      	str	r0, [sp, #44]	; 0x2c
 80048f8:	f7ff bb91 	b.w	800401e <_dtoa_r+0x546>
 80048fc:	9d07      	ldr	r5, [sp, #28]
 80048fe:	2230      	movs	r2, #48	; 0x30
 8004900:	1c69      	adds	r1, r5, #1
 8004902:	4643      	mov	r3, r8
 8004904:	2431      	movs	r4, #49	; 0x31
 8004906:	f888 2000 	strb.w	r2, [r8]
 800490a:	9107      	str	r1, [sp, #28]
 800490c:	701c      	strb	r4, [r3, #0]
 800490e:	f7ff bafa 	b.w	8003f06 <_dtoa_r+0x42e>
 8004912:	9f0e      	ldr	r7, [sp, #56]	; 0x38
 8004914:	9b0f      	ldr	r3, [sp, #60]	; 0x3c
 8004916:	1bc5      	subs	r5, r0, r7
 8004918:	195c      	adds	r4, r3, r5
 800491a:	940f      	str	r4, [sp, #60]	; 0x3c
 800491c:	900e      	str	r0, [sp, #56]	; 0x38
 800491e:	2500      	movs	r5, #0
 8004920:	f7ff bb40 	b.w	8003fa4 <_dtoa_r+0x4cc>
 8004924:	e9dd 2314 	ldrd	r2, r3, [sp, #80]	; 0x50
 8004928:	2702      	movs	r7, #2
 800492a:	e9cd 2312 	strd	r2, r3, [sp, #72]	; 0x48
 800492e:	e524      	b.n	800437a <_dtoa_r+0x8a2>
 8004930:	2401      	movs	r4, #1
 8004932:	9411      	str	r4, [sp, #68]	; 0x44
 8004934:	9409      	str	r4, [sp, #36]	; 0x24
 8004936:	9429      	str	r4, [sp, #164]	; 0xa4
 8004938:	e6d0      	b.n	80046dc <_dtoa_r+0xc04>
 800493a:	2b00      	cmp	r3, #0
 800493c:	f8cd 802c 	str.w	r8, [sp, #44]	; 0x2c
 8004940:	465c      	mov	r4, fp
 8004942:	f8dd 8030 	ldr.w	r8, [sp, #48]	; 0x30
 8004946:	f77f af2f 	ble.w	80047a8 <_dtoa_r+0xcd0>
 800494a:	2201      	movs	r2, #1
 800494c:	990b      	ldr	r1, [sp, #44]	; 0x2c
 800494e:	4648      	mov	r0, r9
 8004950:	f001 fe58 	bl	8006604 <__lshift>
 8004954:	4639      	mov	r1, r7
 8004956:	900b      	str	r0, [sp, #44]	; 0x2c
 8004958:	f001 ff0a 	bl	8006770 <__mcmp>
 800495c:	2800      	cmp	r0, #0
 800495e:	f340 8193 	ble.w	8004c88 <_dtoa_r+0x11b0>
 8004962:	2c39      	cmp	r4, #57	; 0x39
 8004964:	f10a 0b31 	add.w	fp, sl, #49	; 0x31
 8004968:	f47f af1e 	bne.w	80047a8 <_dtoa_r+0xcd0>
 800496c:	f8dd a020 	ldr.w	sl, [sp, #32]
 8004970:	2239      	movs	r2, #57	; 0x39
 8004972:	f80a 2b01 	strb.w	r2, [sl], #1
 8004976:	960c      	str	r6, [sp, #48]	; 0x30
 8004978:	f7ff bbd7 	b.w	800412a <_dtoa_r+0x652>
 800497c:	d103      	bne.n	8004986 <_dtoa_r+0xeae>
 800497e:	f01b 0f01 	tst.w	fp, #1
 8004982:	f47f abd0 	bne.w	8004126 <_dtoa_r+0x64e>
 8004986:	4652      	mov	r2, sl
 8004988:	f812 1c01 	ldrb.w	r1, [r2, #-1]
 800498c:	4692      	mov	sl, r2
 800498e:	3a01      	subs	r2, #1
 8004990:	2930      	cmp	r1, #48	; 0x30
 8004992:	d0f9      	beq.n	8004988 <_dtoa_r+0xeb0>
 8004994:	f7ff bbe6 	b.w	8004164 <_dtoa_r+0x68c>
 8004998:	f8dd 8058 	ldr.w	r8, [sp, #88]	; 0x58
 800499c:	f8dd 906c 	ldr.w	r9, [sp, #108]	; 0x6c
 80049a0:	e9dd ab14 	ldrd	sl, fp, [sp, #80]	; 0x50
 80049a4:	f7ff b9af 	b.w	8003d06 <_dtoa_r+0x22e>
 80049a8:	9d07      	ldr	r5, [sp, #28]
 80049aa:	426c      	negs	r4, r5
 80049ac:	2c00      	cmp	r4, #0
 80049ae:	f000 8113 	beq.w	8004bd8 <_dtoa_r+0x1100>
 80049b2:	4bb3      	ldr	r3, [pc, #716]	; (8004c80 <_dtoa_r+0x11a8>)
 80049b4:	f004 010f 	and.w	r1, r4, #15
 80049b8:	eb03 02c1 	add.w	r2, r3, r1, lsl #3
 80049bc:	ca0c      	ldmia	r2, {r2, r3}
 80049be:	e9dd 0114 	ldrd	r0, r1, [sp, #80]	; 0x50
 80049c2:	f7fb fdc9 	bl	8000558 <__aeabi_dmul>
 80049c6:	1124      	asrs	r4, r4, #4
 80049c8:	4682      	mov	sl, r0
 80049ca:	468b      	mov	fp, r1
 80049cc:	f000 8170 	beq.w	8004cb0 <_dtoa_r+0x11d8>
 80049d0:	4dac      	ldr	r5, [pc, #688]	; (8004c84 <_dtoa_r+0x11ac>)
 80049d2:	2702      	movs	r7, #2
 80049d4:	07e3      	lsls	r3, r4, #31
 80049d6:	d504      	bpl.n	80049e2 <_dtoa_r+0xf0a>
 80049d8:	e9d5 2300 	ldrd	r2, r3, [r5]
 80049dc:	f7fb fdbc 	bl	8000558 <__aeabi_dmul>
 80049e0:	3701      	adds	r7, #1
 80049e2:	3508      	adds	r5, #8
 80049e4:	1064      	asrs	r4, r4, #1
 80049e6:	d1f5      	bne.n	80049d4 <_dtoa_r+0xefc>
 80049e8:	4682      	mov	sl, r0
 80049ea:	468b      	mov	fp, r1
 80049ec:	e4df      	b.n	80043ae <_dtoa_r+0x8d6>
 80049ee:	9a0c      	ldr	r2, [sp, #48]	; 0x30
 80049f0:	4648      	mov	r0, r9
 80049f2:	6851      	ldr	r1, [r2, #4]
 80049f4:	f001 fb50 	bl	8006098 <_Balloc>
 80049f8:	9d0c      	ldr	r5, [sp, #48]	; 0x30
 80049fa:	4604      	mov	r4, r0
 80049fc:	692b      	ldr	r3, [r5, #16]
 80049fe:	4629      	mov	r1, r5
 8004a00:	1c9e      	adds	r6, r3, #2
 8004a02:	00b2      	lsls	r2, r6, #2
 8004a04:	310c      	adds	r1, #12
 8004a06:	f100 000c 	add.w	r0, r0, #12
 8004a0a:	f001 f925 	bl	8005c58 <memcpy>
 8004a0e:	4648      	mov	r0, r9
 8004a10:	4621      	mov	r1, r4
 8004a12:	2201      	movs	r2, #1
 8004a14:	f001 fdf6 	bl	8006604 <__lshift>
 8004a18:	4606      	mov	r6, r0
 8004a1a:	f7ff bbf9 	b.w	8004210 <_dtoa_r+0x738>
 8004a1e:	f1bb 0f39 	cmp.w	fp, #57	; 0x39
 8004a22:	f8cd 802c 	str.w	r8, [sp, #44]	; 0x2c
 8004a26:	f8dd 8030 	ldr.w	r8, [sp, #48]	; 0x30
 8004a2a:	d09f      	beq.n	800496c <_dtoa_r+0xe94>
 8004a2c:	f8dd a020 	ldr.w	sl, [sp, #32]
 8004a30:	f10b 0e01 	add.w	lr, fp, #1
 8004a34:	f80a eb01 	strb.w	lr, [sl], #1
 8004a38:	960c      	str	r6, [sp, #48]	; 0x30
 8004a3a:	f7ff bb93 	b.w	8004164 <_dtoa_r+0x68c>
 8004a3e:	f8cd 802c 	str.w	r8, [sp, #44]	; 0x2c
 8004a42:	f8dd 8030 	ldr.w	r8, [sp, #48]	; 0x30
 8004a46:	960c      	str	r6, [sp, #48]	; 0x30
 8004a48:	f7ff bb61 	b.w	800410e <_dtoa_r+0x636>
 8004a4c:	2700      	movs	r7, #0
 8004a4e:	970c      	str	r7, [sp, #48]	; 0x30
 8004a50:	e70f      	b.n	8004872 <_dtoa_r+0xd9a>
 8004a52:	4a8b      	ldr	r2, [pc, #556]	; (8004c80 <_dtoa_r+0x11a8>)
 8004a54:	1e73      	subs	r3, r6, #1
 8004a56:	eb02 07c3 	add.w	r7, r2, r3, lsl #3
 8004a5a:	9312      	str	r3, [sp, #72]	; 0x48
 8004a5c:	4622      	mov	r2, r4
 8004a5e:	462b      	mov	r3, r5
 8004a60:	e9d7 0100 	ldrd	r0, r1, [r7]
 8004a64:	f7fb fd78 	bl	8000558 <__aeabi_dmul>
 8004a68:	e9cd 0118 	strd	r0, r1, [sp, #96]	; 0x60
 8004a6c:	4650      	mov	r0, sl
 8004a6e:	4659      	mov	r1, fp
 8004a70:	f7fc f80c 	bl	8000a8c <__aeabi_d2iz>
 8004a74:	4607      	mov	r7, r0
 8004a76:	f7fb fd09 	bl	800048c <__aeabi_i2d>
 8004a7a:	460b      	mov	r3, r1
 8004a7c:	4602      	mov	r2, r0
 8004a7e:	4659      	mov	r1, fp
 8004a80:	4650      	mov	r0, sl
 8004a82:	f7fb fbb5 	bl	80001f0 <__aeabi_dsub>
 8004a86:	46c2      	mov	sl, r8
 8004a88:	f107 0330 	add.w	r3, r7, #48	; 0x30
 8004a8c:	2e01      	cmp	r6, #1
 8004a8e:	4604      	mov	r4, r0
 8004a90:	460d      	mov	r5, r1
 8004a92:	f80a 3b01 	strb.w	r3, [sl], #1
 8004a96:	d07c      	beq.n	8004b92 <_dtoa_r+0x10ba>
 8004a98:	f108 34ff 	add.w	r4, r8, #4294967295	; 0xffffffff
 8004a9c:	eb04 0b06 	add.w	fp, r4, r6
 8004aa0:	ea6f 0508 	mvn.w	r5, r8
 8004aa4:	eb05 060b 	add.w	r6, r5, fp
 8004aa8:	2300      	movs	r3, #0
 8004aaa:	2200      	movs	r2, #0
 8004aac:	f2c4 0324 	movt	r3, #16420	; 0x4024
 8004ab0:	f006 0701 	and.w	r7, r6, #1
 8004ab4:	9716      	str	r7, [sp, #88]	; 0x58
 8004ab6:	f7fb fd4f 	bl	8000558 <__aeabi_dmul>
 8004aba:	460c      	mov	r4, r1
 8004abc:	4606      	mov	r6, r0
 8004abe:	f7fb ffe5 	bl	8000a8c <__aeabi_d2iz>
 8004ac2:	9003      	str	r0, [sp, #12]
 8004ac4:	f7fb fce2 	bl	800048c <__aeabi_i2d>
 8004ac8:	4602      	mov	r2, r0
 8004aca:	460b      	mov	r3, r1
 8004acc:	4630      	mov	r0, r6
 8004ace:	4621      	mov	r1, r4
 8004ad0:	f7fb fb8e 	bl	80001f0 <__aeabi_dsub>
 8004ad4:	f8dd c00c 	ldr.w	ip, [sp, #12]
 8004ad8:	45da      	cmp	sl, fp
 8004ada:	f10c 0230 	add.w	r2, ip, #48	; 0x30
 8004ade:	4604      	mov	r4, r0
 8004ae0:	460d      	mov	r5, r1
 8004ae2:	f888 2001 	strb.w	r2, [r8, #1]
 8004ae6:	4657      	mov	r7, sl
 8004ae8:	d051      	beq.n	8004b8e <_dtoa_r+0x10b6>
 8004aea:	9b16      	ldr	r3, [sp, #88]	; 0x58
 8004aec:	b1eb      	cbz	r3, 8004b2a <_dtoa_r+0x1052>
 8004aee:	2300      	movs	r3, #0
 8004af0:	2200      	movs	r2, #0
 8004af2:	f2c4 0324 	movt	r3, #16420	; 0x4024
 8004af6:	f7fb fd2f 	bl	8000558 <__aeabi_dmul>
 8004afa:	460d      	mov	r5, r1
 8004afc:	4606      	mov	r6, r0
 8004afe:	f7fb ffc5 	bl	8000a8c <__aeabi_d2iz>
 8004b02:	9003      	str	r0, [sp, #12]
 8004b04:	f7fb fcc2 	bl	800048c <__aeabi_i2d>
 8004b08:	4602      	mov	r2, r0
 8004b0a:	460b      	mov	r3, r1
 8004b0c:	4630      	mov	r0, r6
 8004b0e:	4629      	mov	r1, r5
 8004b10:	f7fb fb6e 	bl	80001f0 <__aeabi_dsub>
 8004b14:	f8dd c00c 	ldr.w	ip, [sp, #12]
 8004b18:	4657      	mov	r7, sl
 8004b1a:	4604      	mov	r4, r0
 8004b1c:	f10c 0030 	add.w	r0, ip, #48	; 0x30
 8004b20:	f807 0f01 	strb.w	r0, [r7, #1]!
 8004b24:	455f      	cmp	r7, fp
 8004b26:	460d      	mov	r5, r1
 8004b28:	d031      	beq.n	8004b8e <_dtoa_r+0x10b6>
 8004b2a:	4620      	mov	r0, r4
 8004b2c:	4629      	mov	r1, r5
 8004b2e:	2300      	movs	r3, #0
 8004b30:	2200      	movs	r2, #0
 8004b32:	f2c4 0324 	movt	r3, #16420	; 0x4024
 8004b36:	f7fb fd0f 	bl	8000558 <__aeabi_dmul>
 8004b3a:	460d      	mov	r5, r1
 8004b3c:	4604      	mov	r4, r0
 8004b3e:	f7fb ffa5 	bl	8000a8c <__aeabi_d2iz>
 8004b42:	4606      	mov	r6, r0
 8004b44:	f7fb fca2 	bl	800048c <__aeabi_i2d>
 8004b48:	4602      	mov	r2, r0
 8004b4a:	460b      	mov	r3, r1
 8004b4c:	4620      	mov	r0, r4
 8004b4e:	4629      	mov	r1, r5
 8004b50:	f7fb fb4e 	bl	80001f0 <__aeabi_dsub>
 8004b54:	3630      	adds	r6, #48	; 0x30
 8004b56:	2300      	movs	r3, #0
 8004b58:	2200      	movs	r2, #0
 8004b5a:	f2c4 0324 	movt	r3, #16420	; 0x4024
 8004b5e:	f807 6f01 	strb.w	r6, [r7, #1]!
 8004b62:	f7fb fcf9 	bl	8000558 <__aeabi_dmul>
 8004b66:	460d      	mov	r5, r1
 8004b68:	4604      	mov	r4, r0
 8004b6a:	f7fb ff8f 	bl	8000a8c <__aeabi_d2iz>
 8004b6e:	4606      	mov	r6, r0
 8004b70:	f7fb fc8c 	bl	800048c <__aeabi_i2d>
 8004b74:	3630      	adds	r6, #48	; 0x30
 8004b76:	4602      	mov	r2, r0
 8004b78:	460b      	mov	r3, r1
 8004b7a:	4620      	mov	r0, r4
 8004b7c:	4629      	mov	r1, r5
 8004b7e:	f7fb fb37 	bl	80001f0 <__aeabi_dsub>
 8004b82:	f807 6f01 	strb.w	r6, [r7, #1]!
 8004b86:	455f      	cmp	r7, fp
 8004b88:	d1d1      	bne.n	8004b2e <_dtoa_r+0x1056>
 8004b8a:	4604      	mov	r4, r0
 8004b8c:	460d      	mov	r5, r1
 8004b8e:	9912      	ldr	r1, [sp, #72]	; 0x48
 8004b90:	448a      	add	sl, r1
 8004b92:	2300      	movs	r3, #0
 8004b94:	2200      	movs	r2, #0
 8004b96:	f6c3 73e0 	movt	r3, #16352	; 0x3fe0
 8004b9a:	e9dd 0118 	ldrd	r0, r1, [sp, #96]	; 0x60
 8004b9e:	f7fb fb29 	bl	80001f4 <__adddf3>
 8004ba2:	4622      	mov	r2, r4
 8004ba4:	462b      	mov	r3, r5
 8004ba6:	f7fb ff49 	bl	8000a3c <__aeabi_dcmplt>
 8004baa:	2800      	cmp	r0, #0
 8004bac:	d043      	beq.n	8004c36 <_dtoa_r+0x115e>
 8004bae:	981a      	ldr	r0, [sp, #104]	; 0x68
 8004bb0:	f81a 7c01 	ldrb.w	r7, [sl, #-1]
 8004bb4:	9007      	str	r0, [sp, #28]
 8004bb6:	f7ff b988 	b.w	8003eca <_dtoa_r+0x3f2>
 8004bba:	980a      	ldr	r0, [sp, #40]	; 0x28
 8004bbc:	2700      	movs	r7, #0
 8004bbe:	1a44      	subs	r4, r0, r1
 8004bc0:	f7ff b9f6 	b.w	8003fb0 <_dtoa_r+0x4d8>
 8004bc4:	4655      	mov	r5, sl
 8004bc6:	f7ff ba3d 	b.w	8004044 <_dtoa_r+0x56c>
 8004bca:	9b1c      	ldr	r3, [sp, #112]	; 0x70
 8004bcc:	9d0e      	ldr	r5, [sp, #56]	; 0x38
 8004bce:	f1c3 0736 	rsb	r7, r3, #54	; 0x36
 8004bd2:	9c0a      	ldr	r4, [sp, #40]	; 0x28
 8004bd4:	f7ff b9ec 	b.w	8003fb0 <_dtoa_r+0x4d8>
 8004bd8:	e9dd ab14 	ldrd	sl, fp, [sp, #80]	; 0x50
 8004bdc:	2702      	movs	r7, #2
 8004bde:	f7ff bbe6 	b.w	80043ae <_dtoa_r+0x8d6>
 8004be2:	9c09      	ldr	r4, [sp, #36]	; 0x24
 8004be4:	2c00      	cmp	r4, #0
 8004be6:	f43f ae4c 	beq.w	8004882 <_dtoa_r+0xdaa>
 8004bea:	9a11      	ldr	r2, [sp, #68]	; 0x44
 8004bec:	2a00      	cmp	r2, #0
 8004bee:	f77f aed7 	ble.w	80049a0 <_dtoa_r+0xec8>
 8004bf2:	2300      	movs	r3, #0
 8004bf4:	2200      	movs	r2, #0
 8004bf6:	f2c4 0324 	movt	r3, #16420	; 0x4024
 8004bfa:	4650      	mov	r0, sl
 8004bfc:	4659      	mov	r1, fp
 8004bfe:	f7fb fcab 	bl	8000558 <__aeabi_dmul>
 8004c02:	4682      	mov	sl, r0
 8004c04:	1c78      	adds	r0, r7, #1
 8004c06:	468b      	mov	fp, r1
 8004c08:	f7fb fc40 	bl	800048c <__aeabi_i2d>
 8004c0c:	4602      	mov	r2, r0
 8004c0e:	460b      	mov	r3, r1
 8004c10:	4650      	mov	r0, sl
 8004c12:	4659      	mov	r1, fp
 8004c14:	f7fb fca0 	bl	8000558 <__aeabi_dmul>
 8004c18:	2300      	movs	r3, #0
 8004c1a:	2200      	movs	r2, #0
 8004c1c:	f2c4 031c 	movt	r3, #16412	; 0x401c
 8004c20:	f7fb fae8 	bl	80001f4 <__adddf3>
 8004c24:	4604      	mov	r4, r0
 8004c26:	9807      	ldr	r0, [sp, #28]
 8004c28:	f1a1 7550 	sub.w	r5, r1, #54525952	; 0x3400000
 8004c2c:	1e46      	subs	r6, r0, #1
 8004c2e:	961a      	str	r6, [sp, #104]	; 0x68
 8004c30:	9e11      	ldr	r6, [sp, #68]	; 0x44
 8004c32:	f7ff bbe0 	b.w	80043f6 <_dtoa_r+0x91e>
 8004c36:	2100      	movs	r1, #0
 8004c38:	e9dd 2318 	ldrd	r2, r3, [sp, #96]	; 0x60
 8004c3c:	2000      	movs	r0, #0
 8004c3e:	f6c3 71e0 	movt	r1, #16352	; 0x3fe0
 8004c42:	f7fb fad5 	bl	80001f0 <__aeabi_dsub>
 8004c46:	4622      	mov	r2, r4
 8004c48:	462b      	mov	r3, r5
 8004c4a:	f7fb ff15 	bl	8000a78 <__aeabi_dcmpgt>
 8004c4e:	2800      	cmp	r0, #0
 8004c50:	f43f aea6 	beq.w	80049a0 <_dtoa_r+0xec8>
 8004c54:	4653      	mov	r3, sl
 8004c56:	f813 2c01 	ldrb.w	r2, [r3, #-1]
 8004c5a:	469a      	mov	sl, r3
 8004c5c:	2a30      	cmp	r2, #48	; 0x30
 8004c5e:	f103 33ff 	add.w	r3, r3, #4294967295	; 0xffffffff
 8004c62:	d0f8      	beq.n	8004c56 <_dtoa_r+0x117e>
 8004c64:	9c1a      	ldr	r4, [sp, #104]	; 0x68
 8004c66:	9407      	str	r4, [sp, #28]
 8004c68:	f7ff b94d 	b.w	8003f06 <_dtoa_r+0x42e>
 8004c6c:	4647      	mov	r7, r8
 8004c6e:	f8dd 906c 	ldr.w	r9, [sp, #108]	; 0x6c
 8004c72:	f8dd 8058 	ldr.w	r8, [sp, #88]	; 0x58
 8004c76:	991a      	ldr	r1, [sp, #104]	; 0x68
 8004c78:	9107      	str	r1, [sp, #28]
 8004c7a:	f7ff b926 	b.w	8003eca <_dtoa_r+0x3f2>
 8004c7e:	bf00      	nop
 8004c80:	08007680 	.word	0x08007680
 8004c84:	08007748 	.word	0x08007748
 8004c88:	f47f ad8e 	bne.w	80047a8 <_dtoa_r+0xcd0>
 8004c8c:	f01b 0f01 	tst.w	fp, #1
 8004c90:	f43f ad8a 	beq.w	80047a8 <_dtoa_r+0xcd0>
 8004c94:	e665      	b.n	8004962 <_dtoa_r+0xe8a>
 8004c96:	2700      	movs	r7, #0
 8004c98:	e620      	b.n	80048dc <_dtoa_r+0xe04>
 8004c9a:	2300      	movs	r3, #0
 8004c9c:	4648      	mov	r0, r9
 8004c9e:	990c      	ldr	r1, [sp, #48]	; 0x30
 8004ca0:	220a      	movs	r2, #10
 8004ca2:	f001 fa29 	bl	80060f8 <__multadd>
 8004ca6:	9b11      	ldr	r3, [sp, #68]	; 0x44
 8004ca8:	900c      	str	r0, [sp, #48]	; 0x30
 8004caa:	9309      	str	r3, [sp, #36]	; 0x24
 8004cac:	f7ff b9f6 	b.w	800409c <_dtoa_r+0x5c4>
 8004cb0:	2702      	movs	r7, #2
 8004cb2:	f7ff bb7c 	b.w	80043ae <_dtoa_r+0x8d6>
 8004cb6:	9a1a      	ldr	r2, [sp, #104]	; 0x68
 8004cb8:	9207      	str	r2, [sp, #28]
 8004cba:	f7ff b906 	b.w	8003eca <_dtoa_r+0x3f2>
 8004cbe:	f43f a9d9 	beq.w	8004074 <_dtoa_r+0x59c>
 8004cc2:	f1c0 033c 	rsb	r3, r0, #60	; 0x3c
 8004cc6:	f7ff ba85 	b.w	80041d4 <_dtoa_r+0x6fc>
 8004cca:	2501      	movs	r5, #1
 8004ccc:	f7fe bfe2 	b.w	8003c94 <_dtoa_r+0x1bc>

08004cd0 <_fflush_r>:
_fflush_r():
 8004cd0:	e92d 41f0 	stmdb	sp!, {r4, r5, r6, r7, r8, lr}
 8004cd4:	460d      	mov	r5, r1
 8004cd6:	4680      	mov	r8, r0
 8004cd8:	b110      	cbz	r0, 8004ce0 <_fflush_r+0x10>
 8004cda:	6b83      	ldr	r3, [r0, #56]	; 0x38
 8004cdc:	2b00      	cmp	r3, #0
 8004cde:	d061      	beq.n	8004da4 <_fflush_r+0xd4>
 8004ce0:	89a8      	ldrh	r0, [r5, #12]
 8004ce2:	b1d8      	cbz	r0, 8004d1c <_fflush_r+0x4c>
 8004ce4:	f000 0208 	and.w	r2, r0, #8
 8004ce8:	b211      	sxth	r1, r2
 8004cea:	b1d1      	cbz	r1, 8004d22 <_fflush_r+0x52>
 8004cec:	692e      	ldr	r6, [r5, #16]
 8004cee:	b1ae      	cbz	r6, 8004d1c <_fflush_r+0x4c>
 8004cf0:	0783      	lsls	r3, r0, #30
 8004cf2:	682c      	ldr	r4, [r5, #0]
 8004cf4:	bf0c      	ite	eq
 8004cf6:	696b      	ldreq	r3, [r5, #20]
 8004cf8:	2300      	movne	r3, #0
 8004cfa:	602e      	str	r6, [r5, #0]
 8004cfc:	1ba4      	subs	r4, r4, r6
 8004cfe:	60ab      	str	r3, [r5, #8]
 8004d00:	e00a      	b.n	8004d18 <_fflush_r+0x48>
 8004d02:	4632      	mov	r2, r6
 8004d04:	4623      	mov	r3, r4
 8004d06:	6a6f      	ldr	r7, [r5, #36]	; 0x24
 8004d08:	4640      	mov	r0, r8
 8004d0a:	69e9      	ldr	r1, [r5, #28]
 8004d0c:	47b8      	blx	r7
 8004d0e:	2800      	cmp	r0, #0
 8004d10:	ebc0 0404 	rsb	r4, r0, r4
 8004d14:	4406      	add	r6, r0
 8004d16:	dd52      	ble.n	8004dbe <_fflush_r+0xee>
 8004d18:	2c00      	cmp	r4, #0
 8004d1a:	dcf2      	bgt.n	8004d02 <_fflush_r+0x32>
 8004d1c:	2000      	movs	r0, #0
 8004d1e:	e8bd 81f0 	ldmia.w	sp!, {r4, r5, r6, r7, r8, pc}
 8004d22:	686a      	ldr	r2, [r5, #4]
 8004d24:	f440 6100 	orr.w	r1, r0, #2048	; 0x800
 8004d28:	2a00      	cmp	r2, #0
 8004d2a:	81a9      	strh	r1, [r5, #12]
 8004d2c:	dd4f      	ble.n	8004dce <_fflush_r+0xfe>
 8004d2e:	6aac      	ldr	r4, [r5, #40]	; 0x28
 8004d30:	2c00      	cmp	r4, #0
 8004d32:	d0f3      	beq.n	8004d1c <_fflush_r+0x4c>
 8004d34:	f400 5680 	and.w	r6, r0, #4096	; 0x1000
 8004d38:	b232      	sxth	r2, r6
 8004d3a:	2000      	movs	r0, #0
 8004d3c:	f8d8 6000 	ldr.w	r6, [r8]
 8004d40:	f8c8 0000 	str.w	r0, [r8]
 8004d44:	2a00      	cmp	r2, #0
 8004d46:	d030      	beq.n	8004daa <_fflush_r+0xda>
 8004d48:	6d2a      	ldr	r2, [r5, #80]	; 0x50
 8004d4a:	f001 0004 	and.w	r0, r1, #4
 8004d4e:	b201      	sxth	r1, r0
 8004d50:	b129      	cbz	r1, 8004d5e <_fflush_r+0x8e>
 8004d52:	6868      	ldr	r0, [r5, #4]
 8004d54:	6b2b      	ldr	r3, [r5, #48]	; 0x30
 8004d56:	1a12      	subs	r2, r2, r0
 8004d58:	b10b      	cbz	r3, 8004d5e <_fflush_r+0x8e>
 8004d5a:	6be9      	ldr	r1, [r5, #60]	; 0x3c
 8004d5c:	1a52      	subs	r2, r2, r1
 8004d5e:	2300      	movs	r3, #0
 8004d60:	4640      	mov	r0, r8
 8004d62:	69e9      	ldr	r1, [r5, #28]
 8004d64:	47a0      	blx	r4
 8004d66:	1c42      	adds	r2, r0, #1
 8004d68:	d035      	beq.n	8004dd6 <_fflush_r+0x106>
 8004d6a:	89ab      	ldrh	r3, [r5, #12]
 8004d6c:	692a      	ldr	r2, [r5, #16]
 8004d6e:	f403 5180 	and.w	r1, r3, #4096	; 0x1000
 8004d72:	f423 6300 	bic.w	r3, r3, #2048	; 0x800
 8004d76:	81ab      	strh	r3, [r5, #12]
 8004d78:	b209      	sxth	r1, r1
 8004d7a:	2300      	movs	r3, #0
 8004d7c:	e885 000c 	stmia.w	r5, {r2, r3}
 8004d80:	2900      	cmp	r1, #0
 8004d82:	d144      	bne.n	8004e0e <_fflush_r+0x13e>
 8004d84:	6b29      	ldr	r1, [r5, #48]	; 0x30
 8004d86:	f8c8 6000 	str.w	r6, [r8]
 8004d8a:	2900      	cmp	r1, #0
 8004d8c:	d0c6      	beq.n	8004d1c <_fflush_r+0x4c>
 8004d8e:	f105 0040 	add.w	r0, r5, #64	; 0x40
 8004d92:	4281      	cmp	r1, r0
 8004d94:	d002      	beq.n	8004d9c <_fflush_r+0xcc>
 8004d96:	4640      	mov	r0, r8
 8004d98:	f000 f8f0 	bl	8004f7c <_free_r>
 8004d9c:	2000      	movs	r0, #0
 8004d9e:	6328      	str	r0, [r5, #48]	; 0x30
 8004da0:	e8bd 81f0 	ldmia.w	sp!, {r4, r5, r6, r7, r8, pc}
 8004da4:	f000 f874 	bl	8004e90 <__sinit>
 8004da8:	e79a      	b.n	8004ce0 <_fflush_r+0x10>
 8004daa:	69e9      	ldr	r1, [r5, #28]
 8004dac:	2301      	movs	r3, #1
 8004dae:	4640      	mov	r0, r8
 8004db0:	47a0      	blx	r4
 8004db2:	1c41      	adds	r1, r0, #1
 8004db4:	4602      	mov	r2, r0
 8004db6:	d02c      	beq.n	8004e12 <_fflush_r+0x142>
 8004db8:	89a9      	ldrh	r1, [r5, #12]
 8004dba:	6aac      	ldr	r4, [r5, #40]	; 0x28
 8004dbc:	e7c5      	b.n	8004d4a <_fflush_r+0x7a>
 8004dbe:	89aa      	ldrh	r2, [r5, #12]
 8004dc0:	f04f 30ff 	mov.w	r0, #4294967295	; 0xffffffff
 8004dc4:	f042 0340 	orr.w	r3, r2, #64	; 0x40
 8004dc8:	81ab      	strh	r3, [r5, #12]
 8004dca:	e8bd 81f0 	ldmia.w	sp!, {r4, r5, r6, r7, r8, pc}
 8004dce:	6beb      	ldr	r3, [r5, #60]	; 0x3c
 8004dd0:	2b00      	cmp	r3, #0
 8004dd2:	dcac      	bgt.n	8004d2e <_fflush_r+0x5e>
 8004dd4:	e7a2      	b.n	8004d1c <_fflush_r+0x4c>
 8004dd6:	f8d8 3000 	ldr.w	r3, [r8]
 8004dda:	b163      	cbz	r3, 8004df6 <_fflush_r+0x126>
 8004ddc:	2b1d      	cmp	r3, #29
 8004dde:	d001      	beq.n	8004de4 <_fflush_r+0x114>
 8004de0:	2b16      	cmp	r3, #22
 8004de2:	d121      	bne.n	8004e28 <_fflush_r+0x158>
 8004de4:	89a8      	ldrh	r0, [r5, #12]
 8004de6:	6929      	ldr	r1, [r5, #16]
 8004de8:	f420 6200 	bic.w	r2, r0, #2048	; 0x800
 8004dec:	2300      	movs	r3, #0
 8004dee:	81aa      	strh	r2, [r5, #12]
 8004df0:	606b      	str	r3, [r5, #4]
 8004df2:	6029      	str	r1, [r5, #0]
 8004df4:	e7c6      	b.n	8004d84 <_fflush_r+0xb4>
 8004df6:	89aa      	ldrh	r2, [r5, #12]
 8004df8:	6929      	ldr	r1, [r5, #16]
 8004dfa:	f402 5480 	and.w	r4, r2, #4096	; 0x1000
 8004dfe:	b224      	sxth	r4, r4
 8004e00:	f422 6200 	bic.w	r2, r2, #2048	; 0x800
 8004e04:	81aa      	strh	r2, [r5, #12]
 8004e06:	e885 000a 	stmia.w	r5, {r1, r3}
 8004e0a:	2c00      	cmp	r4, #0
 8004e0c:	d0ba      	beq.n	8004d84 <_fflush_r+0xb4>
 8004e0e:	6528      	str	r0, [r5, #80]	; 0x50
 8004e10:	e7b8      	b.n	8004d84 <_fflush_r+0xb4>
 8004e12:	f8d8 1000 	ldr.w	r1, [r8]
 8004e16:	2900      	cmp	r1, #0
 8004e18:	d0ce      	beq.n	8004db8 <_fflush_r+0xe8>
 8004e1a:	291d      	cmp	r1, #29
 8004e1c:	d001      	beq.n	8004e22 <_fflush_r+0x152>
 8004e1e:	2916      	cmp	r1, #22
 8004e20:	d1cd      	bne.n	8004dbe <_fflush_r+0xee>
 8004e22:	f8c8 6000 	str.w	r6, [r8]
 8004e26:	e779      	b.n	8004d1c <_fflush_r+0x4c>
 8004e28:	89aa      	ldrh	r2, [r5, #12]
 8004e2a:	f042 0340 	orr.w	r3, r2, #64	; 0x40
 8004e2e:	81ab      	strh	r3, [r5, #12]
 8004e30:	e8bd 81f0 	ldmia.w	sp!, {r4, r5, r6, r7, r8, pc}

08004e34 <_cleanup_r>:
_cleanup_r():
 8004e34:	f247 11b1 	movw	r1, #29105	; 0x71b1
 8004e38:	f6c0 0100 	movt	r1, #2048	; 0x800
 8004e3c:	f000 baf2 	b.w	8005424 <_fwalk>

08004e40 <std.isra.0>:
std.isra.0():
 8004e40:	2300      	movs	r3, #0
 8004e42:	b510      	push	{r4, lr}
 8004e44:	4604      	mov	r4, r0
 8004e46:	8181      	strh	r1, [r0, #12]
 8004e48:	81c2      	strh	r2, [r0, #14]
 8004e4a:	6003      	str	r3, [r0, #0]
 8004e4c:	6043      	str	r3, [r0, #4]
 8004e4e:	6083      	str	r3, [r0, #8]
 8004e50:	6643      	str	r3, [r0, #100]	; 0x64
 8004e52:	6103      	str	r3, [r0, #16]
 8004e54:	6143      	str	r3, [r0, #20]
 8004e56:	6183      	str	r3, [r0, #24]
 8004e58:	4619      	mov	r1, r3
 8004e5a:	2208      	movs	r2, #8
 8004e5c:	f100 005c 	add.w	r0, r0, #92	; 0x5c
 8004e60:	f001 f880 	bl	8005f64 <memset>
 8004e64:	f646 701d 	movw	r0, #28445	; 0x6f1d
 8004e68:	f646 7141 	movw	r1, #28481	; 0x6f41
 8004e6c:	f646 7285 	movw	r2, #28549	; 0x6f85
 8004e70:	f646 73a9 	movw	r3, #28585	; 0x6fa9
 8004e74:	f6c0 0000 	movt	r0, #2048	; 0x800
 8004e78:	f6c0 0100 	movt	r1, #2048	; 0x800
 8004e7c:	f6c0 0200 	movt	r2, #2048	; 0x800
 8004e80:	f6c0 0300 	movt	r3, #2048	; 0x800
 8004e84:	61e4      	str	r4, [r4, #28]
 8004e86:	6220      	str	r0, [r4, #32]
 8004e88:	6261      	str	r1, [r4, #36]	; 0x24
 8004e8a:	62a2      	str	r2, [r4, #40]	; 0x28
 8004e8c:	62e3      	str	r3, [r4, #44]	; 0x2c
 8004e8e:	bd10      	pop	{r4, pc}

08004e90 <__sinit>:
__sinit():
 8004e90:	b5f8      	push	{r3, r4, r5, r6, r7, lr}
 8004e92:	6b83      	ldr	r3, [r0, #56]	; 0x38
 8004e94:	4604      	mov	r4, r0
 8004e96:	b103      	cbz	r3, 8004e9a <__sinit+0xa>
 8004e98:	bdf8      	pop	{r3, r4, r5, r6, r7, pc}
 8004e9a:	4f0f      	ldr	r7, [pc, #60]	; (8004ed8 <__sinit+0x48>)
 8004e9c:	2501      	movs	r5, #1
 8004e9e:	f500 763b 	add.w	r6, r0, #748	; 0x2ec
 8004ea2:	461a      	mov	r2, r3
 8004ea4:	f8c4 32e0 	str.w	r3, [r4, #736]	; 0x2e0
 8004ea8:	2303      	movs	r3, #3
 8004eaa:	2104      	movs	r1, #4
 8004eac:	f8c4 32e4 	str.w	r3, [r4, #740]	; 0x2e4
 8004eb0:	6840      	ldr	r0, [r0, #4]
 8004eb2:	63e7      	str	r7, [r4, #60]	; 0x3c
 8004eb4:	63a5      	str	r5, [r4, #56]	; 0x38
 8004eb6:	f8c4 62e8 	str.w	r6, [r4, #744]	; 0x2e8
 8004eba:	f7ff ffc1 	bl	8004e40 <std.isra.0>
 8004ebe:	68a0      	ldr	r0, [r4, #8]
 8004ec0:	2109      	movs	r1, #9
 8004ec2:	462a      	mov	r2, r5
 8004ec4:	f7ff ffbc 	bl	8004e40 <std.isra.0>
 8004ec8:	68e0      	ldr	r0, [r4, #12]
 8004eca:	2112      	movs	r1, #18
 8004ecc:	2202      	movs	r2, #2
 8004ece:	e8bd 40f8 	ldmia.w	sp!, {r3, r4, r5, r6, r7, lr}
 8004ed2:	f7ff bfb5 	b.w	8004e40 <std.isra.0>
 8004ed6:	bf00      	nop
 8004ed8:	08004e35 	.word	0x08004e35

08004edc <__sfp_lock_acquire>:
__sfp_lock_acquire():
 8004edc:	4770      	bx	lr
 8004ede:	bf00      	nop

08004ee0 <__sfp_lock_release>:
__sfp_lock_release():
 8004ee0:	4770      	bx	lr
 8004ee2:	bf00      	nop

08004ee4 <_malloc_trim_r>:
_malloc_trim_r():
 8004ee4:	b5f8      	push	{r3, r4, r5, r6, r7, lr}
 8004ee6:	4d22      	ldr	r5, [pc, #136]	; (8004f70 <_malloc_trim_r+0x8c>)
 8004ee8:	460f      	mov	r7, r1
 8004eea:	4604      	mov	r4, r0
 8004eec:	f001 f8d0 	bl	8006090 <__malloc_lock>
 8004ef0:	68ab      	ldr	r3, [r5, #8]
 8004ef2:	685e      	ldr	r6, [r3, #4]
 8004ef4:	f026 0603 	bic.w	r6, r6, #3
 8004ef8:	f606 70ef 	addw	r0, r6, #4079	; 0xfef
 8004efc:	1bc1      	subs	r1, r0, r7
 8004efe:	0b0a      	lsrs	r2, r1, #12
 8004f00:	1e57      	subs	r7, r2, #1
 8004f02:	033f      	lsls	r7, r7, #12
 8004f04:	f5b7 5f80 	cmp.w	r7, #4096	; 0x1000
 8004f08:	db07      	blt.n	8004f1a <_malloc_trim_r+0x36>
 8004f0a:	2100      	movs	r1, #0
 8004f0c:	4620      	mov	r0, r4
 8004f0e:	f001 fff3 	bl	8006ef8 <_sbrk_r>
 8004f12:	68ab      	ldr	r3, [r5, #8]
 8004f14:	1999      	adds	r1, r3, r6
 8004f16:	4288      	cmp	r0, r1
 8004f18:	d004      	beq.n	8004f24 <_malloc_trim_r+0x40>
 8004f1a:	4620      	mov	r0, r4
 8004f1c:	f001 f8ba 	bl	8006094 <__malloc_unlock>
 8004f20:	2000      	movs	r0, #0
 8004f22:	bdf8      	pop	{r3, r4, r5, r6, r7, pc}
 8004f24:	4279      	negs	r1, r7
 8004f26:	4620      	mov	r0, r4
 8004f28:	f001 ffe6 	bl	8006ef8 <_sbrk_r>
 8004f2c:	3001      	adds	r0, #1
 8004f2e:	d00d      	beq.n	8004f4c <_malloc_trim_r+0x68>
 8004f30:	4b10      	ldr	r3, [pc, #64]	; (8004f74 <_malloc_trim_r+0x90>)
 8004f32:	68a8      	ldr	r0, [r5, #8]
 8004f34:	681a      	ldr	r2, [r3, #0]
 8004f36:	1bf6      	subs	r6, r6, r7
 8004f38:	f046 0601 	orr.w	r6, r6, #1
 8004f3c:	1bd7      	subs	r7, r2, r7
 8004f3e:	6046      	str	r6, [r0, #4]
 8004f40:	4620      	mov	r0, r4
 8004f42:	601f      	str	r7, [r3, #0]
 8004f44:	f001 f8a6 	bl	8006094 <__malloc_unlock>
 8004f48:	2001      	movs	r0, #1
 8004f4a:	bdf8      	pop	{r3, r4, r5, r6, r7, pc}
 8004f4c:	2100      	movs	r1, #0
 8004f4e:	4620      	mov	r0, r4
 8004f50:	f001 ffd2 	bl	8006ef8 <_sbrk_r>
 8004f54:	68ab      	ldr	r3, [r5, #8]
 8004f56:	1ac2      	subs	r2, r0, r3
 8004f58:	2a0f      	cmp	r2, #15
 8004f5a:	ddde      	ble.n	8004f1a <_malloc_trim_r+0x36>
 8004f5c:	4906      	ldr	r1, [pc, #24]	; (8004f78 <_malloc_trim_r+0x94>)
 8004f5e:	f042 0201 	orr.w	r2, r2, #1
 8004f62:	6809      	ldr	r1, [r1, #0]
 8004f64:	605a      	str	r2, [r3, #4]
 8004f66:	1a40      	subs	r0, r0, r1
 8004f68:	4902      	ldr	r1, [pc, #8]	; (8004f74 <_malloc_trim_r+0x90>)
 8004f6a:	6008      	str	r0, [r1, #0]
 8004f6c:	e7d5      	b.n	8004f1a <_malloc_trim_r+0x36>
 8004f6e:	bf00      	nop
 8004f70:	20000490 	.word	0x20000490
 8004f74:	200008b4 	.word	0x200008b4
 8004f78:	2000089c 	.word	0x2000089c

08004f7c <_free_r>:
_free_r():
 8004f7c:	e92d 41f0 	stmdb	sp!, {r4, r5, r6, r7, r8, lr}
 8004f80:	460d      	mov	r5, r1
 8004f82:	4606      	mov	r6, r0
 8004f84:	2900      	cmp	r1, #0
 8004f86:	d055      	beq.n	8005034 <_free_r+0xb8>
 8004f88:	f001 f882 	bl	8006090 <__malloc_lock>
 8004f8c:	f855 1c04 	ldr.w	r1, [r5, #-4]
 8004f90:	f8df c16c 	ldr.w	ip, [pc, #364]	; 8005100 <_free_r+0x184>
 8004f94:	f1a5 0408 	sub.w	r4, r5, #8
 8004f98:	f021 0301 	bic.w	r3, r1, #1
 8004f9c:	18e2      	adds	r2, r4, r3
 8004f9e:	f8dc 0008 	ldr.w	r0, [ip, #8]
 8004fa2:	6857      	ldr	r7, [r2, #4]
 8004fa4:	4290      	cmp	r0, r2
 8004fa6:	f027 0703 	bic.w	r7, r7, #3
 8004faa:	d065      	beq.n	8005078 <_free_r+0xfc>
 8004fac:	f011 0101 	ands.w	r1, r1, #1
 8004fb0:	6057      	str	r7, [r2, #4]
 8004fb2:	d032      	beq.n	800501a <_free_r+0x9e>
 8004fb4:	2100      	movs	r1, #0
 8004fb6:	19d0      	adds	r0, r2, r7
 8004fb8:	6840      	ldr	r0, [r0, #4]
 8004fba:	07c0      	lsls	r0, r0, #31
 8004fbc:	d406      	bmi.n	8004fcc <_free_r+0x50>
 8004fbe:	19db      	adds	r3, r3, r7
 8004fc0:	6890      	ldr	r0, [r2, #8]
 8004fc2:	2900      	cmp	r1, #0
 8004fc4:	d04a      	beq.n	800505c <_free_r+0xe0>
 8004fc6:	68d2      	ldr	r2, [r2, #12]
 8004fc8:	60c2      	str	r2, [r0, #12]
 8004fca:	6090      	str	r0, [r2, #8]
 8004fcc:	f043 0001 	orr.w	r0, r3, #1
 8004fd0:	6060      	str	r0, [r4, #4]
 8004fd2:	50e3      	str	r3, [r4, r3]
 8004fd4:	b9e1      	cbnz	r1, 8005010 <_free_r+0x94>
 8004fd6:	f5b3 7f00 	cmp.w	r3, #512	; 0x200
 8004fda:	d32d      	bcc.n	8005038 <_free_r+0xbc>
 8004fdc:	0a5a      	lsrs	r2, r3, #9
 8004fde:	2a04      	cmp	r2, #4
 8004fe0:	d866      	bhi.n	80050b0 <_free_r+0x134>
 8004fe2:	0998      	lsrs	r0, r3, #6
 8004fe4:	3038      	adds	r0, #56	; 0x38
 8004fe6:	0042      	lsls	r2, r0, #1
 8004fe8:	eb0c 0e82 	add.w	lr, ip, r2, lsl #2
 8004fec:	f8de 2008 	ldr.w	r2, [lr, #8]
 8004ff0:	4943      	ldr	r1, [pc, #268]	; (8005100 <_free_r+0x184>)
 8004ff2:	4572      	cmp	r2, lr
 8004ff4:	d062      	beq.n	80050bc <_free_r+0x140>
 8004ff6:	6850      	ldr	r0, [r2, #4]
 8004ff8:	f020 0103 	bic.w	r1, r0, #3
 8004ffc:	428b      	cmp	r3, r1
 8004ffe:	d202      	bcs.n	8005006 <_free_r+0x8a>
 8005000:	6892      	ldr	r2, [r2, #8]
 8005002:	4596      	cmp	lr, r2
 8005004:	d1f7      	bne.n	8004ff6 <_free_r+0x7a>
 8005006:	68d3      	ldr	r3, [r2, #12]
 8005008:	60e3      	str	r3, [r4, #12]
 800500a:	60a2      	str	r2, [r4, #8]
 800500c:	60d4      	str	r4, [r2, #12]
 800500e:	609c      	str	r4, [r3, #8]
 8005010:	4630      	mov	r0, r6
 8005012:	e8bd 41f0 	ldmia.w	sp!, {r4, r5, r6, r7, r8, lr}
 8005016:	f001 b83d 	b.w	8006094 <__malloc_unlock>
 800501a:	f855 5c08 	ldr.w	r5, [r5, #-8]
 800501e:	f10c 0808 	add.w	r8, ip, #8
 8005022:	1b64      	subs	r4, r4, r5
 8005024:	68a0      	ldr	r0, [r4, #8]
 8005026:	195b      	adds	r3, r3, r5
 8005028:	4540      	cmp	r0, r8
 800502a:	d03f      	beq.n	80050ac <_free_r+0x130>
 800502c:	68e5      	ldr	r5, [r4, #12]
 800502e:	60c5      	str	r5, [r0, #12]
 8005030:	60a8      	str	r0, [r5, #8]
 8005032:	e7c0      	b.n	8004fb6 <_free_r+0x3a>
 8005034:	e8bd 81f0 	ldmia.w	sp!, {r4, r5, r6, r7, r8, pc}
 8005038:	08d9      	lsrs	r1, r3, #3
 800503a:	108a      	asrs	r2, r1, #2
 800503c:	2001      	movs	r0, #1
 800503e:	fa00 f002 	lsl.w	r0, r0, r2
 8005042:	eb0c 03c1 	add.w	r3, ip, r1, lsl #3
 8005046:	f8dc 1004 	ldr.w	r1, [ip, #4]
 800504a:	689a      	ldr	r2, [r3, #8]
 800504c:	4308      	orrs	r0, r1
 800504e:	60e3      	str	r3, [r4, #12]
 8005050:	60a2      	str	r2, [r4, #8]
 8005052:	f8cc 0004 	str.w	r0, [ip, #4]
 8005056:	609c      	str	r4, [r3, #8]
 8005058:	60d4      	str	r4, [r2, #12]
 800505a:	e7d9      	b.n	8005010 <_free_r+0x94>
 800505c:	4d29      	ldr	r5, [pc, #164]	; (8005104 <_free_r+0x188>)
 800505e:	42a8      	cmp	r0, r5
 8005060:	d1b1      	bne.n	8004fc6 <_free_r+0x4a>
 8005062:	f043 0101 	orr.w	r1, r3, #1
 8005066:	f8cc 4014 	str.w	r4, [ip, #20]
 800506a:	f8cc 4010 	str.w	r4, [ip, #16]
 800506e:	60e0      	str	r0, [r4, #12]
 8005070:	60a0      	str	r0, [r4, #8]
 8005072:	6061      	str	r1, [r4, #4]
 8005074:	50e3      	str	r3, [r4, r3]
 8005076:	e7cb      	b.n	8005010 <_free_r+0x94>
 8005078:	18ff      	adds	r7, r7, r3
 800507a:	07cb      	lsls	r3, r1, #31
 800507c:	d407      	bmi.n	800508e <_free_r+0x112>
 800507e:	f855 0c08 	ldr.w	r0, [r5, #-8]
 8005082:	1a24      	subs	r4, r4, r0
 8005084:	68e3      	ldr	r3, [r4, #12]
 8005086:	68a2      	ldr	r2, [r4, #8]
 8005088:	183f      	adds	r7, r7, r0
 800508a:	60d3      	str	r3, [r2, #12]
 800508c:	609a      	str	r2, [r3, #8]
 800508e:	481e      	ldr	r0, [pc, #120]	; (8005108 <_free_r+0x18c>)
 8005090:	f047 0101 	orr.w	r1, r7, #1
 8005094:	6803      	ldr	r3, [r0, #0]
 8005096:	6061      	str	r1, [r4, #4]
 8005098:	429f      	cmp	r7, r3
 800509a:	f8cc 4008 	str.w	r4, [ip, #8]
 800509e:	d3b7      	bcc.n	8005010 <_free_r+0x94>
 80050a0:	4a1a      	ldr	r2, [pc, #104]	; (800510c <_free_r+0x190>)
 80050a2:	4630      	mov	r0, r6
 80050a4:	6811      	ldr	r1, [r2, #0]
 80050a6:	f7ff ff1d 	bl	8004ee4 <_malloc_trim_r>
 80050aa:	e7b1      	b.n	8005010 <_free_r+0x94>
 80050ac:	2101      	movs	r1, #1
 80050ae:	e782      	b.n	8004fb6 <_free_r+0x3a>
 80050b0:	2a14      	cmp	r2, #20
 80050b2:	d80c      	bhi.n	80050ce <_free_r+0x152>
 80050b4:	f102 005b 	add.w	r0, r2, #91	; 0x5b
 80050b8:	0042      	lsls	r2, r0, #1
 80050ba:	e795      	b.n	8004fe8 <_free_r+0x6c>
 80050bc:	1080      	asrs	r0, r0, #2
 80050be:	2501      	movs	r5, #1
 80050c0:	fa05 f500 	lsl.w	r5, r5, r0
 80050c4:	6848      	ldr	r0, [r1, #4]
 80050c6:	4613      	mov	r3, r2
 80050c8:	4328      	orrs	r0, r5
 80050ca:	6048      	str	r0, [r1, #4]
 80050cc:	e79c      	b.n	8005008 <_free_r+0x8c>
 80050ce:	2a54      	cmp	r2, #84	; 0x54
 80050d0:	d803      	bhi.n	80050da <_free_r+0x15e>
 80050d2:	0b18      	lsrs	r0, r3, #12
 80050d4:	306e      	adds	r0, #110	; 0x6e
 80050d6:	0042      	lsls	r2, r0, #1
 80050d8:	e786      	b.n	8004fe8 <_free_r+0x6c>
 80050da:	f5b2 7faa 	cmp.w	r2, #340	; 0x154
 80050de:	d803      	bhi.n	80050e8 <_free_r+0x16c>
 80050e0:	0bd8      	lsrs	r0, r3, #15
 80050e2:	3077      	adds	r0, #119	; 0x77
 80050e4:	0042      	lsls	r2, r0, #1
 80050e6:	e77f      	b.n	8004fe8 <_free_r+0x6c>
 80050e8:	f240 5154 	movw	r1, #1364	; 0x554
 80050ec:	428a      	cmp	r2, r1
 80050ee:	d803      	bhi.n	80050f8 <_free_r+0x17c>
 80050f0:	0c98      	lsrs	r0, r3, #18
 80050f2:	307c      	adds	r0, #124	; 0x7c
 80050f4:	0042      	lsls	r2, r0, #1
 80050f6:	e777      	b.n	8004fe8 <_free_r+0x6c>
 80050f8:	22fc      	movs	r2, #252	; 0xfc
 80050fa:	207e      	movs	r0, #126	; 0x7e
 80050fc:	e774      	b.n	8004fe8 <_free_r+0x6c>
 80050fe:	bf00      	nop
 8005100:	20000490 	.word	0x20000490
 8005104:	20000498 	.word	0x20000498
 8005108:	20000898 	.word	0x20000898
 800510c:	200008b0 	.word	0x200008b0

08005110 <__sfvwrite_r>:
__sfvwrite_r():
 8005110:	e92d 4ff0 	stmdb	sp!, {r4, r5, r6, r7, r8, r9, sl, fp, lr}
 8005114:	6893      	ldr	r3, [r2, #8]
 8005116:	b085      	sub	sp, #20
 8005118:	4690      	mov	r8, r2
 800511a:	4681      	mov	r9, r0
 800511c:	460c      	mov	r4, r1
 800511e:	2b00      	cmp	r3, #0
 8005120:	d02a      	beq.n	8005178 <__sfvwrite_r+0x68>
 8005122:	898b      	ldrh	r3, [r1, #12]
 8005124:	f003 0208 	and.w	r2, r3, #8
 8005128:	b210      	sxth	r0, r2
 800512a:	2800      	cmp	r0, #0
 800512c:	d028      	beq.n	8005180 <__sfvwrite_r+0x70>
 800512e:	6909      	ldr	r1, [r1, #16]
 8005130:	2900      	cmp	r1, #0
 8005132:	d025      	beq.n	8005180 <__sfvwrite_r+0x70>
 8005134:	f003 0502 	and.w	r5, r3, #2
 8005138:	b22e      	sxth	r6, r5
 800513a:	f8d8 5000 	ldr.w	r5, [r8]
 800513e:	2e00      	cmp	r6, #0
 8005140:	d033      	beq.n	80051aa <__sfvwrite_r+0x9a>
 8005142:	f04f 0a00 	mov.w	sl, #0
 8005146:	4657      	mov	r7, sl
 8005148:	f5b7 6f80 	cmp.w	r7, #1024	; 0x400
 800514c:	bf34      	ite	cc
 800514e:	463b      	movcc	r3, r7
 8005150:	f44f 6380 	movcs.w	r3, #1024	; 0x400
 8005154:	4652      	mov	r2, sl
 8005156:	4648      	mov	r0, r9
 8005158:	2f00      	cmp	r7, #0
 800515a:	d021      	beq.n	80051a0 <__sfvwrite_r+0x90>
 800515c:	69e1      	ldr	r1, [r4, #28]
 800515e:	6a66      	ldr	r6, [r4, #36]	; 0x24
 8005160:	47b0      	blx	r6
 8005162:	2800      	cmp	r0, #0
 8005164:	dd6a      	ble.n	800523c <__sfvwrite_r+0x12c>
 8005166:	f8d8 2008 	ldr.w	r2, [r8, #8]
 800516a:	4482      	add	sl, r0
 800516c:	1a13      	subs	r3, r2, r0
 800516e:	1a3f      	subs	r7, r7, r0
 8005170:	f8c8 3008 	str.w	r3, [r8, #8]
 8005174:	2b00      	cmp	r3, #0
 8005176:	d1e7      	bne.n	8005148 <__sfvwrite_r+0x38>
 8005178:	2000      	movs	r0, #0
 800517a:	b005      	add	sp, #20
 800517c:	e8bd 8ff0 	ldmia.w	sp!, {r4, r5, r6, r7, r8, r9, sl, fp, pc}
 8005180:	4648      	mov	r0, r9
 8005182:	4621      	mov	r1, r4
 8005184:	f7fe fad0 	bl	8003728 <__swsetup_r>
 8005188:	89a3      	ldrh	r3, [r4, #12]
 800518a:	2800      	cmp	r0, #0
 800518c:	d0d2      	beq.n	8005134 <__sfvwrite_r+0x24>
 800518e:	f043 0040 	orr.w	r0, r3, #64	; 0x40
 8005192:	2309      	movs	r3, #9
 8005194:	81a0      	strh	r0, [r4, #12]
 8005196:	f04f 30ff 	mov.w	r0, #4294967295	; 0xffffffff
 800519a:	f8c9 3000 	str.w	r3, [r9]
 800519e:	e7ec      	b.n	800517a <__sfvwrite_r+0x6a>
 80051a0:	f8d5 a000 	ldr.w	sl, [r5]
 80051a4:	686f      	ldr	r7, [r5, #4]
 80051a6:	3508      	adds	r5, #8
 80051a8:	e7ce      	b.n	8005148 <__sfvwrite_r+0x38>
 80051aa:	f013 0a01 	ands.w	sl, r3, #1
 80051ae:	d14c      	bne.n	800524a <__sfvwrite_r+0x13a>
 80051b0:	4656      	mov	r6, sl
 80051b2:	2e00      	cmp	r6, #0
 80051b4:	d030      	beq.n	8005218 <__sfvwrite_r+0x108>
 80051b6:	f403 7700 	and.w	r7, r3, #512	; 0x200
 80051ba:	b238      	sxth	r0, r7
 80051bc:	4619      	mov	r1, r3
 80051be:	68a7      	ldr	r7, [r4, #8]
 80051c0:	2800      	cmp	r0, #0
 80051c2:	d07f      	beq.n	80052c4 <__sfvwrite_r+0x1b4>
 80051c4:	42be      	cmp	r6, r7
 80051c6:	46be      	mov	lr, r7
 80051c8:	f0c0 80ac 	bcc.w	8005324 <__sfvwrite_r+0x214>
 80051cc:	f401 6090 	and.w	r0, r1, #1152	; 0x480
 80051d0:	2800      	cmp	r0, #0
 80051d2:	f040 80c8 	bne.w	8005366 <__sfvwrite_r+0x256>
 80051d6:	6820      	ldr	r0, [r4, #0]
 80051d8:	9703      	str	r7, [sp, #12]
 80051da:	46b3      	mov	fp, r6
 80051dc:	4637      	mov	r7, r6
 80051de:	4651      	mov	r1, sl
 80051e0:	4672      	mov	r2, lr
 80051e2:	f8cd e004 	str.w	lr, [sp, #4]
 80051e6:	f000 fde5 	bl	8005db4 <memmove>
 80051ea:	68a0      	ldr	r0, [r4, #8]
 80051ec:	f8dd c004 	ldr.w	ip, [sp, #4]
 80051f0:	6822      	ldr	r2, [r4, #0]
 80051f2:	9903      	ldr	r1, [sp, #12]
 80051f4:	1a43      	subs	r3, r0, r1
 80051f6:	eb02 000c 	add.w	r0, r2, ip
 80051fa:	60a3      	str	r3, [r4, #8]
 80051fc:	6020      	str	r0, [r4, #0]
 80051fe:	f8d8 2008 	ldr.w	r2, [r8, #8]
 8005202:	44da      	add	sl, fp
 8005204:	1bd7      	subs	r7, r2, r7
 8005206:	ebcb 0606 	rsb	r6, fp, r6
 800520a:	f8c8 7008 	str.w	r7, [r8, #8]
 800520e:	2f00      	cmp	r7, #0
 8005210:	d0b2      	beq.n	8005178 <__sfvwrite_r+0x68>
 8005212:	89a3      	ldrh	r3, [r4, #12]
 8005214:	2e00      	cmp	r6, #0
 8005216:	d1ce      	bne.n	80051b6 <__sfvwrite_r+0xa6>
 8005218:	f8d5 a000 	ldr.w	sl, [r5]
 800521c:	686e      	ldr	r6, [r5, #4]
 800521e:	3508      	adds	r5, #8
 8005220:	e7c7      	b.n	80051b2 <__sfvwrite_r+0xa2>
 8005222:	f001 fc3f 	bl	8006aa4 <_realloc_r>
 8005226:	4601      	mov	r1, r0
 8005228:	2800      	cmp	r0, #0
 800522a:	f040 80c7 	bne.w	80053bc <__sfvwrite_r+0x2ac>
 800522e:	4648      	mov	r0, r9
 8005230:	6921      	ldr	r1, [r4, #16]
 8005232:	f7ff fea3 	bl	8004f7c <_free_r>
 8005236:	210c      	movs	r1, #12
 8005238:	f8c9 1000 	str.w	r1, [r9]
 800523c:	89a1      	ldrh	r1, [r4, #12]
 800523e:	f04f 30ff 	mov.w	r0, #4294967295	; 0xffffffff
 8005242:	f041 0240 	orr.w	r2, r1, #64	; 0x40
 8005246:	81a2      	strh	r2, [r4, #12]
 8005248:	e797      	b.n	800517a <__sfvwrite_r+0x6a>
 800524a:	46b2      	mov	sl, r6
 800524c:	46b4      	mov	ip, r6
 800524e:	46b3      	mov	fp, r6
 8005250:	4637      	mov	r7, r6
 8005252:	2f00      	cmp	r7, #0
 8005254:	d02f      	beq.n	80052b6 <__sfvwrite_r+0x1a6>
 8005256:	f1bc 0f00 	cmp.w	ip, #0
 800525a:	d076      	beq.n	800534a <__sfvwrite_r+0x23a>
 800525c:	6820      	ldr	r0, [r4, #0]
 800525e:	6922      	ldr	r2, [r4, #16]
 8005260:	45ba      	cmp	sl, r7
 8005262:	bf34      	ite	cc
 8005264:	4653      	movcc	r3, sl
 8005266:	463b      	movcs	r3, r7
 8005268:	4290      	cmp	r0, r2
 800526a:	68a1      	ldr	r1, [r4, #8]
 800526c:	f8d4 e014 	ldr.w	lr, [r4, #20]
 8005270:	d904      	bls.n	800527c <__sfvwrite_r+0x16c>
 8005272:	eb01 060e 	add.w	r6, r1, lr
 8005276:	42b3      	cmp	r3, r6
 8005278:	f300 80ad 	bgt.w	80053d6 <__sfvwrite_r+0x2c6>
 800527c:	4573      	cmp	r3, lr
 800527e:	db35      	blt.n	80052ec <__sfvwrite_r+0x1dc>
 8005280:	6a66      	ldr	r6, [r4, #36]	; 0x24
 8005282:	69e1      	ldr	r1, [r4, #28]
 8005284:	4648      	mov	r0, r9
 8005286:	f8cd c004 	str.w	ip, [sp, #4]
 800528a:	465a      	mov	r2, fp
 800528c:	4673      	mov	r3, lr
 800528e:	47b0      	blx	r6
 8005290:	1e06      	subs	r6, r0, #0
 8005292:	f8dd c004 	ldr.w	ip, [sp, #4]
 8005296:	ddd1      	ble.n	800523c <__sfvwrite_r+0x12c>
 8005298:	ebba 0a06 	subs.w	sl, sl, r6
 800529c:	d03a      	beq.n	8005314 <__sfvwrite_r+0x204>
 800529e:	f8d8 0008 	ldr.w	r0, [r8, #8]
 80052a2:	44b3      	add	fp, r6
 80052a4:	1b82      	subs	r2, r0, r6
 80052a6:	1bbf      	subs	r7, r7, r6
 80052a8:	f8c8 2008 	str.w	r2, [r8, #8]
 80052ac:	2a00      	cmp	r2, #0
 80052ae:	f43f af63 	beq.w	8005178 <__sfvwrite_r+0x68>
 80052b2:	2f00      	cmp	r7, #0
 80052b4:	d1cf      	bne.n	8005256 <__sfvwrite_r+0x146>
 80052b6:	f8d5 b000 	ldr.w	fp, [r5]
 80052ba:	686f      	ldr	r7, [r5, #4]
 80052bc:	f04f 0c00 	mov.w	ip, #0
 80052c0:	3508      	adds	r5, #8
 80052c2:	e7c6      	b.n	8005252 <__sfvwrite_r+0x142>
 80052c4:	6820      	ldr	r0, [r4, #0]
 80052c6:	6923      	ldr	r3, [r4, #16]
 80052c8:	4298      	cmp	r0, r3
 80052ca:	d903      	bls.n	80052d4 <__sfvwrite_r+0x1c4>
 80052cc:	42be      	cmp	r6, r7
 80052ce:	46bb      	mov	fp, r7
 80052d0:	f200 8094 	bhi.w	80053fc <__sfvwrite_r+0x2ec>
 80052d4:	6963      	ldr	r3, [r4, #20]
 80052d6:	429e      	cmp	r6, r3
 80052d8:	d32a      	bcc.n	8005330 <__sfvwrite_r+0x220>
 80052da:	6a67      	ldr	r7, [r4, #36]	; 0x24
 80052dc:	4648      	mov	r0, r9
 80052de:	69e1      	ldr	r1, [r4, #28]
 80052e0:	4652      	mov	r2, sl
 80052e2:	47b8      	blx	r7
 80052e4:	1e07      	subs	r7, r0, #0
 80052e6:	dda9      	ble.n	800523c <__sfvwrite_r+0x12c>
 80052e8:	46bb      	mov	fp, r7
 80052ea:	e788      	b.n	80051fe <__sfvwrite_r+0xee>
 80052ec:	461a      	mov	r2, r3
 80052ee:	4659      	mov	r1, fp
 80052f0:	9302      	str	r3, [sp, #8]
 80052f2:	f8cd c004 	str.w	ip, [sp, #4]
 80052f6:	f000 fd5d 	bl	8005db4 <memmove>
 80052fa:	9b02      	ldr	r3, [sp, #8]
 80052fc:	6826      	ldr	r6, [r4, #0]
 80052fe:	68a0      	ldr	r0, [r4, #8]
 8005300:	18f2      	adds	r2, r6, r3
 8005302:	461e      	mov	r6, r3
 8005304:	1ac1      	subs	r1, r0, r3
 8005306:	ebba 0a06 	subs.w	sl, sl, r6
 800530a:	60a1      	str	r1, [r4, #8]
 800530c:	6022      	str	r2, [r4, #0]
 800530e:	f8dd c004 	ldr.w	ip, [sp, #4]
 8005312:	d1c4      	bne.n	800529e <__sfvwrite_r+0x18e>
 8005314:	4648      	mov	r0, r9
 8005316:	4621      	mov	r1, r4
 8005318:	f7ff fcda 	bl	8004cd0 <_fflush_r>
 800531c:	2800      	cmp	r0, #0
 800531e:	d18d      	bne.n	800523c <__sfvwrite_r+0x12c>
 8005320:	46d4      	mov	ip, sl
 8005322:	e7bc      	b.n	800529e <__sfvwrite_r+0x18e>
 8005324:	6820      	ldr	r0, [r4, #0]
 8005326:	9603      	str	r6, [sp, #12]
 8005328:	46b3      	mov	fp, r6
 800532a:	4637      	mov	r7, r6
 800532c:	46b6      	mov	lr, r6
 800532e:	e756      	b.n	80051de <__sfvwrite_r+0xce>
 8005330:	4651      	mov	r1, sl
 8005332:	4632      	mov	r2, r6
 8005334:	f000 fd3e 	bl	8005db4 <memmove>
 8005338:	6827      	ldr	r7, [r4, #0]
 800533a:	68a2      	ldr	r2, [r4, #8]
 800533c:	19b9      	adds	r1, r7, r6
 800533e:	1b90      	subs	r0, r2, r6
 8005340:	4637      	mov	r7, r6
 8005342:	60a0      	str	r0, [r4, #8]
 8005344:	6021      	str	r1, [r4, #0]
 8005346:	46b3      	mov	fp, r6
 8005348:	e759      	b.n	80051fe <__sfvwrite_r+0xee>
 800534a:	4658      	mov	r0, fp
 800534c:	210a      	movs	r1, #10
 800534e:	463a      	mov	r2, r7
 8005350:	f000 fbe2 	bl	8005b18 <memchr>
 8005354:	2800      	cmp	r0, #0
 8005356:	d060      	beq.n	800541a <__sfvwrite_r+0x30a>
 8005358:	f100 0a01 	add.w	sl, r0, #1
 800535c:	ebcb 0a0a 	rsb	sl, fp, sl
 8005360:	f04f 0c01 	mov.w	ip, #1
 8005364:	e77a      	b.n	800525c <__sfvwrite_r+0x14c>
 8005366:	6822      	ldr	r2, [r4, #0]
 8005368:	6967      	ldr	r7, [r4, #20]
 800536a:	6921      	ldr	r1, [r4, #16]
 800536c:	eb07 0047 	add.w	r0, r7, r7, lsl #1
 8005370:	ebc1 0b02 	rsb	fp, r1, r2
 8005374:	eb00 72d0 	add.w	r2, r0, r0, lsr #31
 8005378:	f10b 0001 	add.w	r0, fp, #1
 800537c:	1057      	asrs	r7, r2, #1
 800537e:	1980      	adds	r0, r0, r6
 8005380:	4287      	cmp	r7, r0
 8005382:	f403 6380 	and.w	r3, r3, #1024	; 0x400
 8005386:	463a      	mov	r2, r7
 8005388:	b21b      	sxth	r3, r3
 800538a:	bf3c      	itt	cc
 800538c:	4607      	movcc	r7, r0
 800538e:	463a      	movcc	r2, r7
 8005390:	4648      	mov	r0, r9
 8005392:	2b00      	cmp	r3, #0
 8005394:	f43f af45 	beq.w	8005222 <__sfvwrite_r+0x112>
 8005398:	4611      	mov	r1, r2
 800539a:	f000 f925 	bl	80055e8 <_malloc_r>
 800539e:	2800      	cmp	r0, #0
 80053a0:	f43f af49 	beq.w	8005236 <__sfvwrite_r+0x126>
 80053a4:	6921      	ldr	r1, [r4, #16]
 80053a6:	465a      	mov	r2, fp
 80053a8:	9002      	str	r0, [sp, #8]
 80053aa:	f000 fc55 	bl	8005c58 <memcpy>
 80053ae:	89a2      	ldrh	r2, [r4, #12]
 80053b0:	f422 6090 	bic.w	r0, r2, #1152	; 0x480
 80053b4:	f040 0180 	orr.w	r1, r0, #128	; 0x80
 80053b8:	81a1      	strh	r1, [r4, #12]
 80053ba:	9902      	ldr	r1, [sp, #8]
 80053bc:	ebcb 0307 	rsb	r3, fp, r7
 80053c0:	eb01 000b 	add.w	r0, r1, fp
 80053c4:	6167      	str	r7, [r4, #20]
 80053c6:	6121      	str	r1, [r4, #16]
 80053c8:	6020      	str	r0, [r4, #0]
 80053ca:	9603      	str	r6, [sp, #12]
 80053cc:	60a3      	str	r3, [r4, #8]
 80053ce:	46b3      	mov	fp, r6
 80053d0:	4637      	mov	r7, r6
 80053d2:	46b6      	mov	lr, r6
 80053d4:	e703      	b.n	80051de <__sfvwrite_r+0xce>
 80053d6:	4659      	mov	r1, fp
 80053d8:	4632      	mov	r2, r6
 80053da:	f8cd c004 	str.w	ip, [sp, #4]
 80053de:	f000 fce9 	bl	8005db4 <memmove>
 80053e2:	6823      	ldr	r3, [r4, #0]
 80053e4:	4648      	mov	r0, r9
 80053e6:	1999      	adds	r1, r3, r6
 80053e8:	6021      	str	r1, [r4, #0]
 80053ea:	4621      	mov	r1, r4
 80053ec:	f7ff fc70 	bl	8004cd0 <_fflush_r>
 80053f0:	f8dd c004 	ldr.w	ip, [sp, #4]
 80053f4:	2800      	cmp	r0, #0
 80053f6:	f43f af4f 	beq.w	8005298 <__sfvwrite_r+0x188>
 80053fa:	e71f      	b.n	800523c <__sfvwrite_r+0x12c>
 80053fc:	4651      	mov	r1, sl
 80053fe:	463a      	mov	r2, r7
 8005400:	f000 fcd8 	bl	8005db4 <memmove>
 8005404:	6823      	ldr	r3, [r4, #0]
 8005406:	4648      	mov	r0, r9
 8005408:	19da      	adds	r2, r3, r7
 800540a:	6022      	str	r2, [r4, #0]
 800540c:	4621      	mov	r1, r4
 800540e:	f7ff fc5f 	bl	8004cd0 <_fflush_r>
 8005412:	2800      	cmp	r0, #0
 8005414:	f43f aef3 	beq.w	80051fe <__sfvwrite_r+0xee>
 8005418:	e710      	b.n	800523c <__sfvwrite_r+0x12c>
 800541a:	f107 0a01 	add.w	sl, r7, #1
 800541e:	f04f 0c01 	mov.w	ip, #1
 8005422:	e71b      	b.n	800525c <__sfvwrite_r+0x14c>

08005424 <_fwalk>:
_fwalk():
 8005424:	e92d 47f0 	stmdb	sp!, {r4, r5, r6, r7, r8, r9, sl, lr}
 8005428:	4680      	mov	r8, r0
 800542a:	4689      	mov	r9, r1
 800542c:	f7ff fd56 	bl	8004edc <__sfp_lock_acquire>
 8005430:	f518 7838 	adds.w	r8, r8, #736	; 0x2e0
 8005434:	d04f      	beq.n	80054d6 <_fwalk+0xb2>
 8005436:	f04f 0a00 	mov.w	sl, #0
 800543a:	f8d8 5004 	ldr.w	r5, [r8, #4]
 800543e:	f8d8 4008 	ldr.w	r4, [r8, #8]
 8005442:	3d01      	subs	r5, #1
 8005444:	d43d      	bmi.n	80054c2 <_fwalk+0x9e>
 8005446:	f9b4 300c 	ldrsh.w	r3, [r4, #12]
 800544a:	f005 0601 	and.w	r6, r5, #1
 800544e:	b13b      	cbz	r3, 8005460 <_fwalk+0x3c>
 8005450:	f9b4 000e 	ldrsh.w	r0, [r4, #14]
 8005454:	1c43      	adds	r3, r0, #1
 8005456:	d003      	beq.n	8005460 <_fwalk+0x3c>
 8005458:	4620      	mov	r0, r4
 800545a:	47c8      	blx	r9
 800545c:	ea4a 0a00 	orr.w	sl, sl, r0
 8005460:	3468      	adds	r4, #104	; 0x68
 8005462:	1e6f      	subs	r7, r5, #1
 8005464:	b36d      	cbz	r5, 80054c2 <_fwalk+0x9e>
 8005466:	b176      	cbz	r6, 8005486 <_fwalk+0x62>
 8005468:	f9b4 100c 	ldrsh.w	r1, [r4, #12]
 800546c:	b139      	cbz	r1, 800547e <_fwalk+0x5a>
 800546e:	f9b4 200e 	ldrsh.w	r2, [r4, #14]
 8005472:	1c53      	adds	r3, r2, #1
 8005474:	d003      	beq.n	800547e <_fwalk+0x5a>
 8005476:	4620      	mov	r0, r4
 8005478:	47c8      	blx	r9
 800547a:	ea4a 0a00 	orr.w	sl, sl, r0
 800547e:	3f01      	subs	r7, #1
 8005480:	3468      	adds	r4, #104	; 0x68
 8005482:	1c7b      	adds	r3, r7, #1
 8005484:	d01d      	beq.n	80054c2 <_fwalk+0x9e>
 8005486:	f9b4 300c 	ldrsh.w	r3, [r4, #12]
 800548a:	f104 0568 	add.w	r5, r4, #104	; 0x68
 800548e:	1e7e      	subs	r6, r7, #1
 8005490:	b13b      	cbz	r3, 80054a2 <_fwalk+0x7e>
 8005492:	f9b4 700e 	ldrsh.w	r7, [r4, #14]
 8005496:	4620      	mov	r0, r4
 8005498:	1c7b      	adds	r3, r7, #1
 800549a:	d002      	beq.n	80054a2 <_fwalk+0x7e>
 800549c:	47c8      	blx	r9
 800549e:	ea4a 0a00 	orr.w	sl, sl, r0
 80054a2:	f9b5 400c 	ldrsh.w	r4, [r5, #12]
 80054a6:	b13c      	cbz	r4, 80054b8 <_fwalk+0x94>
 80054a8:	f9b5 100e 	ldrsh.w	r1, [r5, #14]
 80054ac:	4628      	mov	r0, r5
 80054ae:	1c4b      	adds	r3, r1, #1
 80054b0:	d002      	beq.n	80054b8 <_fwalk+0x94>
 80054b2:	47c8      	blx	r9
 80054b4:	ea4a 0a00 	orr.w	sl, sl, r0
 80054b8:	f105 0468 	add.w	r4, r5, #104	; 0x68
 80054bc:	1e77      	subs	r7, r6, #1
 80054be:	2e00      	cmp	r6, #0
 80054c0:	d1e1      	bne.n	8005486 <_fwalk+0x62>
 80054c2:	f8d8 8000 	ldr.w	r8, [r8]
 80054c6:	f1b8 0f00 	cmp.w	r8, #0
 80054ca:	d1b6      	bne.n	800543a <_fwalk+0x16>
 80054cc:	f7ff fd08 	bl	8004ee0 <__sfp_lock_release>
 80054d0:	4650      	mov	r0, sl
 80054d2:	e8bd 87f0 	ldmia.w	sp!, {r4, r5, r6, r7, r8, r9, sl, pc}
 80054d6:	46c2      	mov	sl, r8
 80054d8:	e7f8      	b.n	80054cc <_fwalk+0xa8>
 80054da:	bf00      	nop

080054dc <__locale_charset>:
__locale_charset():
 80054dc:	f240 406c 	movw	r0, #1132	; 0x46c
 80054e0:	f2c2 0000 	movt	r0, #8192	; 0x2000
 80054e4:	4770      	bx	lr
 80054e6:	bf00      	nop

080054e8 <__locale_mb_cur_max>:
__locale_mb_cur_max():
 80054e8:	f240 438c 	movw	r3, #1164	; 0x48c
 80054ec:	f2c2 0300 	movt	r3, #8192	; 0x2000
 80054f0:	6818      	ldr	r0, [r3, #0]
 80054f2:	4770      	bx	lr

080054f4 <_localeconv_r>:
_localeconv_r():
 80054f4:	f240 4034 	movw	r0, #1076	; 0x434
 80054f8:	f2c2 0000 	movt	r0, #8192	; 0x2000
 80054fc:	4770      	bx	lr
 80054fe:	bf00      	nop

08005500 <__smakebuf_r>:
__smakebuf_r():
 8005500:	b5f0      	push	{r4, r5, r6, r7, lr}
 8005502:	898b      	ldrh	r3, [r1, #12]
 8005504:	460c      	mov	r4, r1
 8005506:	f003 0202 	and.w	r2, r3, #2
 800550a:	b211      	sxth	r1, r2
 800550c:	b091      	sub	sp, #68	; 0x44
 800550e:	4605      	mov	r5, r0
 8005510:	2900      	cmp	r1, #0
 8005512:	d138      	bne.n	8005586 <__smakebuf_r+0x86>
 8005514:	f9b4 100e 	ldrsh.w	r1, [r4, #14]
 8005518:	2900      	cmp	r1, #0
 800551a:	db16      	blt.n	800554a <__smakebuf_r+0x4a>
 800551c:	aa01      	add	r2, sp, #4
 800551e:	f001 ff27 	bl	8007370 <_fstat_r>
 8005522:	2800      	cmp	r0, #0
 8005524:	db10      	blt.n	8005548 <__smakebuf_r+0x48>
 8005526:	9b02      	ldr	r3, [sp, #8]
 8005528:	f403 4070 	and.w	r0, r3, #61440	; 0xf000
 800552c:	f5b0 5600 	subs.w	r6, r0, #8192	; 0x2000
 8005530:	4277      	negs	r7, r6
 8005532:	4177      	adcs	r7, r6
 8005534:	f5b0 4f00 	cmp.w	r0, #32768	; 0x8000
 8005538:	d02c      	beq.n	8005594 <__smakebuf_r+0x94>
 800553a:	89a3      	ldrh	r3, [r4, #12]
 800553c:	f44f 6680 	mov.w	r6, #1024	; 0x400
 8005540:	f443 6000 	orr.w	r0, r3, #2048	; 0x800
 8005544:	81a0      	strh	r0, [r4, #12]
 8005546:	e00c      	b.n	8005562 <__smakebuf_r+0x62>
 8005548:	89a3      	ldrh	r3, [r4, #12]
 800554a:	f003 0680 	and.w	r6, r3, #128	; 0x80
 800554e:	b237      	sxth	r7, r6
 8005550:	f443 6200 	orr.w	r2, r3, #2048	; 0x800
 8005554:	2f00      	cmp	r7, #0
 8005556:	bf0c      	ite	eq
 8005558:	f44f 6680 	moveq.w	r6, #1024	; 0x400
 800555c:	2640      	movne	r6, #64	; 0x40
 800555e:	81a2      	strh	r2, [r4, #12]
 8005560:	2700      	movs	r7, #0
 8005562:	4631      	mov	r1, r6
 8005564:	4628      	mov	r0, r5
 8005566:	f000 f83f 	bl	80055e8 <_malloc_r>
 800556a:	89a1      	ldrh	r1, [r4, #12]
 800556c:	2800      	cmp	r0, #0
 800556e:	d028      	beq.n	80055c2 <__smakebuf_r+0xc2>
 8005570:	4a1b      	ldr	r2, [pc, #108]	; (80055e0 <__smakebuf_r+0xe0>)
 8005572:	f041 0380 	orr.w	r3, r1, #128	; 0x80
 8005576:	63ea      	str	r2, [r5, #60]	; 0x3c
 8005578:	81a3      	strh	r3, [r4, #12]
 800557a:	6020      	str	r0, [r4, #0]
 800557c:	6120      	str	r0, [r4, #16]
 800557e:	6166      	str	r6, [r4, #20]
 8005580:	b99f      	cbnz	r7, 80055aa <__smakebuf_r+0xaa>
 8005582:	b011      	add	sp, #68	; 0x44
 8005584:	bdf0      	pop	{r4, r5, r6, r7, pc}
 8005586:	f104 0243 	add.w	r2, r4, #67	; 0x43
 800558a:	2001      	movs	r0, #1
 800558c:	6022      	str	r2, [r4, #0]
 800558e:	6122      	str	r2, [r4, #16]
 8005590:	6160      	str	r0, [r4, #20]
 8005592:	e7f6      	b.n	8005582 <__smakebuf_r+0x82>
 8005594:	6aa1      	ldr	r1, [r4, #40]	; 0x28
 8005596:	4a13      	ldr	r2, [pc, #76]	; (80055e4 <__smakebuf_r+0xe4>)
 8005598:	4291      	cmp	r1, r2
 800559a:	d1ce      	bne.n	800553a <__smakebuf_r+0x3a>
 800559c:	89a1      	ldrh	r1, [r4, #12]
 800559e:	f44f 6680 	mov.w	r6, #1024	; 0x400
 80055a2:	4331      	orrs	r1, r6
 80055a4:	81a1      	strh	r1, [r4, #12]
 80055a6:	64e6      	str	r6, [r4, #76]	; 0x4c
 80055a8:	e7db      	b.n	8005562 <__smakebuf_r+0x62>
 80055aa:	4628      	mov	r0, r5
 80055ac:	f9b4 100e 	ldrsh.w	r1, [r4, #14]
 80055b0:	f001 fef2 	bl	8007398 <_isatty_r>
 80055b4:	2800      	cmp	r0, #0
 80055b6:	d0e4      	beq.n	8005582 <__smakebuf_r+0x82>
 80055b8:	89a0      	ldrh	r0, [r4, #12]
 80055ba:	f040 0101 	orr.w	r1, r0, #1
 80055be:	81a1      	strh	r1, [r4, #12]
 80055c0:	e7df      	b.n	8005582 <__smakebuf_r+0x82>
 80055c2:	f401 7300 	and.w	r3, r1, #512	; 0x200
 80055c6:	b21a      	sxth	r2, r3
 80055c8:	2a00      	cmp	r2, #0
 80055ca:	d1da      	bne.n	8005582 <__smakebuf_r+0x82>
 80055cc:	f104 0043 	add.w	r0, r4, #67	; 0x43
 80055d0:	f041 0102 	orr.w	r1, r1, #2
 80055d4:	2301      	movs	r3, #1
 80055d6:	81a1      	strh	r1, [r4, #12]
 80055d8:	6020      	str	r0, [r4, #0]
 80055da:	6120      	str	r0, [r4, #16]
 80055dc:	6163      	str	r3, [r4, #20]
 80055de:	e7d0      	b.n	8005582 <__smakebuf_r+0x82>
 80055e0:	08004e35 	.word	0x08004e35
 80055e4:	08006f85 	.word	0x08006f85

080055e8 <_malloc_r>:
_malloc_r():
 80055e8:	e92d 4ff0 	stmdb	sp!, {r4, r5, r6, r7, r8, r9, sl, fp, lr}
 80055ec:	f101 050b 	add.w	r5, r1, #11
 80055f0:	2d16      	cmp	r5, #22
 80055f2:	b083      	sub	sp, #12
 80055f4:	4606      	mov	r6, r0
 80055f6:	d927      	bls.n	8005648 <_malloc_r+0x60>
 80055f8:	f035 0507 	bics.w	r5, r5, #7
 80055fc:	d427      	bmi.n	800564e <_malloc_r+0x66>
 80055fe:	42a9      	cmp	r1, r5
 8005600:	d825      	bhi.n	800564e <_malloc_r+0x66>
 8005602:	4630      	mov	r0, r6
 8005604:	f000 fd44 	bl	8006090 <__malloc_lock>
 8005608:	f5b5 7ffc 	cmp.w	r5, #504	; 0x1f8
 800560c:	d223      	bcs.n	8005656 <_malloc_r+0x6e>
 800560e:	4fb9      	ldr	r7, [pc, #740]	; (80058f4 <_malloc_r+0x30c>)
 8005610:	ea4f 0cd5 	mov.w	ip, r5, lsr #3
 8005614:	eb07 02cc 	add.w	r2, r7, ip, lsl #3
 8005618:	68d4      	ldr	r4, [r2, #12]
 800561a:	4294      	cmp	r4, r2
 800561c:	f000 81d8 	beq.w	80059d0 <_malloc_r+0x3e8>
 8005620:	6863      	ldr	r3, [r4, #4]
 8005622:	68e2      	ldr	r2, [r4, #12]
 8005624:	f023 0103 	bic.w	r1, r3, #3
 8005628:	1863      	adds	r3, r4, r1
 800562a:	6858      	ldr	r0, [r3, #4]
 800562c:	68a1      	ldr	r1, [r4, #8]
 800562e:	f040 0001 	orr.w	r0, r0, #1
 8005632:	6058      	str	r0, [r3, #4]
 8005634:	60ca      	str	r2, [r1, #12]
 8005636:	6091      	str	r1, [r2, #8]
 8005638:	4630      	mov	r0, r6
 800563a:	f000 fd2b 	bl	8006094 <__malloc_unlock>
 800563e:	3408      	adds	r4, #8
 8005640:	4620      	mov	r0, r4
 8005642:	b003      	add	sp, #12
 8005644:	e8bd 8ff0 	ldmia.w	sp!, {r4, r5, r6, r7, r8, r9, sl, fp, pc}
 8005648:	2510      	movs	r5, #16
 800564a:	42a9      	cmp	r1, r5
 800564c:	d9d9      	bls.n	8005602 <_malloc_r+0x1a>
 800564e:	240c      	movs	r4, #12
 8005650:	6034      	str	r4, [r6, #0]
 8005652:	2400      	movs	r4, #0
 8005654:	e7f4      	b.n	8005640 <_malloc_r+0x58>
 8005656:	ea5f 2c55 	movs.w	ip, r5, lsr #9
 800565a:	f000 8089 	beq.w	8005770 <_malloc_r+0x188>
 800565e:	f1bc 0f04 	cmp.w	ip, #4
 8005662:	f200 8153 	bhi.w	800590c <_malloc_r+0x324>
 8005666:	ea4f 1795 	mov.w	r7, r5, lsr #6
 800566a:	f107 0e38 	add.w	lr, r7, #56	; 0x38
 800566e:	ea4f 014e 	mov.w	r1, lr, lsl #1
 8005672:	4fa0      	ldr	r7, [pc, #640]	; (80058f4 <_malloc_r+0x30c>)
 8005674:	eb07 0181 	add.w	r1, r7, r1, lsl #2
 8005678:	68cc      	ldr	r4, [r1, #12]
 800567a:	42a1      	cmp	r1, r4
 800567c:	d105      	bne.n	800568a <_malloc_r+0xa2>
 800567e:	e00c      	b.n	800569a <_malloc_r+0xb2>
 8005680:	2a00      	cmp	r2, #0
 8005682:	da7a      	bge.n	800577a <_malloc_r+0x192>
 8005684:	68e4      	ldr	r4, [r4, #12]
 8005686:	42a1      	cmp	r1, r4
 8005688:	d007      	beq.n	800569a <_malloc_r+0xb2>
 800568a:	6863      	ldr	r3, [r4, #4]
 800568c:	f023 0003 	bic.w	r0, r3, #3
 8005690:	1b42      	subs	r2, r0, r5
 8005692:	2a0f      	cmp	r2, #15
 8005694:	ddf4      	ble.n	8005680 <_malloc_r+0x98>
 8005696:	f10e 3eff 	add.w	lr, lr, #4294967295	; 0xffffffff
 800569a:	f10e 0c01 	add.w	ip, lr, #1
 800569e:	4b95      	ldr	r3, [pc, #596]	; (80058f4 <_malloc_r+0x30c>)
 80056a0:	693c      	ldr	r4, [r7, #16]
 80056a2:	f103 0e08 	add.w	lr, r3, #8
 80056a6:	4574      	cmp	r4, lr
 80056a8:	f000 8170 	beq.w	800598c <_malloc_r+0x3a4>
 80056ac:	6861      	ldr	r1, [r4, #4]
 80056ae:	f021 0103 	bic.w	r1, r1, #3
 80056b2:	1b4a      	subs	r2, r1, r5
 80056b4:	2a0f      	cmp	r2, #15
 80056b6:	f300 8156 	bgt.w	8005966 <_malloc_r+0x37e>
 80056ba:	2a00      	cmp	r2, #0
 80056bc:	f8c3 e014 	str.w	lr, [r3, #20]
 80056c0:	f8c3 e010 	str.w	lr, [r3, #16]
 80056c4:	da67      	bge.n	8005796 <_malloc_r+0x1ae>
 80056c6:	f5b1 7f00 	cmp.w	r1, #512	; 0x200
 80056ca:	f080 812d 	bcs.w	8005928 <_malloc_r+0x340>
 80056ce:	08c9      	lsrs	r1, r1, #3
 80056d0:	1088      	asrs	r0, r1, #2
 80056d2:	f04f 0801 	mov.w	r8, #1
 80056d6:	fa08 f800 	lsl.w	r8, r8, r0
 80056da:	eb03 01c1 	add.w	r1, r3, r1, lsl #3
 80056de:	685a      	ldr	r2, [r3, #4]
 80056e0:	6888      	ldr	r0, [r1, #8]
 80056e2:	ea48 0202 	orr.w	r2, r8, r2
 80056e6:	60e1      	str	r1, [r4, #12]
 80056e8:	60a0      	str	r0, [r4, #8]
 80056ea:	605a      	str	r2, [r3, #4]
 80056ec:	608c      	str	r4, [r1, #8]
 80056ee:	60c4      	str	r4, [r0, #12]
 80056f0:	2001      	movs	r0, #1
 80056f2:	ea4f 04ac 	mov.w	r4, ip, asr #2
 80056f6:	fa00 f004 	lsl.w	r0, r0, r4
 80056fa:	4290      	cmp	r0, r2
 80056fc:	d855      	bhi.n	80057aa <_malloc_r+0x1c2>
 80056fe:	4202      	tst	r2, r0
 8005700:	d106      	bne.n	8005710 <_malloc_r+0x128>
 8005702:	f02c 0c03 	bic.w	ip, ip, #3
 8005706:	0040      	lsls	r0, r0, #1
 8005708:	4202      	tst	r2, r0
 800570a:	f10c 0c04 	add.w	ip, ip, #4
 800570e:	d0fa      	beq.n	8005706 <_malloc_r+0x11e>
 8005710:	eb07 09cc 	add.w	r9, r7, ip, lsl #3
 8005714:	464c      	mov	r4, r9
 8005716:	46e0      	mov	r8, ip
 8005718:	68e3      	ldr	r3, [r4, #12]
 800571a:	429c      	cmp	r4, r3
 800571c:	d107      	bne.n	800572e <_malloc_r+0x146>
 800571e:	e137      	b.n	8005990 <_malloc_r+0x3a8>
 8005720:	2a00      	cmp	r2, #0
 8005722:	f280 815f 	bge.w	80059e4 <_malloc_r+0x3fc>
 8005726:	68db      	ldr	r3, [r3, #12]
 8005728:	429c      	cmp	r4, r3
 800572a:	f000 8131 	beq.w	8005990 <_malloc_r+0x3a8>
 800572e:	6859      	ldr	r1, [r3, #4]
 8005730:	f021 0103 	bic.w	r1, r1, #3
 8005734:	1b4a      	subs	r2, r1, r5
 8005736:	2a0f      	cmp	r2, #15
 8005738:	ddf2      	ble.n	8005720 <_malloc_r+0x138>
 800573a:	461c      	mov	r4, r3
 800573c:	68d8      	ldr	r0, [r3, #12]
 800573e:	f854 cf08 	ldr.w	ip, [r4, #8]!
 8005742:	1959      	adds	r1, r3, r5
 8005744:	f045 0801 	orr.w	r8, r5, #1
 8005748:	f042 0501 	orr.w	r5, r2, #1
 800574c:	f8cc 000c 	str.w	r0, [ip, #12]
 8005750:	f8c0 c008 	str.w	ip, [r0, #8]
 8005754:	f8c3 8004 	str.w	r8, [r3, #4]
 8005758:	6179      	str	r1, [r7, #20]
 800575a:	6139      	str	r1, [r7, #16]
 800575c:	f8c1 e00c 	str.w	lr, [r1, #12]
 8005760:	f8c1 e008 	str.w	lr, [r1, #8]
 8005764:	604d      	str	r5, [r1, #4]
 8005766:	508a      	str	r2, [r1, r2]
 8005768:	4630      	mov	r0, r6
 800576a:	f000 fc93 	bl	8006094 <__malloc_unlock>
 800576e:	e767      	b.n	8005640 <_malloc_r+0x58>
 8005770:	ea4f 0ed5 	mov.w	lr, r5, lsr #3
 8005774:	ea4f 014e 	mov.w	r1, lr, lsl #1
 8005778:	e77b      	b.n	8005672 <_malloc_r+0x8a>
 800577a:	1822      	adds	r2, r4, r0
 800577c:	6850      	ldr	r0, [r2, #4]
 800577e:	68e3      	ldr	r3, [r4, #12]
 8005780:	68a1      	ldr	r1, [r4, #8]
 8005782:	f040 0001 	orr.w	r0, r0, #1
 8005786:	6050      	str	r0, [r2, #4]
 8005788:	60cb      	str	r3, [r1, #12]
 800578a:	6099      	str	r1, [r3, #8]
 800578c:	4630      	mov	r0, r6
 800578e:	f000 fc81 	bl	8006094 <__malloc_unlock>
 8005792:	3408      	adds	r4, #8
 8005794:	e754      	b.n	8005640 <_malloc_r+0x58>
 8005796:	1862      	adds	r2, r4, r1
 8005798:	6853      	ldr	r3, [r2, #4]
 800579a:	4630      	mov	r0, r6
 800579c:	f043 0101 	orr.w	r1, r3, #1
 80057a0:	6051      	str	r1, [r2, #4]
 80057a2:	f000 fc77 	bl	8006094 <__malloc_unlock>
 80057a6:	3408      	adds	r4, #8
 80057a8:	e74a      	b.n	8005640 <_malloc_r+0x58>
 80057aa:	68bc      	ldr	r4, [r7, #8]
 80057ac:	6860      	ldr	r0, [r4, #4]
 80057ae:	f020 0903 	bic.w	r9, r0, #3
 80057b2:	45a9      	cmp	r9, r5
 80057b4:	d304      	bcc.n	80057c0 <_malloc_r+0x1d8>
 80057b6:	ebc5 0309 	rsb	r3, r5, r9
 80057ba:	2b0f      	cmp	r3, #15
 80057bc:	f300 808d 	bgt.w	80058da <_malloc_r+0x2f2>
 80057c0:	4a4d      	ldr	r2, [pc, #308]	; (80058f8 <_malloc_r+0x310>)
 80057c2:	4b4e      	ldr	r3, [pc, #312]	; (80058fc <_malloc_r+0x314>)
 80057c4:	6811      	ldr	r1, [r2, #0]
 80057c6:	6818      	ldr	r0, [r3, #0]
 80057c8:	3101      	adds	r1, #1
 80057ca:	eb04 0b09 	add.w	fp, r4, r9
 80057ce:	eb05 0300 	add.w	r3, r5, r0
 80057d2:	f000 8151 	beq.w	8005a78 <_malloc_r+0x490>
 80057d6:	f503 5080 	add.w	r0, r3, #4096	; 0x1000
 80057da:	300f      	adds	r0, #15
 80057dc:	f420 617f 	bic.w	r1, r0, #4080	; 0xff0
 80057e0:	f021 0c0f 	bic.w	ip, r1, #15
 80057e4:	4661      	mov	r1, ip
 80057e6:	4630      	mov	r0, r6
 80057e8:	e88d 1004 	stmia.w	sp, {r2, ip}
 80057ec:	f001 fb84 	bl	8006ef8 <_sbrk_r>
 80057f0:	e89d 1004 	ldmia.w	sp, {r2, ip}
 80057f4:	f1b0 3fff 	cmp.w	r0, #4294967295	; 0xffffffff
 80057f8:	4680      	mov	r8, r0
 80057fa:	f000 8146 	beq.w	8005a8a <_malloc_r+0x4a2>
 80057fe:	4583      	cmp	fp, r0
 8005800:	f200 8108 	bhi.w	8005a14 <_malloc_r+0x42c>
 8005804:	f8df a100 	ldr.w	sl, [pc, #256]	; 8005908 <_malloc_r+0x320>
 8005808:	45c3      	cmp	fp, r8
 800580a:	f8da 3000 	ldr.w	r3, [sl]
 800580e:	4463      	add	r3, ip
 8005810:	f8ca 3000 	str.w	r3, [sl]
 8005814:	f000 813e 	beq.w	8005a94 <_malloc_r+0x4ac>
 8005818:	6812      	ldr	r2, [r2, #0]
 800581a:	3201      	adds	r2, #1
 800581c:	f000 814b 	beq.w	8005ab6 <_malloc_r+0x4ce>
 8005820:	ebcb 0b08 	rsb	fp, fp, r8
 8005824:	445b      	add	r3, fp
 8005826:	f8ca 3000 	str.w	r3, [sl]
 800582a:	f018 0107 	ands.w	r1, r8, #7
 800582e:	f000 8104 	beq.w	8005a3a <_malloc_r+0x452>
 8005832:	f1c1 0008 	rsb	r0, r1, #8
 8005836:	f5c1 5380 	rsb	r3, r1, #4096	; 0x1000
 800583a:	4480      	add	r8, r0
 800583c:	f103 0208 	add.w	r2, r3, #8
 8005840:	eb08 010c 	add.w	r1, r8, ip
 8005844:	0508      	lsls	r0, r1, #20
 8005846:	0d03      	lsrs	r3, r0, #20
 8005848:	ebc3 0b02 	rsb	fp, r3, r2
 800584c:	4630      	mov	r0, r6
 800584e:	4659      	mov	r1, fp
 8005850:	f001 fb52 	bl	8006ef8 <_sbrk_r>
 8005854:	1c43      	adds	r3, r0, #1
 8005856:	f000 813a 	beq.w	8005ace <_malloc_r+0x4e6>
 800585a:	ebc8 0200 	rsb	r2, r8, r0
 800585e:	eb0b 0102 	add.w	r1, fp, r2
 8005862:	f041 0001 	orr.w	r0, r1, #1
 8005866:	f8da 3000 	ldr.w	r3, [sl]
 800586a:	42bc      	cmp	r4, r7
 800586c:	445b      	add	r3, fp
 800586e:	f8c7 8008 	str.w	r8, [r7, #8]
 8005872:	f8ca 3000 	str.w	r3, [sl]
 8005876:	f8c8 0004 	str.w	r0, [r8, #4]
 800587a:	d015      	beq.n	80058a8 <_malloc_r+0x2c0>
 800587c:	f1b9 0f0f 	cmp.w	r9, #15
 8005880:	f240 80e9 	bls.w	8005a56 <_malloc_r+0x46e>
 8005884:	6861      	ldr	r1, [r4, #4]
 8005886:	f1a9 020c 	sub.w	r2, r9, #12
 800588a:	f022 0207 	bic.w	r2, r2, #7
 800588e:	f001 0c01 	and.w	ip, r1, #1
 8005892:	2005      	movs	r0, #5
 8005894:	18a1      	adds	r1, r4, r2
 8005896:	ea42 0e0c 	orr.w	lr, r2, ip
 800589a:	2a0f      	cmp	r2, #15
 800589c:	f8c4 e004 	str.w	lr, [r4, #4]
 80058a0:	6048      	str	r0, [r1, #4]
 80058a2:	6088      	str	r0, [r1, #8]
 80058a4:	f200 810b 	bhi.w	8005abe <_malloc_r+0x4d6>
 80058a8:	4a15      	ldr	r2, [pc, #84]	; (8005900 <_malloc_r+0x318>)
 80058aa:	68bc      	ldr	r4, [r7, #8]
 80058ac:	6810      	ldr	r0, [r2, #0]
 80058ae:	4283      	cmp	r3, r0
 80058b0:	bf88      	it	hi
 80058b2:	6013      	strhi	r3, [r2, #0]
 80058b4:	4a13      	ldr	r2, [pc, #76]	; (8005904 <_malloc_r+0x31c>)
 80058b6:	6811      	ldr	r1, [r2, #0]
 80058b8:	428b      	cmp	r3, r1
 80058ba:	bf88      	it	hi
 80058bc:	6013      	strhi	r3, [r2, #0]
 80058be:	6863      	ldr	r3, [r4, #4]
 80058c0:	f023 0003 	bic.w	r0, r3, #3
 80058c4:	42a8      	cmp	r0, r5
 80058c6:	ebc5 0300 	rsb	r3, r5, r0
 80058ca:	d301      	bcc.n	80058d0 <_malloc_r+0x2e8>
 80058cc:	2b0f      	cmp	r3, #15
 80058ce:	dc04      	bgt.n	80058da <_malloc_r+0x2f2>
 80058d0:	4630      	mov	r0, r6
 80058d2:	f000 fbdf 	bl	8006094 <__malloc_unlock>
 80058d6:	2400      	movs	r4, #0
 80058d8:	e6b2      	b.n	8005640 <_malloc_r+0x58>
 80058da:	1962      	adds	r2, r4, r5
 80058dc:	f043 0101 	orr.w	r1, r3, #1
 80058e0:	f045 0501 	orr.w	r5, r5, #1
 80058e4:	6065      	str	r5, [r4, #4]
 80058e6:	4630      	mov	r0, r6
 80058e8:	6051      	str	r1, [r2, #4]
 80058ea:	60ba      	str	r2, [r7, #8]
 80058ec:	f000 fbd2 	bl	8006094 <__malloc_unlock>
 80058f0:	3408      	adds	r4, #8
 80058f2:	e6a5      	b.n	8005640 <_malloc_r+0x58>
 80058f4:	20000490 	.word	0x20000490
 80058f8:	2000089c 	.word	0x2000089c
 80058fc:	200008b0 	.word	0x200008b0
 8005900:	200008ac 	.word	0x200008ac
 8005904:	200008a8 	.word	0x200008a8
 8005908:	200008b4 	.word	0x200008b4
 800590c:	f1bc 0f14 	cmp.w	ip, #20
 8005910:	d977      	bls.n	8005a02 <_malloc_r+0x41a>
 8005912:	f1bc 0f54 	cmp.w	ip, #84	; 0x54
 8005916:	f200 8086 	bhi.w	8005a26 <_malloc_r+0x43e>
 800591a:	ea4f 3415 	mov.w	r4, r5, lsr #12
 800591e:	f104 0e6e 	add.w	lr, r4, #110	; 0x6e
 8005922:	ea4f 014e 	mov.w	r1, lr, lsl #1
 8005926:	e6a4      	b.n	8005672 <_malloc_r+0x8a>
 8005928:	0a48      	lsrs	r0, r1, #9
 800592a:	2804      	cmp	r0, #4
 800592c:	d96e      	bls.n	8005a0c <_malloc_r+0x424>
 800592e:	2814      	cmp	r0, #20
 8005930:	f200 80a5 	bhi.w	8005a7e <_malloc_r+0x496>
 8005934:	f100 025b 	add.w	r2, r0, #91	; 0x5b
 8005938:	0050      	lsls	r0, r2, #1
 800593a:	eb07 0080 	add.w	r0, r7, r0, lsl #2
 800593e:	6883      	ldr	r3, [r0, #8]
 8005940:	f8df 81c8 	ldr.w	r8, [pc, #456]	; 8005b0c <_malloc_r+0x524>
 8005944:	4283      	cmp	r3, r0
 8005946:	d07b      	beq.n	8005a40 <_malloc_r+0x458>
 8005948:	685a      	ldr	r2, [r3, #4]
 800594a:	f022 0203 	bic.w	r2, r2, #3
 800594e:	4291      	cmp	r1, r2
 8005950:	d202      	bcs.n	8005958 <_malloc_r+0x370>
 8005952:	689b      	ldr	r3, [r3, #8]
 8005954:	4298      	cmp	r0, r3
 8005956:	d1f7      	bne.n	8005948 <_malloc_r+0x360>
 8005958:	68d9      	ldr	r1, [r3, #12]
 800595a:	687a      	ldr	r2, [r7, #4]
 800595c:	60e1      	str	r1, [r4, #12]
 800595e:	60a3      	str	r3, [r4, #8]
 8005960:	60dc      	str	r4, [r3, #12]
 8005962:	608c      	str	r4, [r1, #8]
 8005964:	e6c4      	b.n	80056f0 <_malloc_r+0x108>
 8005966:	1961      	adds	r1, r4, r5
 8005968:	f042 0001 	orr.w	r0, r2, #1
 800596c:	f045 0501 	orr.w	r5, r5, #1
 8005970:	6065      	str	r5, [r4, #4]
 8005972:	6159      	str	r1, [r3, #20]
 8005974:	6119      	str	r1, [r3, #16]
 8005976:	6048      	str	r0, [r1, #4]
 8005978:	f8c1 e00c 	str.w	lr, [r1, #12]
 800597c:	f8c1 e008 	str.w	lr, [r1, #8]
 8005980:	508a      	str	r2, [r1, r2]
 8005982:	4630      	mov	r0, r6
 8005984:	f000 fb86 	bl	8006094 <__malloc_unlock>
 8005988:	3408      	adds	r4, #8
 800598a:	e659      	b.n	8005640 <_malloc_r+0x58>
 800598c:	685a      	ldr	r2, [r3, #4]
 800598e:	e6af      	b.n	80056f0 <_malloc_r+0x108>
 8005990:	f108 0801 	add.w	r8, r8, #1
 8005994:	3408      	adds	r4, #8
 8005996:	f018 0f03 	tst.w	r8, #3
 800599a:	f47f aebd 	bne.w	8005718 <_malloc_r+0x130>
 800599e:	4649      	mov	r1, r9
 80059a0:	f01c 0f03 	tst.w	ip, #3
 80059a4:	f1a1 0408 	sub.w	r4, r1, #8
 80059a8:	f10c 3cff 	add.w	ip, ip, #4294967295	; 0xffffffff
 80059ac:	f000 80a2 	beq.w	8005af4 <_malloc_r+0x50c>
 80059b0:	6809      	ldr	r1, [r1, #0]
 80059b2:	42a1      	cmp	r1, r4
 80059b4:	d0f4      	beq.n	80059a0 <_malloc_r+0x3b8>
 80059b6:	687c      	ldr	r4, [r7, #4]
 80059b8:	0040      	lsls	r0, r0, #1
 80059ba:	42a0      	cmp	r0, r4
 80059bc:	f63f aef5 	bhi.w	80057aa <_malloc_r+0x1c2>
 80059c0:	2800      	cmp	r0, #0
 80059c2:	f43f aef2 	beq.w	80057aa <_malloc_r+0x1c2>
 80059c6:	4204      	tst	r4, r0
 80059c8:	f000 8099 	beq.w	8005afe <_malloc_r+0x516>
 80059cc:	46c4      	mov	ip, r8
 80059ce:	e69f      	b.n	8005710 <_malloc_r+0x128>
 80059d0:	f104 0308 	add.w	r3, r4, #8
 80059d4:	6964      	ldr	r4, [r4, #20]
 80059d6:	42a3      	cmp	r3, r4
 80059d8:	bf08      	it	eq
 80059da:	f10c 0c02 	addeq.w	ip, ip, #2
 80059de:	f43f ae5e 	beq.w	800569e <_malloc_r+0xb6>
 80059e2:	e61d      	b.n	8005620 <_malloc_r+0x38>
 80059e4:	1859      	adds	r1, r3, r1
 80059e6:	6848      	ldr	r0, [r1, #4]
 80059e8:	461c      	mov	r4, r3
 80059ea:	f854 2f08 	ldr.w	r2, [r4, #8]!
 80059ee:	68db      	ldr	r3, [r3, #12]
 80059f0:	f040 0001 	orr.w	r0, r0, #1
 80059f4:	6048      	str	r0, [r1, #4]
 80059f6:	60d3      	str	r3, [r2, #12]
 80059f8:	609a      	str	r2, [r3, #8]
 80059fa:	4630      	mov	r0, r6
 80059fc:	f000 fb4a 	bl	8006094 <__malloc_unlock>
 8005a00:	e61e      	b.n	8005640 <_malloc_r+0x58>
 8005a02:	f10c 0e5b 	add.w	lr, ip, #91	; 0x5b
 8005a06:	ea4f 014e 	mov.w	r1, lr, lsl #1
 8005a0a:	e632      	b.n	8005672 <_malloc_r+0x8a>
 8005a0c:	098a      	lsrs	r2, r1, #6
 8005a0e:	3238      	adds	r2, #56	; 0x38
 8005a10:	0050      	lsls	r0, r2, #1
 8005a12:	e792      	b.n	800593a <_malloc_r+0x352>
 8005a14:	42bc      	cmp	r4, r7
 8005a16:	f43f aef5 	beq.w	8005804 <_malloc_r+0x21c>
 8005a1a:	4c3c      	ldr	r4, [pc, #240]	; (8005b0c <_malloc_r+0x524>)
 8005a1c:	68a4      	ldr	r4, [r4, #8]
 8005a1e:	6862      	ldr	r2, [r4, #4]
 8005a20:	f022 0003 	bic.w	r0, r2, #3
 8005a24:	e74e      	b.n	80058c4 <_malloc_r+0x2dc>
 8005a26:	f5bc 7faa 	cmp.w	ip, #340	; 0x154
 8005a2a:	d81a      	bhi.n	8005a62 <_malloc_r+0x47a>
 8005a2c:	ea4f 32d5 	mov.w	r2, r5, lsr #15
 8005a30:	f102 0e77 	add.w	lr, r2, #119	; 0x77
 8005a34:	ea4f 014e 	mov.w	r1, lr, lsl #1
 8005a38:	e61b      	b.n	8005672 <_malloc_r+0x8a>
 8005a3a:	f44f 5280 	mov.w	r2, #4096	; 0x1000
 8005a3e:	e6ff      	b.n	8005840 <_malloc_r+0x258>
 8005a40:	1091      	asrs	r1, r2, #2
 8005a42:	2001      	movs	r0, #1
 8005a44:	fa00 f001 	lsl.w	r0, r0, r1
 8005a48:	f8d8 2004 	ldr.w	r2, [r8, #4]
 8005a4c:	4619      	mov	r1, r3
 8005a4e:	4302      	orrs	r2, r0
 8005a50:	f8c8 2004 	str.w	r2, [r8, #4]
 8005a54:	e782      	b.n	800595c <_malloc_r+0x374>
 8005a56:	2201      	movs	r2, #1
 8005a58:	f8c8 2004 	str.w	r2, [r8, #4]
 8005a5c:	4644      	mov	r4, r8
 8005a5e:	2000      	movs	r0, #0
 8005a60:	e730      	b.n	80058c4 <_malloc_r+0x2dc>
 8005a62:	f240 5354 	movw	r3, #1364	; 0x554
 8005a66:	459c      	cmp	ip, r3
 8005a68:	d821      	bhi.n	8005aae <_malloc_r+0x4c6>
 8005a6a:	ea4f 4095 	mov.w	r0, r5, lsr #18
 8005a6e:	f100 0e7c 	add.w	lr, r0, #124	; 0x7c
 8005a72:	ea4f 014e 	mov.w	r1, lr, lsl #1
 8005a76:	e5fc      	b.n	8005672 <_malloc_r+0x8a>
 8005a78:	f103 0c10 	add.w	ip, r3, #16
 8005a7c:	e6b2      	b.n	80057e4 <_malloc_r+0x1fc>
 8005a7e:	2854      	cmp	r0, #84	; 0x54
 8005a80:	d829      	bhi.n	8005ad6 <_malloc_r+0x4ee>
 8005a82:	0b0a      	lsrs	r2, r1, #12
 8005a84:	326e      	adds	r2, #110	; 0x6e
 8005a86:	0050      	lsls	r0, r2, #1
 8005a88:	e757      	b.n	800593a <_malloc_r+0x352>
 8005a8a:	68bc      	ldr	r4, [r7, #8]
 8005a8c:	6861      	ldr	r1, [r4, #4]
 8005a8e:	f021 0003 	bic.w	r0, r1, #3
 8005a92:	e717      	b.n	80058c4 <_malloc_r+0x2dc>
 8005a94:	ea4f 500b 	mov.w	r0, fp, lsl #20
 8005a98:	0d01      	lsrs	r1, r0, #20
 8005a9a:	2900      	cmp	r1, #0
 8005a9c:	f47f aebc 	bne.w	8005818 <_malloc_r+0x230>
 8005aa0:	68b8      	ldr	r0, [r7, #8]
 8005aa2:	eb0c 0109 	add.w	r1, ip, r9
 8005aa6:	f041 0401 	orr.w	r4, r1, #1
 8005aaa:	6044      	str	r4, [r0, #4]
 8005aac:	e6fc      	b.n	80058a8 <_malloc_r+0x2c0>
 8005aae:	21fc      	movs	r1, #252	; 0xfc
 8005ab0:	f04f 0e7e 	mov.w	lr, #126	; 0x7e
 8005ab4:	e5dd      	b.n	8005672 <_malloc_r+0x8a>
 8005ab6:	4816      	ldr	r0, [pc, #88]	; (8005b10 <_malloc_r+0x528>)
 8005ab8:	f8c0 8000 	str.w	r8, [r0]
 8005abc:	e6b5      	b.n	800582a <_malloc_r+0x242>
 8005abe:	f104 0108 	add.w	r1, r4, #8
 8005ac2:	4c14      	ldr	r4, [pc, #80]	; (8005b14 <_malloc_r+0x52c>)
 8005ac4:	4630      	mov	r0, r6
 8005ac6:	f7ff fa59 	bl	8004f7c <_free_r>
 8005aca:	6823      	ldr	r3, [r4, #0]
 8005acc:	e6ec      	b.n	80058a8 <_malloc_r+0x2c0>
 8005ace:	2001      	movs	r0, #1
 8005ad0:	f04f 0b00 	mov.w	fp, #0
 8005ad4:	e6c7      	b.n	8005866 <_malloc_r+0x27e>
 8005ad6:	f5b0 7faa 	cmp.w	r0, #340	; 0x154
 8005ada:	d803      	bhi.n	8005ae4 <_malloc_r+0x4fc>
 8005adc:	0bca      	lsrs	r2, r1, #15
 8005ade:	3277      	adds	r2, #119	; 0x77
 8005ae0:	0050      	lsls	r0, r2, #1
 8005ae2:	e72a      	b.n	800593a <_malloc_r+0x352>
 8005ae4:	f240 5354 	movw	r3, #1364	; 0x554
 8005ae8:	4298      	cmp	r0, r3
 8005aea:	d80c      	bhi.n	8005b06 <_malloc_r+0x51e>
 8005aec:	0c8a      	lsrs	r2, r1, #18
 8005aee:	327c      	adds	r2, #124	; 0x7c
 8005af0:	0050      	lsls	r0, r2, #1
 8005af2:	e722      	b.n	800593a <_malloc_r+0x352>
 8005af4:	687c      	ldr	r4, [r7, #4]
 8005af6:	ea24 0400 	bic.w	r4, r4, r0
 8005afa:	607c      	str	r4, [r7, #4]
 8005afc:	e75c      	b.n	80059b8 <_malloc_r+0x3d0>
 8005afe:	0040      	lsls	r0, r0, #1
 8005b00:	f108 0804 	add.w	r8, r8, #4
 8005b04:	e75f      	b.n	80059c6 <_malloc_r+0x3de>
 8005b06:	20fc      	movs	r0, #252	; 0xfc
 8005b08:	227e      	movs	r2, #126	; 0x7e
 8005b0a:	e716      	b.n	800593a <_malloc_r+0x352>
 8005b0c:	20000490 	.word	0x20000490
 8005b10:	2000089c 	.word	0x2000089c
 8005b14:	200008b4 	.word	0x200008b4

08005b18 <memchr>:
memchr():
 8005b18:	0783      	lsls	r3, r0, #30
 8005b1a:	b4f0      	push	{r4, r5, r6, r7}
 8005b1c:	b2c9      	uxtb	r1, r1
 8005b1e:	f000 8096 	beq.w	8005c4e <memchr+0x136>
 8005b22:	1e53      	subs	r3, r2, #1
 8005b24:	2a00      	cmp	r2, #0
 8005b26:	f000 8094 	beq.w	8005c52 <memchr+0x13a>
 8005b2a:	7802      	ldrb	r2, [r0, #0]
 8005b2c:	428a      	cmp	r2, r1
 8005b2e:	d00b      	beq.n	8005b48 <memchr+0x30>
 8005b30:	1c42      	adds	r2, r0, #1
 8005b32:	07d8      	lsls	r0, r3, #31
 8005b34:	d51a      	bpl.n	8005b6c <memchr+0x54>
 8005b36:	f012 0f03 	tst.w	r2, #3
 8005b3a:	4610      	mov	r0, r2
 8005b3c:	d01c      	beq.n	8005b78 <memchr+0x60>
 8005b3e:	7814      	ldrb	r4, [r2, #0]
 8005b40:	3b01      	subs	r3, #1
 8005b42:	3201      	adds	r2, #1
 8005b44:	428c      	cmp	r4, r1
 8005b46:	d111      	bne.n	8005b6c <memchr+0x54>
 8005b48:	bcf0      	pop	{r4, r5, r6, r7}
 8005b4a:	4770      	bx	lr
 8005b4c:	2b00      	cmp	r3, #0
 8005b4e:	d07c      	beq.n	8005c4a <memchr+0x132>
 8005b50:	7812      	ldrb	r2, [r2, #0]
 8005b52:	3b01      	subs	r3, #1
 8005b54:	428a      	cmp	r2, r1
 8005b56:	d0f7      	beq.n	8005b48 <memchr+0x30>
 8005b58:	f014 0f03 	tst.w	r4, #3
 8005b5c:	4620      	mov	r0, r4
 8005b5e:	f104 0201 	add.w	r2, r4, #1
 8005b62:	d009      	beq.n	8005b78 <memchr+0x60>
 8005b64:	7824      	ldrb	r4, [r4, #0]
 8005b66:	3b01      	subs	r3, #1
 8005b68:	428c      	cmp	r4, r1
 8005b6a:	d0ed      	beq.n	8005b48 <memchr+0x30>
 8005b6c:	f012 0f03 	tst.w	r2, #3
 8005b70:	4610      	mov	r0, r2
 8005b72:	f102 0401 	add.w	r4, r2, #1
 8005b76:	d1e9      	bne.n	8005b4c <memchr+0x34>
 8005b78:	2b03      	cmp	r3, #3
 8005b7a:	d93f      	bls.n	8005bfc <memchr+0xe4>
 8005b7c:	6804      	ldr	r4, [r0, #0]
 8005b7e:	ea41 2501 	orr.w	r5, r1, r1, lsl #8
 8005b82:	ea45 4505 	orr.w	r5, r5, r5, lsl #16
 8005b86:	ea85 0704 	eor.w	r7, r5, r4
 8005b8a:	f1a7 3201 	sub.w	r2, r7, #16843009	; 0x1010101
 8005b8e:	ea22 0207 	bic.w	r2, r2, r7
 8005b92:	1f1e      	subs	r6, r3, #4
 8005b94:	1d04      	adds	r4, r0, #4
 8005b96:	f012 3f80 	tst.w	r2, #2155905152	; 0x80808080
 8005b9a:	f3c6 0780 	ubfx	r7, r6, #2, #1
 8005b9e:	d12d      	bne.n	8005bfc <memchr+0xe4>
 8005ba0:	2e03      	cmp	r6, #3
 8005ba2:	4633      	mov	r3, r6
 8005ba4:	d929      	bls.n	8005bfa <memchr+0xe2>
 8005ba6:	b167      	cbz	r7, 8005bc2 <memchr+0xaa>
 8005ba8:	6826      	ldr	r6, [r4, #0]
 8005baa:	4620      	mov	r0, r4
 8005bac:	ea85 0206 	eor.w	r2, r5, r6
 8005bb0:	f1a2 3601 	sub.w	r6, r2, #16843009	; 0x1010101
 8005bb4:	ea26 0202 	bic.w	r2, r6, r2
 8005bb8:	3404      	adds	r4, #4
 8005bba:	f012 3f80 	tst.w	r2, #2155905152	; 0x80808080
 8005bbe:	d019      	beq.n	8005bf4 <memchr+0xdc>
 8005bc0:	e01c      	b.n	8005bfc <memchr+0xe4>
 8005bc2:	4620      	mov	r0, r4
 8005bc4:	6824      	ldr	r4, [r4, #0]
 8005bc6:	1d06      	adds	r6, r0, #4
 8005bc8:	ea85 0204 	eor.w	r2, r5, r4
 8005bcc:	f1a2 3401 	sub.w	r4, r2, #16843009	; 0x1010101
 8005bd0:	ea24 0202 	bic.w	r2, r4, r2
 8005bd4:	f012 3f80 	tst.w	r2, #2155905152	; 0x80808080
 8005bd8:	d110      	bne.n	8005bfc <memchr+0xe4>
 8005bda:	6834      	ldr	r4, [r6, #0]
 8005bdc:	3b04      	subs	r3, #4
 8005bde:	ea85 0204 	eor.w	r2, r5, r4
 8005be2:	f1a2 3401 	sub.w	r4, r2, #16843009	; 0x1010101
 8005be6:	ea24 0202 	bic.w	r2, r4, r2
 8005bea:	1d34      	adds	r4, r6, #4
 8005bec:	f012 3f80 	tst.w	r2, #2155905152	; 0x80808080
 8005bf0:	4630      	mov	r0, r6
 8005bf2:	d103      	bne.n	8005bfc <memchr+0xe4>
 8005bf4:	3b04      	subs	r3, #4
 8005bf6:	2b03      	cmp	r3, #3
 8005bf8:	d8e3      	bhi.n	8005bc2 <memchr+0xaa>
 8005bfa:	4620      	mov	r0, r4
 8005bfc:	1e5d      	subs	r5, r3, #1
 8005bfe:	b323      	cbz	r3, 8005c4a <memchr+0x132>
 8005c00:	7803      	ldrb	r3, [r0, #0]
 8005c02:	428b      	cmp	r3, r1
 8005c04:	d0a0      	beq.n	8005b48 <memchr+0x30>
 8005c06:	1c43      	adds	r3, r0, #1
 8005c08:	2200      	movs	r2, #0
 8005c0a:	07e8      	lsls	r0, r5, #31
 8005c0c:	d514      	bpl.n	8005c38 <memchr+0x120>
 8005c0e:	781c      	ldrb	r4, [r3, #0]
 8005c10:	4618      	mov	r0, r3
 8005c12:	2201      	movs	r2, #1
 8005c14:	3301      	adds	r3, #1
 8005c16:	428c      	cmp	r4, r1
 8005c18:	d096      	beq.n	8005b48 <memchr+0x30>
 8005c1a:	4295      	cmp	r5, r2
 8005c1c:	4618      	mov	r0, r3
 8005c1e:	f103 0401 	add.w	r4, r3, #1
 8005c22:	f102 0202 	add.w	r2, r2, #2
 8005c26:	d00e      	beq.n	8005c46 <memchr+0x12e>
 8005c28:	781b      	ldrb	r3, [r3, #0]
 8005c2a:	428b      	cmp	r3, r1
 8005c2c:	d08c      	beq.n	8005b48 <memchr+0x30>
 8005c2e:	4620      	mov	r0, r4
 8005c30:	7824      	ldrb	r4, [r4, #0]
 8005c32:	1c43      	adds	r3, r0, #1
 8005c34:	428c      	cmp	r4, r1
 8005c36:	d087      	beq.n	8005b48 <memchr+0x30>
 8005c38:	4295      	cmp	r5, r2
 8005c3a:	4618      	mov	r0, r3
 8005c3c:	f103 0401 	add.w	r4, r3, #1
 8005c40:	f102 0202 	add.w	r2, r2, #2
 8005c44:	d1f0      	bne.n	8005c28 <memchr+0x110>
 8005c46:	2000      	movs	r0, #0
 8005c48:	e77e      	b.n	8005b48 <memchr+0x30>
 8005c4a:	4618      	mov	r0, r3
 8005c4c:	e77c      	b.n	8005b48 <memchr+0x30>
 8005c4e:	4613      	mov	r3, r2
 8005c50:	e792      	b.n	8005b78 <memchr+0x60>
 8005c52:	4610      	mov	r0, r2
 8005c54:	e778      	b.n	8005b48 <memchr+0x30>
 8005c56:	bf00      	nop

08005c58 <memcpy>:
memcpy():
 8005c58:	2a0f      	cmp	r2, #15
 8005c5a:	e92d 03f0 	stmdb	sp!, {r4, r5, r6, r7, r8, r9}
 8005c5e:	f240 80a1 	bls.w	8005da4 <memcpy+0x14c>
 8005c62:	ea41 0300 	orr.w	r3, r1, r0
 8005c66:	079b      	lsls	r3, r3, #30
 8005c68:	f040 809e 	bne.w	8005da8 <memcpy+0x150>
 8005c6c:	680c      	ldr	r4, [r1, #0]
 8005c6e:	f1a2 0510 	sub.w	r5, r2, #16
 8005c72:	6004      	str	r4, [r0, #0]
 8005c74:	684b      	ldr	r3, [r1, #4]
 8005c76:	46ac      	mov	ip, r5
 8005c78:	6043      	str	r3, [r0, #4]
 8005c7a:	688c      	ldr	r4, [r1, #8]
 8005c7c:	f1bc 0f0f 	cmp.w	ip, #15
 8005c80:	6084      	str	r4, [r0, #8]
 8005c82:	68cc      	ldr	r4, [r1, #12]
 8005c84:	f3c5 1500 	ubfx	r5, r5, #4, #1
 8005c88:	60c4      	str	r4, [r0, #12]
 8005c8a:	f100 0310 	add.w	r3, r0, #16
 8005c8e:	f101 0410 	add.w	r4, r1, #16
 8005c92:	d92b      	bls.n	8005cec <memcpy+0x94>
 8005c94:	b175      	cbz	r5, 8005cb4 <memcpy+0x5c>
 8005c96:	6825      	ldr	r5, [r4, #0]
 8005c98:	f1ac 0c10 	sub.w	ip, ip, #16
 8005c9c:	601d      	str	r5, [r3, #0]
 8005c9e:	6865      	ldr	r5, [r4, #4]
 8005ca0:	605d      	str	r5, [r3, #4]
 8005ca2:	68a5      	ldr	r5, [r4, #8]
 8005ca4:	609d      	str	r5, [r3, #8]
 8005ca6:	68e5      	ldr	r5, [r4, #12]
 8005ca8:	3410      	adds	r4, #16
 8005caa:	60dd      	str	r5, [r3, #12]
 8005cac:	3310      	adds	r3, #16
 8005cae:	f1bc 0f0f 	cmp.w	ip, #15
 8005cb2:	d91b      	bls.n	8005cec <memcpy+0x94>
 8005cb4:	6827      	ldr	r7, [r4, #0]
 8005cb6:	f104 0610 	add.w	r6, r4, #16
 8005cba:	601f      	str	r7, [r3, #0]
 8005cbc:	6867      	ldr	r7, [r4, #4]
 8005cbe:	f103 0510 	add.w	r5, r3, #16
 8005cc2:	605f      	str	r7, [r3, #4]
 8005cc4:	68a7      	ldr	r7, [r4, #8]
 8005cc6:	f1ac 0c20 	sub.w	ip, ip, #32
 8005cca:	609f      	str	r7, [r3, #8]
 8005ccc:	68e7      	ldr	r7, [r4, #12]
 8005cce:	60df      	str	r7, [r3, #12]
 8005cd0:	6924      	ldr	r4, [r4, #16]
 8005cd2:	611c      	str	r4, [r3, #16]
 8005cd4:	6877      	ldr	r7, [r6, #4]
 8005cd6:	f106 0410 	add.w	r4, r6, #16
 8005cda:	606f      	str	r7, [r5, #4]
 8005cdc:	68b7      	ldr	r7, [r6, #8]
 8005cde:	3320      	adds	r3, #32
 8005ce0:	60af      	str	r7, [r5, #8]
 8005ce2:	68f6      	ldr	r6, [r6, #12]
 8005ce4:	f1bc 0f0f 	cmp.w	ip, #15
 8005ce8:	60ee      	str	r6, [r5, #12]
 8005cea:	d8e3      	bhi.n	8005cb4 <memcpy+0x5c>
 8005cec:	f1a2 0810 	sub.w	r8, r2, #16
 8005cf0:	f028 030f 	bic.w	r3, r8, #15
 8005cf4:	f002 040f 	and.w	r4, r2, #15
 8005cf8:	f103 0c10 	add.w	ip, r3, #16
 8005cfc:	2c03      	cmp	r4, #3
 8005cfe:	eb00 030c 	add.w	r3, r0, ip
 8005d02:	eb01 080c 	add.w	r8, r1, ip
 8005d06:	d951      	bls.n	8005dac <memcpy+0x154>
 8005d08:	1f21      	subs	r1, r4, #4
 8005d0a:	ea4f 0991 	mov.w	r9, r1, lsr #2
 8005d0e:	4644      	mov	r4, r8
 8005d10:	eb08 0c89 	add.w	ip, r8, r9, lsl #2
 8005d14:	f854 6b04 	ldr.w	r6, [r4], #4
 8005d18:	ebc8 010c 	rsb	r1, r8, ip
 8005d1c:	f10c 0c04 	add.w	ip, ip, #4
 8005d20:	461d      	mov	r5, r3
 8005d22:	4564      	cmp	r4, ip
 8005d24:	f845 6b04 	str.w	r6, [r5], #4
 8005d28:	f3c1 0180 	ubfx	r1, r1, #2, #1
 8005d2c:	d012      	beq.n	8005d54 <memcpy+0xfc>
 8005d2e:	b129      	cbz	r1, 8005d3c <memcpy+0xe4>
 8005d30:	f854 1b04 	ldr.w	r1, [r4], #4
 8005d34:	4564      	cmp	r4, ip
 8005d36:	f845 1b04 	str.w	r1, [r5], #4
 8005d3a:	d00b      	beq.n	8005d54 <memcpy+0xfc>
 8005d3c:	4627      	mov	r7, r4
 8005d3e:	f857 1b04 	ldr.w	r1, [r7], #4
 8005d42:	462e      	mov	r6, r5
 8005d44:	f846 1b04 	str.w	r1, [r6], #4
 8005d48:	6864      	ldr	r4, [r4, #4]
 8005d4a:	606c      	str	r4, [r5, #4]
 8005d4c:	1d3c      	adds	r4, r7, #4
 8005d4e:	1d35      	adds	r5, r6, #4
 8005d50:	4564      	cmp	r4, ip
 8005d52:	d1f3      	bne.n	8005d3c <memcpy+0xe4>
 8005d54:	f109 0c01 	add.w	ip, r9, #1
 8005d58:	ea4f 098c 	mov.w	r9, ip, lsl #2
 8005d5c:	f002 0203 	and.w	r2, r2, #3
 8005d60:	eb08 0109 	add.w	r1, r8, r9
 8005d64:	444b      	add	r3, r9
 8005d66:	b1d2      	cbz	r2, 8005d9e <memcpy+0x146>
 8005d68:	780d      	ldrb	r5, [r1, #0]
 8005d6a:	189a      	adds	r2, r3, r2
 8005d6c:	43dc      	mvns	r4, r3
 8005d6e:	f803 5b01 	strb.w	r5, [r3], #1
 8005d72:	1914      	adds	r4, r2, r4
 8005d74:	4293      	cmp	r3, r2
 8005d76:	f004 0401 	and.w	r4, r4, #1
 8005d7a:	d010      	beq.n	8005d9e <memcpy+0x146>
 8005d7c:	b12c      	cbz	r4, 8005d8a <memcpy+0x132>
 8005d7e:	f811 4f01 	ldrb.w	r4, [r1, #1]!
 8005d82:	f803 4b01 	strb.w	r4, [r3], #1
 8005d86:	4293      	cmp	r3, r2
 8005d88:	d009      	beq.n	8005d9e <memcpy+0x146>
 8005d8a:	784d      	ldrb	r5, [r1, #1]
 8005d8c:	461c      	mov	r4, r3
 8005d8e:	f804 5b01 	strb.w	r5, [r4], #1
 8005d92:	788d      	ldrb	r5, [r1, #2]
 8005d94:	3102      	adds	r1, #2
 8005d96:	705d      	strb	r5, [r3, #1]
 8005d98:	1c63      	adds	r3, r4, #1
 8005d9a:	4293      	cmp	r3, r2
 8005d9c:	d1f5      	bne.n	8005d8a <memcpy+0x132>
 8005d9e:	e8bd 03f0 	ldmia.w	sp!, {r4, r5, r6, r7, r8, r9}
 8005da2:	4770      	bx	lr
 8005da4:	4603      	mov	r3, r0
 8005da6:	e7de      	b.n	8005d66 <memcpy+0x10e>
 8005da8:	4603      	mov	r3, r0
 8005daa:	e7dd      	b.n	8005d68 <memcpy+0x110>
 8005dac:	4641      	mov	r1, r8
 8005dae:	4622      	mov	r2, r4
 8005db0:	e7d9      	b.n	8005d66 <memcpy+0x10e>
 8005db2:	bf00      	nop

08005db4 <memmove>:
memmove():
 8005db4:	4288      	cmp	r0, r1
 8005db6:	e92d 03f0 	stmdb	sp!, {r4, r5, r6, r7, r8, r9}
 8005dba:	d926      	bls.n	8005e0a <memmove+0x56>
 8005dbc:	188c      	adds	r4, r1, r2
 8005dbe:	42a0      	cmp	r0, r4
 8005dc0:	d223      	bcs.n	8005e0a <memmove+0x56>
 8005dc2:	1883      	adds	r3, r0, r2
 8005dc4:	1e55      	subs	r5, r2, #1
 8005dc6:	b1ea      	cbz	r2, 8005e04 <memmove+0x50>
 8005dc8:	4622      	mov	r2, r4
 8005dca:	f812 1d01 	ldrb.w	r1, [r2, #-1]!
 8005dce:	f005 0401 	and.w	r4, r5, #1
 8005dd2:	f803 1d01 	strb.w	r1, [r3, #-1]!
 8005dd6:	1e69      	subs	r1, r5, #1
 8005dd8:	b1a5      	cbz	r5, 8005e04 <memmove+0x50>
 8005dda:	b13c      	cbz	r4, 8005dec <memmove+0x38>
 8005ddc:	f812 4d01 	ldrb.w	r4, [r2, #-1]!
 8005de0:	3901      	subs	r1, #1
 8005de2:	f1b1 3fff 	cmp.w	r1, #4294967295	; 0xffffffff
 8005de6:	f803 4d01 	strb.w	r4, [r3, #-1]!
 8005dea:	d00b      	beq.n	8005e04 <memmove+0x50>
 8005dec:	f812 4d01 	ldrb.w	r4, [r2, #-1]!
 8005df0:	3902      	subs	r1, #2
 8005df2:	f803 4d01 	strb.w	r4, [r3, #-1]!
 8005df6:	f812 4d01 	ldrb.w	r4, [r2, #-1]!
 8005dfa:	f1b1 3fff 	cmp.w	r1, #4294967295	; 0xffffffff
 8005dfe:	f803 4d01 	strb.w	r4, [r3, #-1]!
 8005e02:	d1f3      	bne.n	8005dec <memmove+0x38>
 8005e04:	e8bd 03f0 	ldmia.w	sp!, {r4, r5, r6, r7, r8, r9}
 8005e08:	4770      	bx	lr
 8005e0a:	2a0f      	cmp	r2, #15
 8005e0c:	f240 80a2 	bls.w	8005f54 <memmove+0x1a0>
 8005e10:	ea41 0300 	orr.w	r3, r1, r0
 8005e14:	079b      	lsls	r3, r3, #30
 8005e16:	f040 809f 	bne.w	8005f58 <memmove+0x1a4>
 8005e1a:	680c      	ldr	r4, [r1, #0]
 8005e1c:	f1a2 0510 	sub.w	r5, r2, #16
 8005e20:	6004      	str	r4, [r0, #0]
 8005e22:	684b      	ldr	r3, [r1, #4]
 8005e24:	46ac      	mov	ip, r5
 8005e26:	6043      	str	r3, [r0, #4]
 8005e28:	688c      	ldr	r4, [r1, #8]
 8005e2a:	f1bc 0f0f 	cmp.w	ip, #15
 8005e2e:	6084      	str	r4, [r0, #8]
 8005e30:	68cc      	ldr	r4, [r1, #12]
 8005e32:	f3c5 1500 	ubfx	r5, r5, #4, #1
 8005e36:	60c4      	str	r4, [r0, #12]
 8005e38:	f100 0310 	add.w	r3, r0, #16
 8005e3c:	f101 0410 	add.w	r4, r1, #16
 8005e40:	d92a      	bls.n	8005e98 <memmove+0xe4>
 8005e42:	b175      	cbz	r5, 8005e62 <memmove+0xae>
 8005e44:	6825      	ldr	r5, [r4, #0]
 8005e46:	f1ac 0c10 	sub.w	ip, ip, #16
 8005e4a:	601d      	str	r5, [r3, #0]
 8005e4c:	6865      	ldr	r5, [r4, #4]
 8005e4e:	605d      	str	r5, [r3, #4]
 8005e50:	68a5      	ldr	r5, [r4, #8]
 8005e52:	609d      	str	r5, [r3, #8]
 8005e54:	68e5      	ldr	r5, [r4, #12]
 8005e56:	3410      	adds	r4, #16
 8005e58:	60dd      	str	r5, [r3, #12]
 8005e5a:	3310      	adds	r3, #16
 8005e5c:	f1bc 0f0f 	cmp.w	ip, #15
 8005e60:	d91a      	bls.n	8005e98 <memmove+0xe4>
 8005e62:	6827      	ldr	r7, [r4, #0]
 8005e64:	f104 0610 	add.w	r6, r4, #16
 8005e68:	601f      	str	r7, [r3, #0]
 8005e6a:	6867      	ldr	r7, [r4, #4]
 8005e6c:	f103 0510 	add.w	r5, r3, #16
 8005e70:	605f      	str	r7, [r3, #4]
 8005e72:	68a7      	ldr	r7, [r4, #8]
 8005e74:	f1ac 0c20 	sub.w	ip, ip, #32
 8005e78:	609f      	str	r7, [r3, #8]
 8005e7a:	68e7      	ldr	r7, [r4, #12]
 8005e7c:	60df      	str	r7, [r3, #12]
 8005e7e:	6927      	ldr	r7, [r4, #16]
 8005e80:	3420      	adds	r4, #32
 8005e82:	611f      	str	r7, [r3, #16]
 8005e84:	6877      	ldr	r7, [r6, #4]
 8005e86:	3320      	adds	r3, #32
 8005e88:	606f      	str	r7, [r5, #4]
 8005e8a:	68b7      	ldr	r7, [r6, #8]
 8005e8c:	f1bc 0f0f 	cmp.w	ip, #15
 8005e90:	60af      	str	r7, [r5, #8]
 8005e92:	68f6      	ldr	r6, [r6, #12]
 8005e94:	60ee      	str	r6, [r5, #12]
 8005e96:	d8e4      	bhi.n	8005e62 <memmove+0xae>
 8005e98:	f1a2 0810 	sub.w	r8, r2, #16
 8005e9c:	f028 030f 	bic.w	r3, r8, #15
 8005ea0:	f002 040f 	and.w	r4, r2, #15
 8005ea4:	f103 0c10 	add.w	ip, r3, #16
 8005ea8:	2c03      	cmp	r4, #3
 8005eaa:	eb00 030c 	add.w	r3, r0, ip
 8005eae:	eb01 080c 	add.w	r8, r1, ip
 8005eb2:	d953      	bls.n	8005f5c <memmove+0x1a8>
 8005eb4:	1f21      	subs	r1, r4, #4
 8005eb6:	ea4f 0991 	mov.w	r9, r1, lsr #2
 8005eba:	4644      	mov	r4, r8
 8005ebc:	eb08 0c89 	add.w	ip, r8, r9, lsl #2
 8005ec0:	f854 6b04 	ldr.w	r6, [r4], #4
 8005ec4:	ebc8 010c 	rsb	r1, r8, ip
 8005ec8:	f10c 0c04 	add.w	ip, ip, #4
 8005ecc:	461d      	mov	r5, r3
 8005ece:	4564      	cmp	r4, ip
 8005ed0:	f845 6b04 	str.w	r6, [r5], #4
 8005ed4:	f3c1 0180 	ubfx	r1, r1, #2, #1
 8005ed8:	d012      	beq.n	8005f00 <memmove+0x14c>
 8005eda:	b129      	cbz	r1, 8005ee8 <memmove+0x134>
 8005edc:	f854 1b04 	ldr.w	r1, [r4], #4
 8005ee0:	4564      	cmp	r4, ip
 8005ee2:	f845 1b04 	str.w	r1, [r5], #4
 8005ee6:	d00b      	beq.n	8005f00 <memmove+0x14c>
 8005ee8:	4627      	mov	r7, r4
 8005eea:	f857 1b04 	ldr.w	r1, [r7], #4
 8005eee:	462e      	mov	r6, r5
 8005ef0:	f846 1b04 	str.w	r1, [r6], #4
 8005ef4:	6864      	ldr	r4, [r4, #4]
 8005ef6:	606c      	str	r4, [r5, #4]
 8005ef8:	1d3c      	adds	r4, r7, #4
 8005efa:	1d35      	adds	r5, r6, #4
 8005efc:	4564      	cmp	r4, ip
 8005efe:	d1f3      	bne.n	8005ee8 <memmove+0x134>
 8005f00:	f109 0c01 	add.w	ip, r9, #1
 8005f04:	ea4f 098c 	mov.w	r9, ip, lsl #2
 8005f08:	f002 0203 	and.w	r2, r2, #3
 8005f0c:	eb08 0109 	add.w	r1, r8, r9
 8005f10:	444b      	add	r3, r9
 8005f12:	2a00      	cmp	r2, #0
 8005f14:	f43f af76 	beq.w	8005e04 <memmove+0x50>
 8005f18:	780d      	ldrb	r5, [r1, #0]
 8005f1a:	189a      	adds	r2, r3, r2
 8005f1c:	43dc      	mvns	r4, r3
 8005f1e:	f803 5b01 	strb.w	r5, [r3], #1
 8005f22:	1914      	adds	r4, r2, r4
 8005f24:	4293      	cmp	r3, r2
 8005f26:	f004 0401 	and.w	r4, r4, #1
 8005f2a:	f43f af6b 	beq.w	8005e04 <memmove+0x50>
 8005f2e:	b134      	cbz	r4, 8005f3e <memmove+0x18a>
 8005f30:	f811 4f01 	ldrb.w	r4, [r1, #1]!
 8005f34:	f803 4b01 	strb.w	r4, [r3], #1
 8005f38:	4293      	cmp	r3, r2
 8005f3a:	f43f af63 	beq.w	8005e04 <memmove+0x50>
 8005f3e:	784d      	ldrb	r5, [r1, #1]
 8005f40:	461c      	mov	r4, r3
 8005f42:	f804 5b01 	strb.w	r5, [r4], #1
 8005f46:	788d      	ldrb	r5, [r1, #2]
 8005f48:	3102      	adds	r1, #2
 8005f4a:	705d      	strb	r5, [r3, #1]
 8005f4c:	1c63      	adds	r3, r4, #1
 8005f4e:	4293      	cmp	r3, r2
 8005f50:	d1f5      	bne.n	8005f3e <memmove+0x18a>
 8005f52:	e757      	b.n	8005e04 <memmove+0x50>
 8005f54:	4603      	mov	r3, r0
 8005f56:	e7dc      	b.n	8005f12 <memmove+0x15e>
 8005f58:	4603      	mov	r3, r0
 8005f5a:	e7dd      	b.n	8005f18 <memmove+0x164>
 8005f5c:	4641      	mov	r1, r8
 8005f5e:	4622      	mov	r2, r4
 8005f60:	e7d7      	b.n	8005f12 <memmove+0x15e>
 8005f62:	bf00      	nop

08005f64 <memset>:
memset():
 8005f64:	b4f0      	push	{r4, r5, r6, r7}
 8005f66:	0784      	lsls	r4, r0, #30
 8005f68:	4603      	mov	r3, r0
 8005f6a:	f000 808d 	beq.w	8006088 <memset+0x124>
 8005f6e:	1e54      	subs	r4, r2, #1
 8005f70:	2a00      	cmp	r2, #0
 8005f72:	f000 8087 	beq.w	8006084 <memset+0x120>
 8005f76:	07e5      	lsls	r5, r4, #31
 8005f78:	b2ce      	uxtb	r6, r1
 8005f7a:	d411      	bmi.n	8005fa0 <memset+0x3c>
 8005f7c:	461a      	mov	r2, r3
 8005f7e:	f802 6b01 	strb.w	r6, [r2], #1
 8005f82:	4613      	mov	r3, r2
 8005f84:	4615      	mov	r5, r2
 8005f86:	0792      	lsls	r2, r2, #30
 8005f88:	d010      	beq.n	8005fac <memset+0x48>
 8005f8a:	1e62      	subs	r2, r4, #1
 8005f8c:	2c00      	cmp	r4, #0
 8005f8e:	d079      	beq.n	8006084 <memset+0x120>
 8005f90:	f803 6b01 	strb.w	r6, [r3], #1
 8005f94:	4614      	mov	r4, r2
 8005f96:	079a      	lsls	r2, r3, #30
 8005f98:	461d      	mov	r5, r3
 8005f9a:	d007      	beq.n	8005fac <memset+0x48>
 8005f9c:	3c01      	subs	r4, #1
 8005f9e:	e7ed      	b.n	8005f7c <memset+0x18>
 8005fa0:	4603      	mov	r3, r0
 8005fa2:	f803 6b01 	strb.w	r6, [r3], #1
 8005fa6:	079a      	lsls	r2, r3, #30
 8005fa8:	461d      	mov	r5, r3
 8005faa:	d1f7      	bne.n	8005f9c <memset+0x38>
 8005fac:	2c03      	cmp	r4, #3
 8005fae:	d952      	bls.n	8006056 <memset+0xf2>
 8005fb0:	b2ce      	uxtb	r6, r1
 8005fb2:	ea46 2706 	orr.w	r7, r6, r6, lsl #8
 8005fb6:	2c0f      	cmp	r4, #15
 8005fb8:	ea47 4307 	orr.w	r3, r7, r7, lsl #16
 8005fbc:	d92d      	bls.n	800601a <memset+0xb6>
 8005fbe:	f1a4 0210 	sub.w	r2, r4, #16
 8005fc2:	4617      	mov	r7, r2
 8005fc4:	2f0f      	cmp	r7, #15
 8005fc6:	f3c2 1600 	ubfx	r6, r2, #4, #1
 8005fca:	602b      	str	r3, [r5, #0]
 8005fcc:	606b      	str	r3, [r5, #4]
 8005fce:	60ab      	str	r3, [r5, #8]
 8005fd0:	60eb      	str	r3, [r5, #12]
 8005fd2:	f105 0210 	add.w	r2, r5, #16
 8005fd6:	d916      	bls.n	8006006 <memset+0xa2>
 8005fd8:	b13e      	cbz	r6, 8005fea <memset+0x86>
 8005fda:	3f10      	subs	r7, #16
 8005fdc:	6013      	str	r3, [r2, #0]
 8005fde:	6053      	str	r3, [r2, #4]
 8005fe0:	6093      	str	r3, [r2, #8]
 8005fe2:	60d3      	str	r3, [r2, #12]
 8005fe4:	3210      	adds	r2, #16
 8005fe6:	2f0f      	cmp	r7, #15
 8005fe8:	d90d      	bls.n	8006006 <memset+0xa2>
 8005fea:	3f20      	subs	r7, #32
 8005fec:	f102 0610 	add.w	r6, r2, #16
 8005ff0:	6013      	str	r3, [r2, #0]
 8005ff2:	6053      	str	r3, [r2, #4]
 8005ff4:	6093      	str	r3, [r2, #8]
 8005ff6:	60d3      	str	r3, [r2, #12]
 8005ff8:	6113      	str	r3, [r2, #16]
 8005ffa:	6153      	str	r3, [r2, #20]
 8005ffc:	6193      	str	r3, [r2, #24]
 8005ffe:	61d3      	str	r3, [r2, #28]
 8006000:	3220      	adds	r2, #32
 8006002:	2f0f      	cmp	r7, #15
 8006004:	d8f1      	bhi.n	8005fea <memset+0x86>
 8006006:	f1a4 0210 	sub.w	r2, r4, #16
 800600a:	f022 020f 	bic.w	r2, r2, #15
 800600e:	f004 040f 	and.w	r4, r4, #15
 8006012:	3210      	adds	r2, #16
 8006014:	2c03      	cmp	r4, #3
 8006016:	4415      	add	r5, r2
 8006018:	d91d      	bls.n	8006056 <memset+0xf2>
 800601a:	1f27      	subs	r7, r4, #4
 800601c:	463e      	mov	r6, r7
 800601e:	462a      	mov	r2, r5
 8006020:	2e03      	cmp	r6, #3
 8006022:	f842 3b04 	str.w	r3, [r2], #4
 8006026:	f3c7 0780 	ubfx	r7, r7, #2, #1
 800602a:	d90d      	bls.n	8006048 <memset+0xe4>
 800602c:	b127      	cbz	r7, 8006038 <memset+0xd4>
 800602e:	3e04      	subs	r6, #4
 8006030:	2e03      	cmp	r6, #3
 8006032:	f842 3b04 	str.w	r3, [r2], #4
 8006036:	d907      	bls.n	8006048 <memset+0xe4>
 8006038:	4617      	mov	r7, r2
 800603a:	f847 3b04 	str.w	r3, [r7], #4
 800603e:	3e08      	subs	r6, #8
 8006040:	6053      	str	r3, [r2, #4]
 8006042:	1d3a      	adds	r2, r7, #4
 8006044:	2e03      	cmp	r6, #3
 8006046:	d8f7      	bhi.n	8006038 <memset+0xd4>
 8006048:	1f23      	subs	r3, r4, #4
 800604a:	f023 0203 	bic.w	r2, r3, #3
 800604e:	1d13      	adds	r3, r2, #4
 8006050:	f004 0403 	and.w	r4, r4, #3
 8006054:	18ed      	adds	r5, r5, r3
 8006056:	b1ac      	cbz	r4, 8006084 <memset+0x120>
 8006058:	b2c9      	uxtb	r1, r1
 800605a:	43ea      	mvns	r2, r5
 800605c:	192c      	adds	r4, r5, r4
 800605e:	f805 1b01 	strb.w	r1, [r5], #1
 8006062:	18a3      	adds	r3, r4, r2
 8006064:	42a5      	cmp	r5, r4
 8006066:	f003 0201 	and.w	r2, r3, #1
 800606a:	d00b      	beq.n	8006084 <memset+0x120>
 800606c:	b11a      	cbz	r2, 8006076 <memset+0x112>
 800606e:	f805 1b01 	strb.w	r1, [r5], #1
 8006072:	42a5      	cmp	r5, r4
 8006074:	d006      	beq.n	8006084 <memset+0x120>
 8006076:	462b      	mov	r3, r5
 8006078:	f803 1b01 	strb.w	r1, [r3], #1
 800607c:	7069      	strb	r1, [r5, #1]
 800607e:	1c5d      	adds	r5, r3, #1
 8006080:	42a5      	cmp	r5, r4
 8006082:	d1f8      	bne.n	8006076 <memset+0x112>
 8006084:	bcf0      	pop	{r4, r5, r6, r7}
 8006086:	4770      	bx	lr
 8006088:	4605      	mov	r5, r0
 800608a:	4614      	mov	r4, r2
 800608c:	e78e      	b.n	8005fac <memset+0x48>
 800608e:	bf00      	nop

08006090 <__malloc_lock>:
__malloc_lock():
 8006090:	4770      	bx	lr
 8006092:	bf00      	nop

08006094 <__malloc_unlock>:
__malloc_unlock():
 8006094:	4770      	bx	lr
 8006096:	bf00      	nop

08006098 <_Balloc>:
_Balloc():
 8006098:	6cc3      	ldr	r3, [r0, #76]	; 0x4c
 800609a:	b570      	push	{r4, r5, r6, lr}
 800609c:	4605      	mov	r5, r0
 800609e:	460c      	mov	r4, r1
 80060a0:	b14b      	cbz	r3, 80060b6 <_Balloc+0x1e>
 80060a2:	f853 0024 	ldr.w	r0, [r3, r4, lsl #2]
 80060a6:	b180      	cbz	r0, 80060ca <_Balloc+0x32>
 80060a8:	6801      	ldr	r1, [r0, #0]
 80060aa:	f843 1024 	str.w	r1, [r3, r4, lsl #2]
 80060ae:	2300      	movs	r3, #0
 80060b0:	6103      	str	r3, [r0, #16]
 80060b2:	60c3      	str	r3, [r0, #12]
 80060b4:	bd70      	pop	{r4, r5, r6, pc}
 80060b6:	2104      	movs	r1, #4
 80060b8:	2221      	movs	r2, #33	; 0x21
 80060ba:	f000 ffed 	bl	8007098 <_calloc_r>
 80060be:	4603      	mov	r3, r0
 80060c0:	64e8      	str	r0, [r5, #76]	; 0x4c
 80060c2:	2800      	cmp	r0, #0
 80060c4:	d1ed      	bne.n	80060a2 <_Balloc+0xa>
 80060c6:	2000      	movs	r0, #0
 80060c8:	bd70      	pop	{r4, r5, r6, pc}
 80060ca:	2101      	movs	r1, #1
 80060cc:	fa01 f604 	lsl.w	r6, r1, r4
 80060d0:	1d72      	adds	r2, r6, #5
 80060d2:	4628      	mov	r0, r5
 80060d4:	0092      	lsls	r2, r2, #2
 80060d6:	f000 ffdf 	bl	8007098 <_calloc_r>
 80060da:	2800      	cmp	r0, #0
 80060dc:	d0f3      	beq.n	80060c6 <_Balloc+0x2e>
 80060de:	6044      	str	r4, [r0, #4]
 80060e0:	6086      	str	r6, [r0, #8]
 80060e2:	e7e4      	b.n	80060ae <_Balloc+0x16>

080060e4 <_Bfree>:
_Bfree():
 80060e4:	b131      	cbz	r1, 80060f4 <_Bfree+0x10>
 80060e6:	6cc3      	ldr	r3, [r0, #76]	; 0x4c
 80060e8:	684a      	ldr	r2, [r1, #4]
 80060ea:	f853 0022 	ldr.w	r0, [r3, r2, lsl #2]
 80060ee:	6008      	str	r0, [r1, #0]
 80060f0:	f843 1022 	str.w	r1, [r3, r2, lsl #2]
 80060f4:	4770      	bx	lr
 80060f6:	bf00      	nop

080060f8 <__multadd>:
__multadd():
 80060f8:	e92d 43f8 	stmdb	sp!, {r3, r4, r5, r6, r7, r8, r9, lr}
 80060fc:	460f      	mov	r7, r1
 80060fe:	6949      	ldr	r1, [r1, #20]
 8006100:	f8d7 8010 	ldr.w	r8, [r7, #16]
 8006104:	b28c      	uxth	r4, r1
 8006106:	0c0e      	lsrs	r6, r1, #16
 8006108:	fb02 3304 	mla	r3, r2, r4, r3
 800610c:	fb02 f106 	mul.w	r1, r2, r6
 8006110:	b29c      	uxth	r4, r3
 8006112:	eb01 4613 	add.w	r6, r1, r3, lsr #16
 8006116:	eb04 4406 	add.w	r4, r4, r6, lsl #16
 800611a:	f107 0318 	add.w	r3, r7, #24
 800611e:	f843 4c04 	str.w	r4, [r3, #-4]
 8006122:	2401      	movs	r4, #1
 8006124:	f108 31ff 	add.w	r1, r8, #4294967295	; 0xffffffff
 8006128:	0c36      	lsrs	r6, r6, #16
 800612a:	45a0      	cmp	r8, r4
 800612c:	4681      	mov	r9, r0
 800612e:	f001 0001 	and.w	r0, r1, #1
 8006132:	dd38      	ble.n	80061a6 <__multadd+0xae>
 8006134:	b198      	cbz	r0, 800615e <__multadd+0x66>
 8006136:	681b      	ldr	r3, [r3, #0]
 8006138:	2402      	movs	r4, #2
 800613a:	b299      	uxth	r1, r3
 800613c:	0c18      	lsrs	r0, r3, #16
 800613e:	fb02 6601 	mla	r6, r2, r1, r6
 8006142:	fb02 f000 	mul.w	r0, r2, r0
 8006146:	b2b1      	uxth	r1, r6
 8006148:	eb00 4016 	add.w	r0, r0, r6, lsr #16
 800614c:	eb01 4600 	add.w	r6, r1, r0, lsl #16
 8006150:	f107 031c 	add.w	r3, r7, #28
 8006154:	f843 6c04 	str.w	r6, [r3, #-4]
 8006158:	0c06      	lsrs	r6, r0, #16
 800615a:	45a0      	cmp	r8, r4
 800615c:	dd23      	ble.n	80061a6 <__multadd+0xae>
 800615e:	6818      	ldr	r0, [r3, #0]
 8006160:	461d      	mov	r5, r3
 8006162:	b281      	uxth	r1, r0
 8006164:	0c00      	lsrs	r0, r0, #16
 8006166:	fb02 6601 	mla	r6, r2, r1, r6
 800616a:	fb02 f100 	mul.w	r1, r2, r0
 800616e:	b2b0      	uxth	r0, r6
 8006170:	eb01 4116 	add.w	r1, r1, r6, lsr #16
 8006174:	eb00 4601 	add.w	r6, r0, r1, lsl #16
 8006178:	f845 6b04 	str.w	r6, [r5], #4
 800617c:	6858      	ldr	r0, [r3, #4]
 800617e:	3402      	adds	r4, #2
 8006180:	b283      	uxth	r3, r0
 8006182:	0c06      	lsrs	r6, r0, #16
 8006184:	fb02 f303 	mul.w	r3, r2, r3
 8006188:	fb02 f606 	mul.w	r6, r2, r6
 800618c:	eb03 4111 	add.w	r1, r3, r1, lsr #16
 8006190:	eb06 4011 	add.w	r0, r6, r1, lsr #16
 8006194:	b28e      	uxth	r6, r1
 8006196:	eb06 4100 	add.w	r1, r6, r0, lsl #16
 800619a:	462b      	mov	r3, r5
 800619c:	0c06      	lsrs	r6, r0, #16
 800619e:	45a0      	cmp	r8, r4
 80061a0:	f843 1b04 	str.w	r1, [r3], #4
 80061a4:	dcdb      	bgt.n	800615e <__multadd+0x66>
 80061a6:	b146      	cbz	r6, 80061ba <__multadd+0xc2>
 80061a8:	68ba      	ldr	r2, [r7, #8]
 80061aa:	4590      	cmp	r8, r2
 80061ac:	da08      	bge.n	80061c0 <__multadd+0xc8>
 80061ae:	eb07 0288 	add.w	r2, r7, r8, lsl #2
 80061b2:	f108 0001 	add.w	r0, r8, #1
 80061b6:	6156      	str	r6, [r2, #20]
 80061b8:	6138      	str	r0, [r7, #16]
 80061ba:	4638      	mov	r0, r7
 80061bc:	e8bd 83f8 	ldmia.w	sp!, {r3, r4, r5, r6, r7, r8, r9, pc}
 80061c0:	687c      	ldr	r4, [r7, #4]
 80061c2:	4648      	mov	r0, r9
 80061c4:	1c61      	adds	r1, r4, #1
 80061c6:	f7ff ff67 	bl	8006098 <_Balloc>
 80061ca:	693b      	ldr	r3, [r7, #16]
 80061cc:	f107 010c 	add.w	r1, r7, #12
 80061d0:	1c9a      	adds	r2, r3, #2
 80061d2:	4604      	mov	r4, r0
 80061d4:	0092      	lsls	r2, r2, #2
 80061d6:	f100 000c 	add.w	r0, r0, #12
 80061da:	f7ff fd3d 	bl	8005c58 <memcpy>
 80061de:	6878      	ldr	r0, [r7, #4]
 80061e0:	f8d9 304c 	ldr.w	r3, [r9, #76]	; 0x4c
 80061e4:	f853 1020 	ldr.w	r1, [r3, r0, lsl #2]
 80061e8:	6039      	str	r1, [r7, #0]
 80061ea:	f843 7020 	str.w	r7, [r3, r0, lsl #2]
 80061ee:	4627      	mov	r7, r4
 80061f0:	e7dd      	b.n	80061ae <__multadd+0xb6>
 80061f2:	bf00      	nop

080061f4 <__hi0bits>:
__hi0bits():
 80061f4:	0c02      	lsrs	r2, r0, #16
 80061f6:	4603      	mov	r3, r0
 80061f8:	d116      	bne.n	8006228 <__hi0bits+0x34>
 80061fa:	0403      	lsls	r3, r0, #16
 80061fc:	2010      	movs	r0, #16
 80061fe:	f013 4f7f 	tst.w	r3, #4278190080	; 0xff000000
 8006202:	d101      	bne.n	8006208 <__hi0bits+0x14>
 8006204:	3008      	adds	r0, #8
 8006206:	021b      	lsls	r3, r3, #8
 8006208:	f013 4f70 	tst.w	r3, #4026531840	; 0xf0000000
 800620c:	d101      	bne.n	8006212 <__hi0bits+0x1e>
 800620e:	3004      	adds	r0, #4
 8006210:	011b      	lsls	r3, r3, #4
 8006212:	f013 4f40 	tst.w	r3, #3221225472	; 0xc0000000
 8006216:	d101      	bne.n	800621c <__hi0bits+0x28>
 8006218:	3002      	adds	r0, #2
 800621a:	009b      	lsls	r3, r3, #2
 800621c:	2b00      	cmp	r3, #0
 800621e:	db02      	blt.n	8006226 <__hi0bits+0x32>
 8006220:	005b      	lsls	r3, r3, #1
 8006222:	d403      	bmi.n	800622c <__hi0bits+0x38>
 8006224:	2020      	movs	r0, #32
 8006226:	4770      	bx	lr
 8006228:	2000      	movs	r0, #0
 800622a:	e7e8      	b.n	80061fe <__hi0bits+0xa>
 800622c:	3001      	adds	r0, #1
 800622e:	4770      	bx	lr

08006230 <__lo0bits>:
__lo0bits():
 8006230:	6803      	ldr	r3, [r0, #0]
 8006232:	4602      	mov	r2, r0
 8006234:	f013 0007 	ands.w	r0, r3, #7
 8006238:	d007      	beq.n	800624a <__lo0bits+0x1a>
 800623a:	07d9      	lsls	r1, r3, #31
 800623c:	d41f      	bmi.n	800627e <__lo0bits+0x4e>
 800623e:	0798      	lsls	r0, r3, #30
 8006240:	d41f      	bmi.n	8006282 <__lo0bits+0x52>
 8006242:	0898      	lsrs	r0, r3, #2
 8006244:	6010      	str	r0, [r2, #0]
 8006246:	2002      	movs	r0, #2
 8006248:	4770      	bx	lr
 800624a:	b299      	uxth	r1, r3
 800624c:	b909      	cbnz	r1, 8006252 <__lo0bits+0x22>
 800624e:	0c1b      	lsrs	r3, r3, #16
 8006250:	2010      	movs	r0, #16
 8006252:	f013 0fff 	tst.w	r3, #255	; 0xff
 8006256:	d101      	bne.n	800625c <__lo0bits+0x2c>
 8006258:	3008      	adds	r0, #8
 800625a:	0a1b      	lsrs	r3, r3, #8
 800625c:	0719      	lsls	r1, r3, #28
 800625e:	d101      	bne.n	8006264 <__lo0bits+0x34>
 8006260:	3004      	adds	r0, #4
 8006262:	091b      	lsrs	r3, r3, #4
 8006264:	0799      	lsls	r1, r3, #30
 8006266:	d101      	bne.n	800626c <__lo0bits+0x3c>
 8006268:	3002      	adds	r0, #2
 800626a:	089b      	lsrs	r3, r3, #2
 800626c:	07d9      	lsls	r1, r3, #31
 800626e:	d404      	bmi.n	800627a <__lo0bits+0x4a>
 8006270:	085b      	lsrs	r3, r3, #1
 8006272:	d101      	bne.n	8006278 <__lo0bits+0x48>
 8006274:	2020      	movs	r0, #32
 8006276:	4770      	bx	lr
 8006278:	3001      	adds	r0, #1
 800627a:	6013      	str	r3, [r2, #0]
 800627c:	4770      	bx	lr
 800627e:	2000      	movs	r0, #0
 8006280:	4770      	bx	lr
 8006282:	0859      	lsrs	r1, r3, #1
 8006284:	6011      	str	r1, [r2, #0]
 8006286:	2001      	movs	r0, #1
 8006288:	4770      	bx	lr
 800628a:	bf00      	nop

0800628c <__i2b>:
__i2b():
 800628c:	b510      	push	{r4, lr}
 800628e:	460c      	mov	r4, r1
 8006290:	2101      	movs	r1, #1
 8006292:	f7ff ff01 	bl	8006098 <_Balloc>
 8006296:	2201      	movs	r2, #1
 8006298:	6144      	str	r4, [r0, #20]
 800629a:	6102      	str	r2, [r0, #16]
 800629c:	bd10      	pop	{r4, pc}
 800629e:	bf00      	nop

080062a0 <__multiply>:
__multiply():
 80062a0:	e92d 4ff0 	stmdb	sp!, {r4, r5, r6, r7, r8, r9, sl, fp, lr}
 80062a4:	690c      	ldr	r4, [r1, #16]
 80062a6:	6917      	ldr	r7, [r2, #16]
 80062a8:	b085      	sub	sp, #20
 80062aa:	42bc      	cmp	r4, r7
 80062ac:	460e      	mov	r6, r1
 80062ae:	4690      	mov	r8, r2
 80062b0:	da04      	bge.n	80062bc <__multiply+0x1c>
 80062b2:	4622      	mov	r2, r4
 80062b4:	4646      	mov	r6, r8
 80062b6:	463c      	mov	r4, r7
 80062b8:	4688      	mov	r8, r1
 80062ba:	4617      	mov	r7, r2
 80062bc:	68b3      	ldr	r3, [r6, #8]
 80062be:	19e2      	adds	r2, r4, r7
 80062c0:	6871      	ldr	r1, [r6, #4]
 80062c2:	429a      	cmp	r2, r3
 80062c4:	bfc8      	it	gt
 80062c6:	3101      	addgt	r1, #1
 80062c8:	9201      	str	r2, [sp, #4]
 80062ca:	f7ff fee5 	bl	8006098 <_Balloc>
 80062ce:	9901      	ldr	r1, [sp, #4]
 80062d0:	9003      	str	r0, [sp, #12]
 80062d2:	eb00 0381 	add.w	r3, r0, r1, lsl #2
 80062d6:	3314      	adds	r3, #20
 80062d8:	3014      	adds	r0, #20
 80062da:	4298      	cmp	r0, r3
 80062dc:	9302      	str	r3, [sp, #8]
 80062de:	d21a      	bcs.n	8006316 <__multiply+0x76>
 80062e0:	9902      	ldr	r1, [sp, #8]
 80062e2:	43c2      	mvns	r2, r0
 80062e4:	9b03      	ldr	r3, [sp, #12]
 80062e6:	188a      	adds	r2, r1, r2
 80062e8:	9902      	ldr	r1, [sp, #8]
 80062ea:	3318      	adds	r3, #24
 80062ec:	2500      	movs	r5, #0
 80062ee:	4299      	cmp	r1, r3
 80062f0:	6005      	str	r5, [r0, #0]
 80062f2:	f3c2 0080 	ubfx	r0, r2, #2, #1
 80062f6:	d90e      	bls.n	8006316 <__multiply+0x76>
 80062f8:	b128      	cbz	r0, 8006306 <__multiply+0x66>
 80062fa:	601d      	str	r5, [r3, #0]
 80062fc:	9b03      	ldr	r3, [sp, #12]
 80062fe:	9a02      	ldr	r2, [sp, #8]
 8006300:	331c      	adds	r3, #28
 8006302:	429a      	cmp	r2, r3
 8006304:	d907      	bls.n	8006316 <__multiply+0x76>
 8006306:	9802      	ldr	r0, [sp, #8]
 8006308:	4619      	mov	r1, r3
 800630a:	f841 5b04 	str.w	r5, [r1], #4
 800630e:	605d      	str	r5, [r3, #4]
 8006310:	1d0b      	adds	r3, r1, #4
 8006312:	4298      	cmp	r0, r3
 8006314:	d8f8      	bhi.n	8006308 <__multiply+0x68>
 8006316:	eb08 0387 	add.w	r3, r8, r7, lsl #2
 800631a:	3314      	adds	r3, #20
 800631c:	eb06 0484 	add.w	r4, r6, r4, lsl #2
 8006320:	f108 0714 	add.w	r7, r8, #20
 8006324:	3414      	adds	r4, #20
 8006326:	429f      	cmp	r7, r3
 8006328:	9300      	str	r3, [sp, #0]
 800632a:	f106 0c14 	add.w	ip, r6, #20
 800632e:	f080 80f9 	bcs.w	8006524 <__multiply+0x284>
 8006332:	9803      	ldr	r0, [sp, #12]
 8006334:	3018      	adds	r0, #24
 8006336:	f857 3b04 	ldr.w	r3, [r7], #4
 800633a:	b29a      	uxth	r2, r3
 800633c:	2a00      	cmp	r2, #0
 800633e:	d06e      	beq.n	800641e <__multiply+0x17e>
 8006340:	4661      	mov	r1, ip
 8006342:	f851 6b04 	ldr.w	r6, [r1], #4
 8006346:	f850 5c04 	ldr.w	r5, [r0, #-4]
 800634a:	fa1f f886 	uxth.w	r8, r6
 800634e:	b2ab      	uxth	r3, r5
 8006350:	0c36      	lsrs	r6, r6, #16
 8006352:	0c2d      	lsrs	r5, r5, #16
 8006354:	fb02 3308 	mla	r3, r2, r8, r3
 8006358:	fb02 5606 	mla	r6, r2, r6, r5
 800635c:	ea6f 050c 	mvn.w	r5, ip
 8006360:	eb06 4613 	add.w	r6, r6, r3, lsr #16
 8006364:	b29b      	uxth	r3, r3
 8006366:	ea43 4306 	orr.w	r3, r3, r6, lsl #16
 800636a:	1965      	adds	r5, r4, r5
 800636c:	0c36      	lsrs	r6, r6, #16
 800636e:	428c      	cmp	r4, r1
 8006370:	f840 3c04 	str.w	r3, [r0, #-4]
 8006374:	f3c5 0580 	ubfx	r5, r5, #2, #1
 8006378:	4603      	mov	r3, r0
 800637a:	d94d      	bls.n	8006418 <__multiply+0x178>
 800637c:	b1cd      	cbz	r5, 80063b2 <__multiply+0x112>
 800637e:	f8dc 5004 	ldr.w	r5, [ip, #4]
 8006382:	6803      	ldr	r3, [r0, #0]
 8006384:	fa1f f985 	uxth.w	r9, r5
 8006388:	fa1f f883 	uxth.w	r8, r3
 800638c:	0c2d      	lsrs	r5, r5, #16
 800638e:	0c1b      	lsrs	r3, r3, #16
 8006390:	fb02 8809 	mla	r8, r2, r9, r8
 8006394:	fb02 3505 	mla	r5, r2, r5, r3
 8006398:	4446      	add	r6, r8
 800639a:	eb05 4516 	add.w	r5, r5, r6, lsr #16
 800639e:	b2b6      	uxth	r6, r6
 80063a0:	ea46 4605 	orr.w	r6, r6, r5, lsl #16
 80063a4:	4603      	mov	r3, r0
 80063a6:	3104      	adds	r1, #4
 80063a8:	f843 6b04 	str.w	r6, [r3], #4
 80063ac:	0c2e      	lsrs	r6, r5, #16
 80063ae:	428c      	cmp	r4, r1
 80063b0:	d932      	bls.n	8006418 <__multiply+0x178>
 80063b2:	460d      	mov	r5, r1
 80063b4:	f8d3 e000 	ldr.w	lr, [r3]
 80063b8:	f855 9b04 	ldr.w	r9, [r5], #4
 80063bc:	fa1f fa8e 	uxth.w	sl, lr
 80063c0:	fa1f fb89 	uxth.w	fp, r9
 80063c4:	fb02 aa0b 	mla	sl, r2, fp, sl
 80063c8:	ea4f 4919 	mov.w	r9, r9, lsr #16
 80063cc:	ea4f 481e 	mov.w	r8, lr, lsr #16
 80063d0:	fb02 8e09 	mla	lr, r2, r9, r8
 80063d4:	4456      	add	r6, sl
 80063d6:	eb0e 4916 	add.w	r9, lr, r6, lsr #16
 80063da:	b2b6      	uxth	r6, r6
 80063dc:	4698      	mov	r8, r3
 80063de:	ea46 4609 	orr.w	r6, r6, r9, lsl #16
 80063e2:	f848 6b04 	str.w	r6, [r8], #4
 80063e6:	684e      	ldr	r6, [r1, #4]
 80063e8:	6859      	ldr	r1, [r3, #4]
 80063ea:	fa1f fa86 	uxth.w	sl, r6
 80063ee:	b28b      	uxth	r3, r1
 80063f0:	0c36      	lsrs	r6, r6, #16
 80063f2:	0c09      	lsrs	r1, r1, #16
 80063f4:	fb02 330a 	mla	r3, r2, sl, r3
 80063f8:	fb02 1606 	mla	r6, r2, r6, r1
 80063fc:	eb03 4319 	add.w	r3, r3, r9, lsr #16
 8006400:	eb06 4613 	add.w	r6, r6, r3, lsr #16
 8006404:	b299      	uxth	r1, r3
 8006406:	4643      	mov	r3, r8
 8006408:	ea41 4806 	orr.w	r8, r1, r6, lsl #16
 800640c:	1d29      	adds	r1, r5, #4
 800640e:	0c36      	lsrs	r6, r6, #16
 8006410:	428c      	cmp	r4, r1
 8006412:	f843 8b04 	str.w	r8, [r3], #4
 8006416:	d8cc      	bhi.n	80063b2 <__multiply+0x112>
 8006418:	601e      	str	r6, [r3, #0]
 800641a:	f857 3c04 	ldr.w	r3, [r7, #-4]
 800641e:	0c1a      	lsrs	r2, r3, #16
 8006420:	d07b      	beq.n	800651a <__multiply+0x27a>
 8006422:	f850 6c04 	ldr.w	r6, [r0, #-4]
 8006426:	f8bc 5000 	ldrh.w	r5, [ip]
 800642a:	0c31      	lsrs	r1, r6, #16
 800642c:	fb02 1505 	mla	r5, r2, r5, r1
 8006430:	b2b3      	uxth	r3, r6
 8006432:	ea43 4605 	orr.w	r6, r3, r5, lsl #16
 8006436:	f840 6c04 	str.w	r6, [r0, #-4]
 800643a:	46e2      	mov	sl, ip
 800643c:	4603      	mov	r3, r0
 800643e:	f85a 1b04 	ldr.w	r1, [sl], #4
 8006442:	f853 6b04 	ldr.w	r6, [r3], #4
 8006446:	0c09      	lsrs	r1, r1, #16
 8006448:	fa1f f986 	uxth.w	r9, r6
 800644c:	fb02 9101 	mla	r1, r2, r1, r9
 8006450:	ea6f 0e0c 	mvn.w	lr, ip
 8006454:	eb04 080e 	add.w	r8, r4, lr
 8006458:	eb01 4115 	add.w	r1, r1, r5, lsr #16
 800645c:	4554      	cmp	r4, sl
 800645e:	f3c8 0980 	ubfx	r9, r8, #2, #1
 8006462:	4605      	mov	r5, r0
 8006464:	ea4f 4811 	mov.w	r8, r1, lsr #16
 8006468:	d956      	bls.n	8006518 <__multiply+0x278>
 800646a:	f1b9 0f00 	cmp.w	r9, #0
 800646e:	d01b      	beq.n	80064a8 <__multiply+0x208>
 8006470:	f8bc 5004 	ldrh.w	r5, [ip, #4]
 8006474:	0c36      	lsrs	r6, r6, #16
 8006476:	fb02 6505 	mla	r5, r2, r5, r6
 800647a:	b289      	uxth	r1, r1
 800647c:	eb05 0e08 	add.w	lr, r5, r8
 8006480:	ea41 460e 	orr.w	r6, r1, lr, lsl #16
 8006484:	f843 6c04 	str.w	r6, [r3, #-4]
 8006488:	f85a 1b04 	ldr.w	r1, [sl], #4
 800648c:	461d      	mov	r5, r3
 800648e:	f853 6b04 	ldr.w	r6, [r3], #4
 8006492:	0c09      	lsrs	r1, r1, #16
 8006494:	fa1f f986 	uxth.w	r9, r6
 8006498:	fb02 9101 	mla	r1, r2, r1, r9
 800649c:	4554      	cmp	r4, sl
 800649e:	eb01 411e 	add.w	r1, r1, lr, lsr #16
 80064a2:	ea4f 4811 	mov.w	r8, r1, lsr #16
 80064a6:	d937      	bls.n	8006518 <__multiply+0x278>
 80064a8:	f8ba b000 	ldrh.w	fp, [sl]
 80064ac:	0c35      	lsrs	r5, r6, #16
 80064ae:	fb02 560b 	mla	r6, r2, fp, r5
 80064b2:	b289      	uxth	r1, r1
 80064b4:	eb06 0b08 	add.w	fp, r6, r8
 80064b8:	ea41 450b 	orr.w	r5, r1, fp, lsl #16
 80064bc:	f843 5c04 	str.w	r5, [r3, #-4]
 80064c0:	4656      	mov	r6, sl
 80064c2:	461d      	mov	r5, r3
 80064c4:	f856 9b04 	ldr.w	r9, [r6], #4
 80064c8:	f855 1b04 	ldr.w	r1, [r5], #4
 80064cc:	f8da 8004 	ldr.w	r8, [sl, #4]
 80064d0:	ea4f 4e19 	mov.w	lr, r9, lsr #16
 80064d4:	fa1f fa81 	uxth.w	sl, r1
 80064d8:	fb02 a90e 	mla	r9, r2, lr, sl
 80064dc:	0c09      	lsrs	r1, r1, #16
 80064de:	fa1f f888 	uxth.w	r8, r8
 80064e2:	fb02 1e08 	mla	lr, r2, r8, r1
 80064e6:	eb09 4a1b 	add.w	sl, r9, fp, lsr #16
 80064ea:	eb0e 481a 	add.w	r8, lr, sl, lsr #16
 80064ee:	fa1f f98a 	uxth.w	r9, sl
 80064f2:	ea49 4108 	orr.w	r1, r9, r8, lsl #16
 80064f6:	46b2      	mov	sl, r6
 80064f8:	f845 1c04 	str.w	r1, [r5, #-4]
 80064fc:	f85a 1b04 	ldr.w	r1, [sl], #4
 8006500:	685e      	ldr	r6, [r3, #4]
 8006502:	0c09      	lsrs	r1, r1, #16
 8006504:	b2b3      	uxth	r3, r6
 8006506:	fb02 3301 	mla	r3, r2, r1, r3
 800650a:	eb03 4118 	add.w	r1, r3, r8, lsr #16
 800650e:	1d2b      	adds	r3, r5, #4
 8006510:	4554      	cmp	r4, sl
 8006512:	ea4f 4811 	mov.w	r8, r1, lsr #16
 8006516:	d8c7      	bhi.n	80064a8 <__multiply+0x208>
 8006518:	6029      	str	r1, [r5, #0]
 800651a:	9a00      	ldr	r2, [sp, #0]
 800651c:	3004      	adds	r0, #4
 800651e:	42ba      	cmp	r2, r7
 8006520:	f63f af09 	bhi.w	8006336 <__multiply+0x96>
 8006524:	9901      	ldr	r1, [sp, #4]
 8006526:	2900      	cmp	r1, #0
 8006528:	dd1a      	ble.n	8006560 <__multiply+0x2c0>
 800652a:	9b02      	ldr	r3, [sp, #8]
 800652c:	f853 0c04 	ldr.w	r0, [r3, #-4]
 8006530:	3b04      	subs	r3, #4
 8006532:	b9a8      	cbnz	r0, 8006560 <__multiply+0x2c0>
 8006534:	9901      	ldr	r1, [sp, #4]
 8006536:	1e4a      	subs	r2, r1, #1
 8006538:	07d0      	lsls	r0, r2, #31
 800653a:	d517      	bpl.n	800656c <__multiply+0x2cc>
 800653c:	f853 0d04 	ldr.w	r0, [r3, #-4]!
 8006540:	9201      	str	r2, [sp, #4]
 8006542:	b968      	cbnz	r0, 8006560 <__multiply+0x2c0>
 8006544:	9a01      	ldr	r2, [sp, #4]
 8006546:	e008      	b.n	800655a <__multiply+0x2ba>
 8006548:	f853 1c04 	ldr.w	r1, [r3, #-4]
 800654c:	3b04      	subs	r3, #4
 800654e:	b931      	cbnz	r1, 800655e <__multiply+0x2be>
 8006550:	f853 0c04 	ldr.w	r0, [r3, #-4]
 8006554:	3a01      	subs	r2, #1
 8006556:	3b04      	subs	r3, #4
 8006558:	b908      	cbnz	r0, 800655e <__multiply+0x2be>
 800655a:	3a01      	subs	r2, #1
 800655c:	d1f4      	bne.n	8006548 <__multiply+0x2a8>
 800655e:	9201      	str	r2, [sp, #4]
 8006560:	9901      	ldr	r1, [sp, #4]
 8006562:	9803      	ldr	r0, [sp, #12]
 8006564:	6101      	str	r1, [r0, #16]
 8006566:	b005      	add	sp, #20
 8006568:	e8bd 8ff0 	ldmia.w	sp!, {r4, r5, r6, r7, r8, r9, sl, fp, pc}
 800656c:	460a      	mov	r2, r1
 800656e:	e7f4      	b.n	800655a <__multiply+0x2ba>

08006570 <__pow5mult>:
__pow5mult():
 8006570:	f012 0303 	ands.w	r3, r2, #3
 8006574:	e92d 41f0 	stmdb	sp!, {r4, r5, r6, r7, r8, lr}
 8006578:	4614      	mov	r4, r2
 800657a:	4680      	mov	r8, r0
 800657c:	460f      	mov	r7, r1
 800657e:	d12b      	bne.n	80065d8 <__pow5mult+0x68>
 8006580:	10a4      	asrs	r4, r4, #2
 8006582:	d01b      	beq.n	80065bc <__pow5mult+0x4c>
 8006584:	f8d8 6048 	ldr.w	r6, [r8, #72]	; 0x48
 8006588:	b92e      	cbnz	r6, 8006596 <__pow5mult+0x26>
 800658a:	e02e      	b.n	80065ea <__pow5mult+0x7a>
 800658c:	1064      	asrs	r4, r4, #1
 800658e:	d015      	beq.n	80065bc <__pow5mult+0x4c>
 8006590:	6835      	ldr	r5, [r6, #0]
 8006592:	b1b5      	cbz	r5, 80065c2 <__pow5mult+0x52>
 8006594:	462e      	mov	r6, r5
 8006596:	07e3      	lsls	r3, r4, #31
 8006598:	d5f8      	bpl.n	800658c <__pow5mult+0x1c>
 800659a:	4639      	mov	r1, r7
 800659c:	4632      	mov	r2, r6
 800659e:	4640      	mov	r0, r8
 80065a0:	f7ff fe7e 	bl	80062a0 <__multiply>
 80065a4:	b1b7      	cbz	r7, 80065d4 <__pow5mult+0x64>
 80065a6:	687a      	ldr	r2, [r7, #4]
 80065a8:	f8d8 304c 	ldr.w	r3, [r8, #76]	; 0x4c
 80065ac:	1064      	asrs	r4, r4, #1
 80065ae:	f853 1022 	ldr.w	r1, [r3, r2, lsl #2]
 80065b2:	6039      	str	r1, [r7, #0]
 80065b4:	f843 7022 	str.w	r7, [r3, r2, lsl #2]
 80065b8:	4607      	mov	r7, r0
 80065ba:	d1e9      	bne.n	8006590 <__pow5mult+0x20>
 80065bc:	4638      	mov	r0, r7
 80065be:	e8bd 81f0 	ldmia.w	sp!, {r4, r5, r6, r7, r8, pc}
 80065c2:	4631      	mov	r1, r6
 80065c4:	4632      	mov	r2, r6
 80065c6:	4640      	mov	r0, r8
 80065c8:	f7ff fe6a 	bl	80062a0 <__multiply>
 80065cc:	6030      	str	r0, [r6, #0]
 80065ce:	6005      	str	r5, [r0, #0]
 80065d0:	4606      	mov	r6, r0
 80065d2:	e7e0      	b.n	8006596 <__pow5mult+0x26>
 80065d4:	4607      	mov	r7, r0
 80065d6:	e7d9      	b.n	800658c <__pow5mult+0x1c>
 80065d8:	4a09      	ldr	r2, [pc, #36]	; (8006600 <__pow5mult+0x90>)
 80065da:	1e5f      	subs	r7, r3, #1
 80065dc:	f852 2027 	ldr.w	r2, [r2, r7, lsl #2]
 80065e0:	2300      	movs	r3, #0
 80065e2:	f7ff fd89 	bl	80060f8 <__multadd>
 80065e6:	4607      	mov	r7, r0
 80065e8:	e7ca      	b.n	8006580 <__pow5mult+0x10>
 80065ea:	4640      	mov	r0, r8
 80065ec:	f240 2171 	movw	r1, #625	; 0x271
 80065f0:	f7ff fe4c 	bl	800628c <__i2b>
 80065f4:	4606      	mov	r6, r0
 80065f6:	f8c8 0048 	str.w	r0, [r8, #72]	; 0x48
 80065fa:	2000      	movs	r0, #0
 80065fc:	6030      	str	r0, [r6, #0]
 80065fe:	e7ca      	b.n	8006596 <__pow5mult+0x26>
 8006600:	08007670 	.word	0x08007670

08006604 <__lshift>:
__lshift():
 8006604:	e92d 4ff8 	stmdb	sp!, {r3, r4, r5, r6, r7, r8, r9, sl, fp, lr}
 8006608:	690b      	ldr	r3, [r1, #16]
 800660a:	ea4f 1862 	mov.w	r8, r2, asr #5
 800660e:	4693      	mov	fp, r2
 8006610:	eb08 0a03 	add.w	sl, r8, r3
 8006614:	688a      	ldr	r2, [r1, #8]
 8006616:	f10a 0601 	add.w	r6, sl, #1
 800661a:	4296      	cmp	r6, r2
 800661c:	460f      	mov	r7, r1
 800661e:	4681      	mov	r9, r0
 8006620:	6849      	ldr	r1, [r1, #4]
 8006622:	dd03      	ble.n	800662c <__lshift+0x28>
 8006624:	0052      	lsls	r2, r2, #1
 8006626:	3101      	adds	r1, #1
 8006628:	4296      	cmp	r6, r2
 800662a:	dcfb      	bgt.n	8006624 <__lshift+0x20>
 800662c:	4648      	mov	r0, r9
 800662e:	f7ff fd33 	bl	8006098 <_Balloc>
 8006632:	f1b8 0f00 	cmp.w	r8, #0
 8006636:	f100 0414 	add.w	r4, r0, #20
 800663a:	dd1d      	ble.n	8006678 <__lshift+0x74>
 800663c:	2301      	movs	r3, #1
 800663e:	2200      	movs	r2, #0
 8006640:	f108 31ff 	add.w	r1, r8, #4294967295	; 0xffffffff
 8006644:	4543      	cmp	r3, r8
 8006646:	6022      	str	r2, [r4, #0]
 8006648:	ea01 0103 	and.w	r1, r1, r3
 800664c:	f100 0518 	add.w	r5, r0, #24
 8006650:	d00e      	beq.n	8006670 <__lshift+0x6c>
 8006652:	b129      	cbz	r1, 8006660 <__lshift+0x5c>
 8006654:	2302      	movs	r3, #2
 8006656:	4543      	cmp	r3, r8
 8006658:	602a      	str	r2, [r5, #0]
 800665a:	f100 051c 	add.w	r5, r0, #28
 800665e:	d007      	beq.n	8006670 <__lshift+0x6c>
 8006660:	462c      	mov	r4, r5
 8006662:	f844 2b04 	str.w	r2, [r4], #4
 8006666:	3302      	adds	r3, #2
 8006668:	606a      	str	r2, [r5, #4]
 800666a:	1d25      	adds	r5, r4, #4
 800666c:	4543      	cmp	r3, r8
 800666e:	d1f7      	bne.n	8006660 <__lshift+0x5c>
 8006670:	eb00 0283 	add.w	r2, r0, r3, lsl #2
 8006674:	f102 0414 	add.w	r4, r2, #20
 8006678:	6939      	ldr	r1, [r7, #16]
 800667a:	f107 0514 	add.w	r5, r7, #20
 800667e:	eb07 0281 	add.w	r2, r7, r1, lsl #2
 8006682:	3214      	adds	r2, #20
 8006684:	f01b 0b1f 	ands.w	fp, fp, #31
 8006688:	d051      	beq.n	800672e <__lshift+0x12a>
 800668a:	6829      	ldr	r1, [r5, #0]
 800668c:	4623      	mov	r3, r4
 800668e:	fa01 f10b 	lsl.w	r1, r1, fp
 8006692:	f107 0418 	add.w	r4, r7, #24
 8006696:	f843 1b04 	str.w	r1, [r3], #4
 800669a:	43ed      	mvns	r5, r5
 800669c:	f854 1c04 	ldr.w	r1, [r4, #-4]
 80066a0:	f1cb 0e20 	rsb	lr, fp, #32
 80066a4:	1955      	adds	r5, r2, r5
 80066a6:	42a2      	cmp	r2, r4
 80066a8:	f3c5 0580 	ubfx	r5, r5, #2, #1
 80066ac:	fa21 f80e 	lsr.w	r8, r1, lr
 80066b0:	d92a      	bls.n	8006708 <__lshift+0x104>
 80066b2:	b175      	cbz	r5, 80066d2 <__lshift+0xce>
 80066b4:	6821      	ldr	r1, [r4, #0]
 80066b6:	f107 041c 	add.w	r4, r7, #28
 80066ba:	fa01 f10b 	lsl.w	r1, r1, fp
 80066be:	ea48 0101 	orr.w	r1, r8, r1
 80066c2:	f843 1b04 	str.w	r1, [r3], #4
 80066c6:	f854 1c04 	ldr.w	r1, [r4, #-4]
 80066ca:	42a2      	cmp	r2, r4
 80066cc:	fa21 f80e 	lsr.w	r8, r1, lr
 80066d0:	d91a      	bls.n	8006708 <__lshift+0x104>
 80066d2:	6821      	ldr	r1, [r4, #0]
 80066d4:	461d      	mov	r5, r3
 80066d6:	fa01 f10b 	lsl.w	r1, r1, fp
 80066da:	ea48 0101 	orr.w	r1, r8, r1
 80066de:	f845 1b04 	str.w	r1, [r5], #4
 80066e2:	4621      	mov	r1, r4
 80066e4:	f851 8b04 	ldr.w	r8, [r1], #4
 80066e8:	6864      	ldr	r4, [r4, #4]
 80066ea:	fa28 fc0e 	lsr.w	ip, r8, lr
 80066ee:	fa04 f40b 	lsl.w	r4, r4, fp
 80066f2:	ea4c 0404 	orr.w	r4, ip, r4
 80066f6:	605c      	str	r4, [r3, #4]
 80066f8:	460c      	mov	r4, r1
 80066fa:	f854 1b04 	ldr.w	r1, [r4], #4
 80066fe:	1d2b      	adds	r3, r5, #4
 8006700:	42a2      	cmp	r2, r4
 8006702:	fa21 f80e 	lsr.w	r8, r1, lr
 8006706:	d8e4      	bhi.n	80066d2 <__lshift+0xce>
 8006708:	f8c3 8000 	str.w	r8, [r3]
 800670c:	f1b8 0f00 	cmp.w	r8, #0
 8006710:	d001      	beq.n	8006716 <__lshift+0x112>
 8006712:	f10a 0602 	add.w	r6, sl, #2
 8006716:	f8d9 304c 	ldr.w	r3, [r9, #76]	; 0x4c
 800671a:	687a      	ldr	r2, [r7, #4]
 800671c:	3e01      	subs	r6, #1
 800671e:	f853 1022 	ldr.w	r1, [r3, r2, lsl #2]
 8006722:	6106      	str	r6, [r0, #16]
 8006724:	6039      	str	r1, [r7, #0]
 8006726:	f843 7022 	str.w	r7, [r3, r2, lsl #2]
 800672a:	e8bd 8ff8 	ldmia.w	sp!, {r3, r4, r5, r6, r7, r8, r9, sl, fp, pc}
 800672e:	43eb      	mvns	r3, r5
 8006730:	f107 0118 	add.w	r1, r7, #24
 8006734:	682d      	ldr	r5, [r5, #0]
 8006736:	18d3      	adds	r3, r2, r3
 8006738:	428a      	cmp	r2, r1
 800673a:	f844 5b04 	str.w	r5, [r4], #4
 800673e:	f3c3 0380 	ubfx	r3, r3, #2, #1
 8006742:	d9e8      	bls.n	8006716 <__lshift+0x112>
 8006744:	b133      	cbz	r3, 8006754 <__lshift+0x150>
 8006746:	680b      	ldr	r3, [r1, #0]
 8006748:	f107 011c 	add.w	r1, r7, #28
 800674c:	428a      	cmp	r2, r1
 800674e:	f844 3b04 	str.w	r3, [r4], #4
 8006752:	d9e0      	bls.n	8006716 <__lshift+0x112>
 8006754:	468c      	mov	ip, r1
 8006756:	f85c 3b04 	ldr.w	r3, [ip], #4
 800675a:	4625      	mov	r5, r4
 800675c:	f845 3b04 	str.w	r3, [r5], #4
 8006760:	684b      	ldr	r3, [r1, #4]
 8006762:	f10c 0104 	add.w	r1, ip, #4
 8006766:	6063      	str	r3, [r4, #4]
 8006768:	1d2c      	adds	r4, r5, #4
 800676a:	428a      	cmp	r2, r1
 800676c:	d8f2      	bhi.n	8006754 <__lshift+0x150>
 800676e:	e7d2      	b.n	8006716 <__lshift+0x112>

08006770 <__mcmp>:
__mcmp():
 8006770:	b4f0      	push	{r4, r5, r6, r7}
 8006772:	690b      	ldr	r3, [r1, #16]
 8006774:	4605      	mov	r5, r0
 8006776:	6900      	ldr	r0, [r0, #16]
 8006778:	1ac0      	subs	r0, r0, r3
 800677a:	d124      	bne.n	80067c6 <__mcmp+0x56>
 800677c:	1d1a      	adds	r2, r3, #4
 800677e:	0094      	lsls	r4, r2, #2
 8006780:	192b      	adds	r3, r5, r4
 8006782:	1d1e      	adds	r6, r3, #4
 8006784:	1909      	adds	r1, r1, r4
 8006786:	3514      	adds	r5, #20
 8006788:	f856 4c04 	ldr.w	r4, [r6, #-4]
 800678c:	680a      	ldr	r2, [r1, #0]
 800678e:	43ef      	mvns	r7, r5
 8006790:	19be      	adds	r6, r7, r6
 8006792:	4294      	cmp	r4, r2
 8006794:	f3c6 0680 	ubfx	r6, r6, #2, #1
 8006798:	d110      	bne.n	80067bc <__mcmp+0x4c>
 800679a:	429d      	cmp	r5, r3
 800679c:	d213      	bcs.n	80067c6 <__mcmp+0x56>
 800679e:	b13e      	cbz	r6, 80067b0 <__mcmp+0x40>
 80067a0:	f853 4d04 	ldr.w	r4, [r3, #-4]!
 80067a4:	f851 2d04 	ldr.w	r2, [r1, #-4]!
 80067a8:	4294      	cmp	r4, r2
 80067aa:	d107      	bne.n	80067bc <__mcmp+0x4c>
 80067ac:	429d      	cmp	r5, r3
 80067ae:	d20a      	bcs.n	80067c6 <__mcmp+0x56>
 80067b0:	f853 4d04 	ldr.w	r4, [r3, #-4]!
 80067b4:	f851 2d04 	ldr.w	r2, [r1, #-4]!
 80067b8:	4294      	cmp	r4, r2
 80067ba:	d0f1      	beq.n	80067a0 <__mcmp+0x30>
 80067bc:	42a2      	cmp	r2, r4
 80067be:	bf94      	ite	ls
 80067c0:	2001      	movls	r0, #1
 80067c2:	f04f 30ff 	movhi.w	r0, #4294967295	; 0xffffffff
 80067c6:	bcf0      	pop	{r4, r5, r6, r7}
 80067c8:	4770      	bx	lr
 80067ca:	bf00      	nop

080067cc <__mdiff>:
__mdiff():
 80067cc:	e92d 4ff8 	stmdb	sp!, {r3, r4, r5, r6, r7, r8, r9, sl, fp, lr}
 80067d0:	460f      	mov	r7, r1
 80067d2:	4604      	mov	r4, r0
 80067d4:	4611      	mov	r1, r2
 80067d6:	4638      	mov	r0, r7
 80067d8:	4691      	mov	r9, r2
 80067da:	f7ff ffc9 	bl	8006770 <__mcmp>
 80067de:	1e05      	subs	r5, r0, #0
 80067e0:	f000 80f7 	beq.w	80069d2 <__mdiff+0x206>
 80067e4:	f2c0 80ef 	blt.w	80069c6 <__mdiff+0x1fa>
 80067e8:	f04f 0a00 	mov.w	sl, #0
 80067ec:	4620      	mov	r0, r4
 80067ee:	6879      	ldr	r1, [r7, #4]
 80067f0:	f7ff fc52 	bl	8006098 <_Balloc>
 80067f4:	697e      	ldr	r6, [r7, #20]
 80067f6:	f8d9 1014 	ldr.w	r1, [r9, #20]
 80067fa:	f8d9 5010 	ldr.w	r5, [r9, #16]
 80067fe:	fa1f fc86 	uxth.w	ip, r6
 8006802:	b28c      	uxth	r4, r1
 8006804:	0c09      	lsrs	r1, r1, #16
 8006806:	ebc4 040c 	rsb	r4, r4, ip
 800680a:	693b      	ldr	r3, [r7, #16]
 800680c:	eb09 0585 	add.w	r5, r9, r5, lsl #2
 8006810:	ebc1 4616 	rsb	r6, r1, r6, lsr #16
 8006814:	f109 0214 	add.w	r2, r9, #20
 8006818:	eb06 4124 	add.w	r1, r6, r4, asr #16
 800681c:	f105 0b14 	add.w	fp, r5, #20
 8006820:	43d2      	mvns	r2, r2
 8006822:	b2a4      	uxth	r4, r4
 8006824:	f109 0618 	add.w	r6, r9, #24
 8006828:	445a      	add	r2, fp
 800682a:	ea44 4401 	orr.w	r4, r4, r1, lsl #16
 800682e:	eb07 0883 	add.w	r8, r7, r3, lsl #2
 8006832:	f100 0518 	add.w	r5, r0, #24
 8006836:	1409      	asrs	r1, r1, #16
 8006838:	45b3      	cmp	fp, r6
 800683a:	f8c0 a00c 	str.w	sl, [r0, #12]
 800683e:	6144      	str	r4, [r0, #20]
 8006840:	f3c2 0a80 	ubfx	sl, r2, #2, #1
 8006844:	f108 0814 	add.w	r8, r8, #20
 8006848:	f107 0c18 	add.w	ip, r7, #24
 800684c:	462a      	mov	r2, r5
 800684e:	d956      	bls.n	80068fe <__mdiff+0x132>
 8006850:	f1ba 0f00 	cmp.w	sl, #0
 8006854:	d01b      	beq.n	800688e <__mdiff+0xc2>
 8006856:	f8dc 2000 	ldr.w	r2, [ip]
 800685a:	6836      	ldr	r6, [r6, #0]
 800685c:	b294      	uxth	r4, r2
 800685e:	1861      	adds	r1, r4, r1
 8006860:	fa1f fe86 	uxth.w	lr, r6
 8006864:	0c36      	lsrs	r6, r6, #16
 8006866:	ebce 0401 	rsb	r4, lr, r1
 800686a:	ebc6 4212 	rsb	r2, r6, r2, lsr #16
 800686e:	eb02 4124 	add.w	r1, r2, r4, asr #16
 8006872:	b2a6      	uxth	r6, r4
 8006874:	ea46 4401 	orr.w	r4, r6, r1, lsl #16
 8006878:	f109 061c 	add.w	r6, r9, #28
 800687c:	602c      	str	r4, [r5, #0]
 800687e:	1409      	asrs	r1, r1, #16
 8006880:	f100 051c 	add.w	r5, r0, #28
 8006884:	45b3      	cmp	fp, r6
 8006886:	f107 0c1c 	add.w	ip, r7, #28
 800688a:	462a      	mov	r2, r5
 800688c:	d937      	bls.n	80068fe <__mdiff+0x132>
 800688e:	4662      	mov	r2, ip
 8006890:	f852 4b04 	ldr.w	r4, [r2], #4
 8006894:	4637      	mov	r7, r6
 8006896:	f857 9b04 	ldr.w	r9, [r7], #4
 800689a:	fa1f fa84 	uxth.w	sl, r4
 800689e:	fa1f fe89 	uxth.w	lr, r9
 80068a2:	4451      	add	r1, sl
 80068a4:	ea4f 4919 	mov.w	r9, r9, lsr #16
 80068a8:	ebce 0101 	rsb	r1, lr, r1
 80068ac:	ebc9 4414 	rsb	r4, r9, r4, lsr #16
 80068b0:	eb04 4421 	add.w	r4, r4, r1, asr #16
 80068b4:	fa1f fa81 	uxth.w	sl, r1
 80068b8:	ea4a 4e04 	orr.w	lr, sl, r4, lsl #16
 80068bc:	4629      	mov	r1, r5
 80068be:	f841 eb04 	str.w	lr, [r1], #4
 80068c2:	f8dc c004 	ldr.w	ip, [ip, #4]
 80068c6:	6876      	ldr	r6, [r6, #4]
 80068c8:	fa1f f98c 	uxth.w	r9, ip
 80068cc:	eb09 4424 	add.w	r4, r9, r4, asr #16
 80068d0:	fa1f fa86 	uxth.w	sl, r6
 80068d4:	ea4f 4616 	mov.w	r6, r6, lsr #16
 80068d8:	ebca 0404 	rsb	r4, sl, r4
 80068dc:	ebc6 4e1c 	rsb	lr, r6, ip, lsr #16
 80068e0:	eb0e 4924 	add.w	r9, lr, r4, asr #16
 80068e4:	b2a6      	uxth	r6, r4
 80068e6:	ea46 4409 	orr.w	r4, r6, r9, lsl #16
 80068ea:	1d3e      	adds	r6, r7, #4
 80068ec:	606c      	str	r4, [r5, #4]
 80068ee:	1d0d      	adds	r5, r1, #4
 80068f0:	45b3      	cmp	fp, r6
 80068f2:	f102 0c04 	add.w	ip, r2, #4
 80068f6:	ea4f 4129 	mov.w	r1, r9, asr #16
 80068fa:	462a      	mov	r2, r5
 80068fc:	d8c7      	bhi.n	800688e <__mdiff+0xc2>
 80068fe:	45e0      	cmp	r8, ip
 8006900:	d957      	bls.n	80069b2 <__mdiff+0x1e6>
 8006902:	4662      	mov	r2, ip
 8006904:	f852 6b04 	ldr.w	r6, [r2], #4
 8006908:	ea6f 0a0c 	mvn.w	sl, ip
 800690c:	b2b4      	uxth	r4, r6
 800690e:	1861      	adds	r1, r4, r1
 8006910:	ea4f 4916 	mov.w	r9, r6, lsr #16
 8006914:	eb09 4e21 	add.w	lr, r9, r1, asr #16
 8006918:	b28c      	uxth	r4, r1
 800691a:	eb08 060a 	add.w	r6, r8, sl
 800691e:	ea44 440e 	orr.w	r4, r4, lr, lsl #16
 8006922:	4629      	mov	r1, r5
 8006924:	4590      	cmp	r8, r2
 8006926:	f841 4b04 	str.w	r4, [r1], #4
 800692a:	f3c6 0680 	ubfx	r6, r6, #2, #1
 800692e:	ea4f 492e 	mov.w	r9, lr, asr #16
 8006932:	d936      	bls.n	80069a2 <__mdiff+0x1d6>
 8006934:	b186      	cbz	r6, 8006958 <__mdiff+0x18c>
 8006936:	f852 6b04 	ldr.w	r6, [r2], #4
 800693a:	b2b4      	uxth	r4, r6
 800693c:	44a1      	add	r9, r4
 800693e:	0c36      	lsrs	r6, r6, #16
 8006940:	eb06 4629 	add.w	r6, r6, r9, asr #16
 8006944:	fa1f f489 	uxth.w	r4, r9
 8006948:	ea44 4406 	orr.w	r4, r4, r6, lsl #16
 800694c:	4590      	cmp	r8, r2
 800694e:	f841 4b04 	str.w	r4, [r1], #4
 8006952:	ea4f 4926 	mov.w	r9, r6, asr #16
 8006956:	d924      	bls.n	80069a2 <__mdiff+0x1d6>
 8006958:	4617      	mov	r7, r2
 800695a:	f857 4b04 	ldr.w	r4, [r7], #4
 800695e:	460e      	mov	r6, r1
 8006960:	fa1f fa84 	uxth.w	sl, r4
 8006964:	eb0a 0e09 	add.w	lr, sl, r9
 8006968:	0c24      	lsrs	r4, r4, #16
 800696a:	eb04 442e 	add.w	r4, r4, lr, asr #16
 800696e:	fa1f f98e 	uxth.w	r9, lr
 8006972:	ea49 4e04 	orr.w	lr, r9, r4, lsl #16
 8006976:	f846 eb04 	str.w	lr, [r6], #4
 800697a:	f8d2 9004 	ldr.w	r9, [r2, #4]
 800697e:	1d3a      	adds	r2, r7, #4
 8006980:	fa1f f789 	uxth.w	r7, r9
 8006984:	eb07 4424 	add.w	r4, r7, r4, asr #16
 8006988:	ea4f 4719 	mov.w	r7, r9, lsr #16
 800698c:	eb07 4724 	add.w	r7, r7, r4, asr #16
 8006990:	b2a4      	uxth	r4, r4
 8006992:	ea44 4407 	orr.w	r4, r4, r7, lsl #16
 8006996:	604c      	str	r4, [r1, #4]
 8006998:	1d31      	adds	r1, r6, #4
 800699a:	4590      	cmp	r8, r2
 800699c:	ea4f 4927 	mov.w	r9, r7, asr #16
 80069a0:	d8da      	bhi.n	8006958 <__mdiff+0x18c>
 80069a2:	ea6f 020c 	mvn.w	r2, ip
 80069a6:	eb02 0108 	add.w	r1, r2, r8
 80069aa:	f021 0203 	bic.w	r2, r1, #3
 80069ae:	1d11      	adds	r1, r2, #4
 80069b0:	186a      	adds	r2, r5, r1
 80069b2:	3a04      	subs	r2, #4
 80069b4:	b924      	cbnz	r4, 80069c0 <__mdiff+0x1f4>
 80069b6:	f852 1d04 	ldr.w	r1, [r2, #-4]!
 80069ba:	3b01      	subs	r3, #1
 80069bc:	2900      	cmp	r1, #0
 80069be:	d0fa      	beq.n	80069b6 <__mdiff+0x1ea>
 80069c0:	6103      	str	r3, [r0, #16]
 80069c2:	e8bd 8ff8 	ldmia.w	sp!, {r3, r4, r5, r6, r7, r8, r9, sl, fp, pc}
 80069c6:	463b      	mov	r3, r7
 80069c8:	f04f 0a01 	mov.w	sl, #1
 80069cc:	464f      	mov	r7, r9
 80069ce:	4699      	mov	r9, r3
 80069d0:	e70c      	b.n	80067ec <__mdiff+0x20>
 80069d2:	4620      	mov	r0, r4
 80069d4:	4629      	mov	r1, r5
 80069d6:	f7ff fb5f 	bl	8006098 <_Balloc>
 80069da:	2201      	movs	r2, #1
 80069dc:	6102      	str	r2, [r0, #16]
 80069de:	6145      	str	r5, [r0, #20]
 80069e0:	e8bd 8ff8 	ldmia.w	sp!, {r3, r4, r5, r6, r7, r8, r9, sl, fp, pc}

080069e4 <__d2b>:
__d2b():
 80069e4:	e92d 43f0 	stmdb	sp!, {r4, r5, r6, r7, r8, r9, lr}
 80069e8:	2101      	movs	r1, #1
 80069ea:	b083      	sub	sp, #12
 80069ec:	461d      	mov	r5, r3
 80069ee:	4614      	mov	r4, r2
 80069f0:	9f0a      	ldr	r7, [sp, #40]	; 0x28
 80069f2:	f7ff fb51 	bl	8006098 <_Balloc>
 80069f6:	f3c5 560a 	ubfx	r6, r5, #20, #11
 80069fa:	f025 437f 	bic.w	r3, r5, #4278190080	; 0xff000000
 80069fe:	4680      	mov	r8, r0
 8006a00:	46a9      	mov	r9, r5
 8006a02:	f423 0070 	bic.w	r0, r3, #15728640	; 0xf00000
 8006a06:	b10e      	cbz	r6, 8006a0c <__d2b+0x28>
 8006a08:	f440 1080 	orr.w	r0, r0, #1048576	; 0x100000
 8006a0c:	9001      	str	r0, [sp, #4]
 8006a0e:	2c00      	cmp	r4, #0
 8006a10:	d024      	beq.n	8006a5c <__d2b+0x78>
 8006a12:	aa02      	add	r2, sp, #8
 8006a14:	4668      	mov	r0, sp
 8006a16:	f842 4d08 	str.w	r4, [r2, #-8]!
 8006a1a:	f7ff fc09 	bl	8006230 <__lo0bits>
 8006a1e:	9b01      	ldr	r3, [sp, #4]
 8006a20:	2800      	cmp	r0, #0
 8006a22:	d131      	bne.n	8006a88 <__d2b+0xa4>
 8006a24:	9c00      	ldr	r4, [sp, #0]
 8006a26:	f8c8 4014 	str.w	r4, [r8, #20]
 8006a2a:	2b00      	cmp	r3, #0
 8006a2c:	bf0c      	ite	eq
 8006a2e:	2401      	moveq	r4, #1
 8006a30:	2402      	movne	r4, #2
 8006a32:	f8c8 3018 	str.w	r3, [r8, #24]
 8006a36:	f8c8 4010 	str.w	r4, [r8, #16]
 8006a3a:	b9de      	cbnz	r6, 8006a74 <__d2b+0x90>
 8006a3c:	f2a0 4332 	subw	r3, r0, #1074	; 0x432
 8006a40:	eb08 0084 	add.w	r0, r8, r4, lsl #2
 8006a44:	6900      	ldr	r0, [r0, #16]
 8006a46:	603b      	str	r3, [r7, #0]
 8006a48:	f7ff fbd4 	bl	80061f4 <__hi0bits>
 8006a4c:	990b      	ldr	r1, [sp, #44]	; 0x2c
 8006a4e:	ebc0 1244 	rsb	r2, r0, r4, lsl #5
 8006a52:	600a      	str	r2, [r1, #0]
 8006a54:	4640      	mov	r0, r8
 8006a56:	b003      	add	sp, #12
 8006a58:	e8bd 83f0 	ldmia.w	sp!, {r4, r5, r6, r7, r8, r9, pc}
 8006a5c:	a801      	add	r0, sp, #4
 8006a5e:	f7ff fbe7 	bl	8006230 <__lo0bits>
 8006a62:	9901      	ldr	r1, [sp, #4]
 8006a64:	2401      	movs	r4, #1
 8006a66:	f8c8 1014 	str.w	r1, [r8, #20]
 8006a6a:	f8c8 4010 	str.w	r4, [r8, #16]
 8006a6e:	3020      	adds	r0, #32
 8006a70:	2e00      	cmp	r6, #0
 8006a72:	d0e3      	beq.n	8006a3c <__d2b+0x58>
 8006a74:	f2a6 4933 	subw	r9, r6, #1075	; 0x433
 8006a78:	9a0b      	ldr	r2, [sp, #44]	; 0x2c
 8006a7a:	eb09 0300 	add.w	r3, r9, r0
 8006a7e:	f1c0 0035 	rsb	r0, r0, #53	; 0x35
 8006a82:	603b      	str	r3, [r7, #0]
 8006a84:	6010      	str	r0, [r2, #0]
 8006a86:	e7e5      	b.n	8006a54 <__d2b+0x70>
 8006a88:	f1c0 0120 	rsb	r1, r0, #32
 8006a8c:	fa03 f401 	lsl.w	r4, r3, r1
 8006a90:	fa23 f300 	lsr.w	r3, r3, r0
 8006a94:	9a00      	ldr	r2, [sp, #0]
 8006a96:	9301      	str	r3, [sp, #4]
 8006a98:	ea44 0102 	orr.w	r1, r4, r2
 8006a9c:	f8c8 1014 	str.w	r1, [r8, #20]
 8006aa0:	e7c3      	b.n	8006a2a <__d2b+0x46>
 8006aa2:	bf00      	nop

08006aa4 <_realloc_r>:
_realloc_r():
 8006aa4:	e92d 4ff0 	stmdb	sp!, {r4, r5, r6, r7, r8, r9, sl, fp, lr}
 8006aa8:	460c      	mov	r4, r1
 8006aaa:	b083      	sub	sp, #12
 8006aac:	4681      	mov	r9, r0
 8006aae:	4617      	mov	r7, r2
 8006ab0:	2900      	cmp	r1, #0
 8006ab2:	f000 80c6 	beq.w	8006c42 <_realloc_r+0x19e>
 8006ab6:	f7ff faeb 	bl	8006090 <__malloc_lock>
 8006aba:	f107 050b 	add.w	r5, r7, #11
 8006abe:	f854 3c04 	ldr.w	r3, [r4, #-4]
 8006ac2:	2d16      	cmp	r5, #22
 8006ac4:	f1a4 0a08 	sub.w	sl, r4, #8
 8006ac8:	f023 0603 	bic.w	r6, r3, #3
 8006acc:	d850      	bhi.n	8006b70 <_realloc_r+0xcc>
 8006ace:	2110      	movs	r1, #16
 8006ad0:	460d      	mov	r5, r1
 8006ad2:	42af      	cmp	r7, r5
 8006ad4:	d851      	bhi.n	8006b7a <_realloc_r+0xd6>
 8006ad6:	428e      	cmp	r6, r1
 8006ad8:	da54      	bge.n	8006b84 <_realloc_r+0xe0>
 8006ada:	f8df c3b0 	ldr.w	ip, [pc, #944]	; 8006e8c <_realloc_r+0x3e8>
 8006ade:	eb0a 0206 	add.w	r2, sl, r6
 8006ae2:	f8dc 0008 	ldr.w	r0, [ip, #8]
 8006ae6:	4290      	cmp	r0, r2
 8006ae8:	f000 80b1 	beq.w	8006c4e <_realloc_r+0x1aa>
 8006aec:	f8d2 e004 	ldr.w	lr, [r2, #4]
 8006af0:	f02e 0801 	bic.w	r8, lr, #1
 8006af4:	4490      	add	r8, r2
 8006af6:	f8d8 8004 	ldr.w	r8, [r8, #4]
 8006afa:	f018 0f01 	tst.w	r8, #1
 8006afe:	d05b      	beq.n	8006bb8 <_realloc_r+0x114>
 8006b00:	f04f 0e00 	mov.w	lr, #0
 8006b04:	4672      	mov	r2, lr
 8006b06:	07db      	lsls	r3, r3, #31
 8006b08:	d476      	bmi.n	8006bf8 <_realloc_r+0x154>
 8006b0a:	f854 3c08 	ldr.w	r3, [r4, #-8]
 8006b0e:	ebc3 0b0a 	rsb	fp, r3, sl
 8006b12:	f8db 3004 	ldr.w	r3, [fp, #4]
 8006b16:	f023 0303 	bic.w	r3, r3, #3
 8006b1a:	199b      	adds	r3, r3, r6
 8006b1c:	9301      	str	r3, [sp, #4]
 8006b1e:	2a00      	cmp	r2, #0
 8006b20:	d067      	beq.n	8006bf2 <_realloc_r+0x14e>
 8006b22:	4282      	cmp	r2, r0
 8006b24:	eb0e 0803 	add.w	r8, lr, r3
 8006b28:	f000 80f4 	beq.w	8006d14 <_realloc_r+0x270>
 8006b2c:	4588      	cmp	r8, r1
 8006b2e:	db60      	blt.n	8006bf2 <_realloc_r+0x14e>
 8006b30:	68d1      	ldr	r1, [r2, #12]
 8006b32:	6890      	ldr	r0, [r2, #8]
 8006b34:	465f      	mov	r7, fp
 8006b36:	60c1      	str	r1, [r0, #12]
 8006b38:	6088      	str	r0, [r1, #8]
 8006b3a:	f8db 300c 	ldr.w	r3, [fp, #12]
 8006b3e:	f857 1f08 	ldr.w	r1, [r7, #8]!
 8006b42:	1f32      	subs	r2, r6, #4
 8006b44:	2a24      	cmp	r2, #36	; 0x24
 8006b46:	60cb      	str	r3, [r1, #12]
 8006b48:	6099      	str	r1, [r3, #8]
 8006b4a:	f200 812d 	bhi.w	8006da8 <_realloc_r+0x304>
 8006b4e:	2a13      	cmp	r2, #19
 8006b50:	f240 80bb 	bls.w	8006cca <_realloc_r+0x226>
 8006b54:	6821      	ldr	r1, [r4, #0]
 8006b56:	2a1b      	cmp	r2, #27
 8006b58:	f8cb 1008 	str.w	r1, [fp, #8]
 8006b5c:	6860      	ldr	r0, [r4, #4]
 8006b5e:	f8cb 000c 	str.w	r0, [fp, #12]
 8006b62:	f200 8138 	bhi.w	8006dd6 <_realloc_r+0x332>
 8006b66:	f10b 0010 	add.w	r0, fp, #16
 8006b6a:	f104 0308 	add.w	r3, r4, #8
 8006b6e:	e0ae      	b.n	8006cce <_realloc_r+0x22a>
 8006b70:	f025 0507 	bic.w	r5, r5, #7
 8006b74:	2d00      	cmp	r5, #0
 8006b76:	4629      	mov	r1, r5
 8006b78:	daab      	bge.n	8006ad2 <_realloc_r+0x2e>
 8006b7a:	270c      	movs	r7, #12
 8006b7c:	f8c9 7000 	str.w	r7, [r9]
 8006b80:	2700      	movs	r7, #0
 8006b82:	e015      	b.n	8006bb0 <_realloc_r+0x10c>
 8006b84:	46b0      	mov	r8, r6
 8006b86:	ebc5 0708 	rsb	r7, r5, r8
 8006b8a:	2f0f      	cmp	r7, #15
 8006b8c:	f003 0001 	and.w	r0, r3, #1
 8006b90:	d81d      	bhi.n	8006bce <_realloc_r+0x12a>
 8006b92:	ea40 0108 	orr.w	r1, r0, r8
 8006b96:	f8ca 1004 	str.w	r1, [sl, #4]
 8006b9a:	44c2      	add	sl, r8
 8006b9c:	f8da 3004 	ldr.w	r3, [sl, #4]
 8006ba0:	f043 0201 	orr.w	r2, r3, #1
 8006ba4:	f8ca 2004 	str.w	r2, [sl, #4]
 8006ba8:	4648      	mov	r0, r9
 8006baa:	f7ff fa73 	bl	8006094 <__malloc_unlock>
 8006bae:	4627      	mov	r7, r4
 8006bb0:	4638      	mov	r0, r7
 8006bb2:	b003      	add	sp, #12
 8006bb4:	e8bd 8ff0 	ldmia.w	sp!, {r4, r5, r6, r7, r8, r9, sl, fp, pc}
 8006bb8:	f02e 0e03 	bic.w	lr, lr, #3
 8006bbc:	eb0e 0806 	add.w	r8, lr, r6
 8006bc0:	4588      	cmp	r8, r1
 8006bc2:	dba0      	blt.n	8006b06 <_realloc_r+0x62>
 8006bc4:	68d7      	ldr	r7, [r2, #12]
 8006bc6:	6892      	ldr	r2, [r2, #8]
 8006bc8:	60d7      	str	r7, [r2, #12]
 8006bca:	60ba      	str	r2, [r7, #8]
 8006bcc:	e7db      	b.n	8006b86 <_realloc_r+0xe2>
 8006bce:	eb0a 0105 	add.w	r1, sl, r5
 8006bd2:	4305      	orrs	r5, r0
 8006bd4:	f047 0001 	orr.w	r0, r7, #1
 8006bd8:	f8ca 5004 	str.w	r5, [sl, #4]
 8006bdc:	19cf      	adds	r7, r1, r7
 8006bde:	6048      	str	r0, [r1, #4]
 8006be0:	687b      	ldr	r3, [r7, #4]
 8006be2:	4648      	mov	r0, r9
 8006be4:	f043 0201 	orr.w	r2, r3, #1
 8006be8:	607a      	str	r2, [r7, #4]
 8006bea:	3108      	adds	r1, #8
 8006bec:	f7fe f9c6 	bl	8004f7c <_free_r>
 8006bf0:	e7da      	b.n	8006ba8 <_realloc_r+0x104>
 8006bf2:	9a01      	ldr	r2, [sp, #4]
 8006bf4:	428a      	cmp	r2, r1
 8006bf6:	da35      	bge.n	8006c64 <_realloc_r+0x1c0>
 8006bf8:	4639      	mov	r1, r7
 8006bfa:	4648      	mov	r0, r9
 8006bfc:	f7fe fcf4 	bl	80055e8 <_malloc_r>
 8006c00:	4607      	mov	r7, r0
 8006c02:	b1d0      	cbz	r0, 8006c3a <_realloc_r+0x196>
 8006c04:	f854 3c04 	ldr.w	r3, [r4, #-4]
 8006c08:	f1a0 0108 	sub.w	r1, r0, #8
 8006c0c:	f023 0201 	bic.w	r2, r3, #1
 8006c10:	4452      	add	r2, sl
 8006c12:	4291      	cmp	r1, r2
 8006c14:	f000 80c1 	beq.w	8006d9a <_realloc_r+0x2f6>
 8006c18:	1f32      	subs	r2, r6, #4
 8006c1a:	2a24      	cmp	r2, #36	; 0x24
 8006c1c:	d876      	bhi.n	8006d0c <_realloc_r+0x268>
 8006c1e:	2a13      	cmp	r2, #19
 8006c20:	d848      	bhi.n	8006cb4 <_realloc_r+0x210>
 8006c22:	4603      	mov	r3, r0
 8006c24:	4620      	mov	r0, r4
 8006c26:	6802      	ldr	r2, [r0, #0]
 8006c28:	601a      	str	r2, [r3, #0]
 8006c2a:	6841      	ldr	r1, [r0, #4]
 8006c2c:	6059      	str	r1, [r3, #4]
 8006c2e:	6880      	ldr	r0, [r0, #8]
 8006c30:	6098      	str	r0, [r3, #8]
 8006c32:	4648      	mov	r0, r9
 8006c34:	4621      	mov	r1, r4
 8006c36:	f7fe f9a1 	bl	8004f7c <_free_r>
 8006c3a:	4648      	mov	r0, r9
 8006c3c:	f7ff fa2a 	bl	8006094 <__malloc_unlock>
 8006c40:	e7b6      	b.n	8006bb0 <_realloc_r+0x10c>
 8006c42:	4611      	mov	r1, r2
 8006c44:	b003      	add	sp, #12
 8006c46:	e8bd 4ff0 	ldmia.w	sp!, {r4, r5, r6, r7, r8, r9, sl, fp, lr}
 8006c4a:	f7fe bccd 	b.w	80055e8 <_malloc_r>
 8006c4e:	6842      	ldr	r2, [r0, #4]
 8006c50:	f105 0810 	add.w	r8, r5, #16
 8006c54:	f022 0e03 	bic.w	lr, r2, #3
 8006c58:	eb0e 0206 	add.w	r2, lr, r6
 8006c5c:	4542      	cmp	r2, r8
 8006c5e:	da41      	bge.n	8006ce4 <_realloc_r+0x240>
 8006c60:	4602      	mov	r2, r0
 8006c62:	e750      	b.n	8006b06 <_realloc_r+0x62>
 8006c64:	465f      	mov	r7, fp
 8006c66:	f8db 300c 	ldr.w	r3, [fp, #12]
 8006c6a:	f857 1f08 	ldr.w	r1, [r7, #8]!
 8006c6e:	1f32      	subs	r2, r6, #4
 8006c70:	2a24      	cmp	r2, #36	; 0x24
 8006c72:	60cb      	str	r3, [r1, #12]
 8006c74:	6099      	str	r1, [r3, #8]
 8006c76:	f200 80a3 	bhi.w	8006dc0 <_realloc_r+0x31c>
 8006c7a:	2a13      	cmp	r2, #19
 8006c7c:	f240 809d 	bls.w	8006dba <_realloc_r+0x316>
 8006c80:	6823      	ldr	r3, [r4, #0]
 8006c82:	2a1b      	cmp	r2, #27
 8006c84:	f8cb 3008 	str.w	r3, [fp, #8]
 8006c88:	6861      	ldr	r1, [r4, #4]
 8006c8a:	f8cb 100c 	str.w	r1, [fp, #12]
 8006c8e:	f200 80b8 	bhi.w	8006e02 <_realloc_r+0x35e>
 8006c92:	f10b 0010 	add.w	r0, fp, #16
 8006c96:	f104 0208 	add.w	r2, r4, #8
 8006c9a:	6813      	ldr	r3, [r2, #0]
 8006c9c:	463c      	mov	r4, r7
 8006c9e:	6003      	str	r3, [r0, #0]
 8006ca0:	6857      	ldr	r7, [r2, #4]
 8006ca2:	f8dd 8004 	ldr.w	r8, [sp, #4]
 8006ca6:	6047      	str	r7, [r0, #4]
 8006ca8:	6892      	ldr	r2, [r2, #8]
 8006caa:	46da      	mov	sl, fp
 8006cac:	6082      	str	r2, [r0, #8]
 8006cae:	f8db 3004 	ldr.w	r3, [fp, #4]
 8006cb2:	e768      	b.n	8006b86 <_realloc_r+0xe2>
 8006cb4:	6821      	ldr	r1, [r4, #0]
 8006cb6:	2a1b      	cmp	r2, #27
 8006cb8:	6001      	str	r1, [r0, #0]
 8006cba:	6863      	ldr	r3, [r4, #4]
 8006cbc:	6043      	str	r3, [r0, #4]
 8006cbe:	d861      	bhi.n	8006d84 <_realloc_r+0x2e0>
 8006cc0:	f100 0308 	add.w	r3, r0, #8
 8006cc4:	f104 0008 	add.w	r0, r4, #8
 8006cc8:	e7ad      	b.n	8006c26 <_realloc_r+0x182>
 8006cca:	4638      	mov	r0, r7
 8006ccc:	4623      	mov	r3, r4
 8006cce:	681a      	ldr	r2, [r3, #0]
 8006cd0:	463c      	mov	r4, r7
 8006cd2:	6002      	str	r2, [r0, #0]
 8006cd4:	685f      	ldr	r7, [r3, #4]
 8006cd6:	46da      	mov	sl, fp
 8006cd8:	6047      	str	r7, [r0, #4]
 8006cda:	689b      	ldr	r3, [r3, #8]
 8006cdc:	6083      	str	r3, [r0, #8]
 8006cde:	f8db 3004 	ldr.w	r3, [fp, #4]
 8006ce2:	e750      	b.n	8006b86 <_realloc_r+0xe2>
 8006ce4:	1b57      	subs	r7, r2, r5
 8006ce6:	eb0a 0305 	add.w	r3, sl, r5
 8006cea:	f047 0001 	orr.w	r0, r7, #1
 8006cee:	6058      	str	r0, [r3, #4]
 8006cf0:	f854 1c04 	ldr.w	r1, [r4, #-4]
 8006cf4:	4648      	mov	r0, r9
 8006cf6:	f001 0201 	and.w	r2, r1, #1
 8006cfa:	4315      	orrs	r5, r2
 8006cfc:	f844 5c04 	str.w	r5, [r4, #-4]
 8006d00:	f8cc 3008 	str.w	r3, [ip, #8]
 8006d04:	4627      	mov	r7, r4
 8006d06:	f7ff f9c5 	bl	8006094 <__malloc_unlock>
 8006d0a:	e751      	b.n	8006bb0 <_realloc_r+0x10c>
 8006d0c:	4621      	mov	r1, r4
 8006d0e:	f7ff f851 	bl	8005db4 <memmove>
 8006d12:	e78e      	b.n	8006c32 <_realloc_r+0x18e>
 8006d14:	f105 0010 	add.w	r0, r5, #16
 8006d18:	4580      	cmp	r8, r0
 8006d1a:	f6ff af6a 	blt.w	8006bf2 <_realloc_r+0x14e>
 8006d1e:	465f      	mov	r7, fp
 8006d20:	f8db 000c 	ldr.w	r0, [fp, #12]
 8006d24:	f857 1f08 	ldr.w	r1, [r7, #8]!
 8006d28:	1f32      	subs	r2, r6, #4
 8006d2a:	2a24      	cmp	r2, #36	; 0x24
 8006d2c:	60c8      	str	r0, [r1, #12]
 8006d2e:	6081      	str	r1, [r0, #8]
 8006d30:	f200 808c 	bhi.w	8006e4c <_realloc_r+0x3a8>
 8006d34:	2a13      	cmp	r2, #19
 8006d36:	d97c      	bls.n	8006e32 <_realloc_r+0x38e>
 8006d38:	6820      	ldr	r0, [r4, #0]
 8006d3a:	2a1b      	cmp	r2, #27
 8006d3c:	f8cb 0008 	str.w	r0, [fp, #8]
 8006d40:	6861      	ldr	r1, [r4, #4]
 8006d42:	f8cb 100c 	str.w	r1, [fp, #12]
 8006d46:	f200 808a 	bhi.w	8006e5e <_realloc_r+0x3ba>
 8006d4a:	f10b 0310 	add.w	r3, fp, #16
 8006d4e:	3408      	adds	r4, #8
 8006d50:	6820      	ldr	r0, [r4, #0]
 8006d52:	6018      	str	r0, [r3, #0]
 8006d54:	6862      	ldr	r2, [r4, #4]
 8006d56:	605a      	str	r2, [r3, #4]
 8006d58:	68a1      	ldr	r1, [r4, #8]
 8006d5a:	6099      	str	r1, [r3, #8]
 8006d5c:	ebc5 0008 	rsb	r0, r5, r8
 8006d60:	eb0b 0305 	add.w	r3, fp, r5
 8006d64:	f040 0201 	orr.w	r2, r0, #1
 8006d68:	605a      	str	r2, [r3, #4]
 8006d6a:	f8db 1004 	ldr.w	r1, [fp, #4]
 8006d6e:	4648      	mov	r0, r9
 8006d70:	f001 0201 	and.w	r2, r1, #1
 8006d74:	4315      	orrs	r5, r2
 8006d76:	f8cb 5004 	str.w	r5, [fp, #4]
 8006d7a:	f8cc 3008 	str.w	r3, [ip, #8]
 8006d7e:	f7ff f989 	bl	8006094 <__malloc_unlock>
 8006d82:	e715      	b.n	8006bb0 <_realloc_r+0x10c>
 8006d84:	68a0      	ldr	r0, [r4, #8]
 8006d86:	2a24      	cmp	r2, #36	; 0x24
 8006d88:	60b8      	str	r0, [r7, #8]
 8006d8a:	68e1      	ldr	r1, [r4, #12]
 8006d8c:	60f9      	str	r1, [r7, #12]
 8006d8e:	d02f      	beq.n	8006df0 <_realloc_r+0x34c>
 8006d90:	f107 0310 	add.w	r3, r7, #16
 8006d94:	f104 0010 	add.w	r0, r4, #16
 8006d98:	e745      	b.n	8006c26 <_realloc_r+0x182>
 8006d9a:	f850 7c04 	ldr.w	r7, [r0, #-4]
 8006d9e:	f027 0c03 	bic.w	ip, r7, #3
 8006da2:	eb0c 0806 	add.w	r8, ip, r6
 8006da6:	e6ee      	b.n	8006b86 <_realloc_r+0xe2>
 8006da8:	4621      	mov	r1, r4
 8006daa:	4638      	mov	r0, r7
 8006dac:	f7ff f802 	bl	8005db4 <memmove>
 8006db0:	463c      	mov	r4, r7
 8006db2:	f8db 3004 	ldr.w	r3, [fp, #4]
 8006db6:	46da      	mov	sl, fp
 8006db8:	e6e5      	b.n	8006b86 <_realloc_r+0xe2>
 8006dba:	4638      	mov	r0, r7
 8006dbc:	4622      	mov	r2, r4
 8006dbe:	e76c      	b.n	8006c9a <_realloc_r+0x1f6>
 8006dc0:	4621      	mov	r1, r4
 8006dc2:	4638      	mov	r0, r7
 8006dc4:	f7fe fff6 	bl	8005db4 <memmove>
 8006dc8:	463c      	mov	r4, r7
 8006dca:	f8db 3004 	ldr.w	r3, [fp, #4]
 8006dce:	f8dd 8004 	ldr.w	r8, [sp, #4]
 8006dd2:	46da      	mov	sl, fp
 8006dd4:	e6d7      	b.n	8006b86 <_realloc_r+0xe2>
 8006dd6:	68a3      	ldr	r3, [r4, #8]
 8006dd8:	2a24      	cmp	r2, #36	; 0x24
 8006dda:	f8cb 3010 	str.w	r3, [fp, #16]
 8006dde:	68e1      	ldr	r1, [r4, #12]
 8006de0:	f8cb 1014 	str.w	r1, [fp, #20]
 8006de4:	d01a      	beq.n	8006e1c <_realloc_r+0x378>
 8006de6:	f10b 0018 	add.w	r0, fp, #24
 8006dea:	f104 0310 	add.w	r3, r4, #16
 8006dee:	e76e      	b.n	8006cce <_realloc_r+0x22a>
 8006df0:	6922      	ldr	r2, [r4, #16]
 8006df2:	f107 0318 	add.w	r3, r7, #24
 8006df6:	613a      	str	r2, [r7, #16]
 8006df8:	6961      	ldr	r1, [r4, #20]
 8006dfa:	f104 0018 	add.w	r0, r4, #24
 8006dfe:	6179      	str	r1, [r7, #20]
 8006e00:	e711      	b.n	8006c26 <_realloc_r+0x182>
 8006e02:	68a0      	ldr	r0, [r4, #8]
 8006e04:	2a24      	cmp	r2, #36	; 0x24
 8006e06:	f8cb 0010 	str.w	r0, [fp, #16]
 8006e0a:	68e3      	ldr	r3, [r4, #12]
 8006e0c:	f8cb 3014 	str.w	r3, [fp, #20]
 8006e10:	d011      	beq.n	8006e36 <_realloc_r+0x392>
 8006e12:	f10b 0018 	add.w	r0, fp, #24
 8006e16:	f104 0210 	add.w	r2, r4, #16
 8006e1a:	e73e      	b.n	8006c9a <_realloc_r+0x1f6>
 8006e1c:	6922      	ldr	r2, [r4, #16]
 8006e1e:	f10b 0020 	add.w	r0, fp, #32
 8006e22:	f8cb 2018 	str.w	r2, [fp, #24]
 8006e26:	6961      	ldr	r1, [r4, #20]
 8006e28:	f104 0318 	add.w	r3, r4, #24
 8006e2c:	f8cb 101c 	str.w	r1, [fp, #28]
 8006e30:	e74d      	b.n	8006cce <_realloc_r+0x22a>
 8006e32:	463b      	mov	r3, r7
 8006e34:	e78c      	b.n	8006d50 <_realloc_r+0x2ac>
 8006e36:	6922      	ldr	r2, [r4, #16]
 8006e38:	f10b 0020 	add.w	r0, fp, #32
 8006e3c:	f8cb 2018 	str.w	r2, [fp, #24]
 8006e40:	6961      	ldr	r1, [r4, #20]
 8006e42:	f104 0218 	add.w	r2, r4, #24
 8006e46:	f8cb 101c 	str.w	r1, [fp, #28]
 8006e4a:	e726      	b.n	8006c9a <_realloc_r+0x1f6>
 8006e4c:	4638      	mov	r0, r7
 8006e4e:	4621      	mov	r1, r4
 8006e50:	f8cd c000 	str.w	ip, [sp]
 8006e54:	f7fe ffae 	bl	8005db4 <memmove>
 8006e58:	f8dd c000 	ldr.w	ip, [sp]
 8006e5c:	e77e      	b.n	8006d5c <_realloc_r+0x2b8>
 8006e5e:	68a3      	ldr	r3, [r4, #8]
 8006e60:	2a24      	cmp	r2, #36	; 0x24
 8006e62:	f8cb 3010 	str.w	r3, [fp, #16]
 8006e66:	68e0      	ldr	r0, [r4, #12]
 8006e68:	f8cb 0014 	str.w	r0, [fp, #20]
 8006e6c:	d003      	beq.n	8006e76 <_realloc_r+0x3d2>
 8006e6e:	f10b 0318 	add.w	r3, fp, #24
 8006e72:	3410      	adds	r4, #16
 8006e74:	e76c      	b.n	8006d50 <_realloc_r+0x2ac>
 8006e76:	6922      	ldr	r2, [r4, #16]
 8006e78:	f10b 0320 	add.w	r3, fp, #32
 8006e7c:	f8cb 2018 	str.w	r2, [fp, #24]
 8006e80:	6961      	ldr	r1, [r4, #20]
 8006e82:	3418      	adds	r4, #24
 8006e84:	f8cb 101c 	str.w	r1, [fp, #28]
 8006e88:	e762      	b.n	8006d50 <_realloc_r+0x2ac>
 8006e8a:	bf00      	nop
 8006e8c:	20000490 	.word	0x20000490

08006e90 <__fpclassifyd>:
__fpclassifyd():
 8006e90:	460b      	mov	r3, r1
 8006e92:	b161      	cbz	r1, 8006eae <__fpclassifyd+0x1e>
 8006e94:	f1b1 4f00 	cmp.w	r1, #2147483648	; 0x80000000
 8006e98:	d009      	beq.n	8006eae <__fpclassifyd+0x1e>
 8006e9a:	f64f 72ff 	movw	r2, #65535	; 0xffff
 8006e9e:	f5a3 1180 	sub.w	r1, r3, #1048576	; 0x100000
 8006ea2:	f6c7 72df 	movt	r2, #32735	; 0x7fdf
 8006ea6:	4291      	cmp	r1, r2
 8006ea8:	d805      	bhi.n	8006eb6 <__fpclassifyd+0x26>
 8006eaa:	2004      	movs	r0, #4
 8006eac:	4770      	bx	lr
 8006eae:	2800      	cmp	r0, #0
 8006eb0:	d1f3      	bne.n	8006e9a <__fpclassifyd+0xa>
 8006eb2:	2002      	movs	r0, #2
 8006eb4:	4770      	bx	lr
 8006eb6:	f103 41ff 	add.w	r1, r3, #2139095040	; 0x7f800000
 8006eba:	f501 01e0 	add.w	r1, r1, #7340032	; 0x700000
 8006ebe:	4291      	cmp	r1, r2
 8006ec0:	d9f3      	bls.n	8006eaa <__fpclassifyd+0x1a>
 8006ec2:	f64f 72ff 	movw	r2, #65535	; 0xffff
 8006ec6:	f2c0 020f 	movt	r2, #15
 8006eca:	4293      	cmp	r3, r2
 8006ecc:	d801      	bhi.n	8006ed2 <__fpclassifyd+0x42>
 8006ece:	2003      	movs	r0, #3
 8006ed0:	4770      	bx	lr
 8006ed2:	f103 4100 	add.w	r1, r3, #2147483648	; 0x80000000
 8006ed6:	4291      	cmp	r1, r2
 8006ed8:	d9f9      	bls.n	8006ece <__fpclassifyd+0x3e>
 8006eda:	2200      	movs	r2, #0
 8006edc:	f6c7 72f0 	movt	r2, #32752	; 0x7ff0
 8006ee0:	4293      	cmp	r3, r2
 8006ee2:	d004      	beq.n	8006eee <__fpclassifyd+0x5e>
 8006ee4:	f513 1f80 	cmn.w	r3, #1048576	; 0x100000
 8006ee8:	d001      	beq.n	8006eee <__fpclassifyd+0x5e>
 8006eea:	2000      	movs	r0, #0
 8006eec:	4770      	bx	lr
 8006eee:	f1d0 0001 	rsbs	r0, r0, #1
 8006ef2:	bf38      	it	cc
 8006ef4:	2000      	movcc	r0, #0
 8006ef6:	4770      	bx	lr

08006ef8 <_sbrk_r>:
_sbrk_r():
 8006ef8:	b538      	push	{r3, r4, r5, lr}
 8006efa:	4c07      	ldr	r4, [pc, #28]	; (8006f18 <_sbrk_r+0x20>)
 8006efc:	2300      	movs	r3, #0
 8006efe:	4605      	mov	r5, r0
 8006f00:	4608      	mov	r0, r1
 8006f02:	6023      	str	r3, [r4, #0]
 8006f04:	f000 fb46 	bl	8007594 <_sbrk>
 8006f08:	1c43      	adds	r3, r0, #1
 8006f0a:	d000      	beq.n	8006f0e <_sbrk_r+0x16>
 8006f0c:	bd38      	pop	{r3, r4, r5, pc}
 8006f0e:	6821      	ldr	r1, [r4, #0]
 8006f10:	2900      	cmp	r1, #0
 8006f12:	d0fb      	beq.n	8006f0c <_sbrk_r+0x14>
 8006f14:	6029      	str	r1, [r5, #0]
 8006f16:	bd38      	pop	{r3, r4, r5, pc}
 8006f18:	200008e0 	.word	0x200008e0

08006f1c <__sread>:
__sread():
 8006f1c:	b510      	push	{r4, lr}
 8006f1e:	460c      	mov	r4, r1
 8006f20:	f9b1 100e 	ldrsh.w	r1, [r1, #14]
 8006f24:	f000 fa5e 	bl	80073e4 <_read_r>
 8006f28:	2800      	cmp	r0, #0
 8006f2a:	db03      	blt.n	8006f34 <__sread+0x18>
 8006f2c:	6d22      	ldr	r2, [r4, #80]	; 0x50
 8006f2e:	1813      	adds	r3, r2, r0
 8006f30:	6523      	str	r3, [r4, #80]	; 0x50
 8006f32:	bd10      	pop	{r4, pc}
 8006f34:	89a3      	ldrh	r3, [r4, #12]
 8006f36:	f423 5180 	bic.w	r1, r3, #4096	; 0x1000
 8006f3a:	81a1      	strh	r1, [r4, #12]
 8006f3c:	bd10      	pop	{r4, pc}
 8006f3e:	bf00      	nop

08006f40 <__swrite>:
__swrite():
 8006f40:	e92d 41f0 	stmdb	sp!, {r4, r5, r6, r7, r8, lr}
 8006f44:	460c      	mov	r4, r1
 8006f46:	8989      	ldrh	r1, [r1, #12]
 8006f48:	4607      	mov	r7, r0
 8006f4a:	f401 7c80 	and.w	ip, r1, #256	; 0x100
 8006f4e:	fa0f fc8c 	sxth.w	ip, ip
 8006f52:	4616      	mov	r6, r2
 8006f54:	461d      	mov	r5, r3
 8006f56:	f1bc 0f00 	cmp.w	ip, #0
 8006f5a:	d006      	beq.n	8006f6a <__swrite+0x2a>
 8006f5c:	f9b4 100e 	ldrsh.w	r1, [r4, #14]
 8006f60:	2200      	movs	r2, #0
 8006f62:	2302      	movs	r3, #2
 8006f64:	f000 fa2a 	bl	80073bc <_lseek_r>
 8006f68:	89a1      	ldrh	r1, [r4, #12]
 8006f6a:	f421 5080 	bic.w	r0, r1, #4096	; 0x1000
 8006f6e:	f9b4 100e 	ldrsh.w	r1, [r4, #14]
 8006f72:	81a0      	strh	r0, [r4, #12]
 8006f74:	4632      	mov	r2, r6
 8006f76:	4638      	mov	r0, r7
 8006f78:	462b      	mov	r3, r5
 8006f7a:	e8bd 41f0 	ldmia.w	sp!, {r4, r5, r6, r7, r8, lr}
 8006f7e:	f000 b877 	b.w	8007070 <_write_r>
 8006f82:	bf00      	nop

08006f84 <__sseek>:
__sseek():
 8006f84:	b510      	push	{r4, lr}
 8006f86:	460c      	mov	r4, r1
 8006f88:	f9b1 100e 	ldrsh.w	r1, [r1, #14]
 8006f8c:	f000 fa16 	bl	80073bc <_lseek_r>
 8006f90:	1c42      	adds	r2, r0, #1
 8006f92:	89a3      	ldrh	r3, [r4, #12]
 8006f94:	d004      	beq.n	8006fa0 <__sseek+0x1c>
 8006f96:	f443 5180 	orr.w	r1, r3, #4096	; 0x1000
 8006f9a:	6520      	str	r0, [r4, #80]	; 0x50
 8006f9c:	81a1      	strh	r1, [r4, #12]
 8006f9e:	bd10      	pop	{r4, pc}
 8006fa0:	f423 5280 	bic.w	r2, r3, #4096	; 0x1000
 8006fa4:	81a2      	strh	r2, [r4, #12]
 8006fa6:	bd10      	pop	{r4, pc}

08006fa8 <__sclose>:
__sclose():
 8006fa8:	f9b1 100e 	ldrsh.w	r1, [r1, #14]
 8006fac:	f000 b8a4 	b.w	80070f8 <_close_r>

08006fb0 <__sprint_r>:
__sprint_r():
 8006fb0:	e92d 4ff8 	stmdb	sp!, {r3, r4, r5, r6, r7, r8, r9, sl, fp, lr}
 8006fb4:	6893      	ldr	r3, [r2, #8]
 8006fb6:	4692      	mov	sl, r2
 8006fb8:	4680      	mov	r8, r0
 8006fba:	460f      	mov	r7, r1
 8006fbc:	2b00      	cmp	r3, #0
 8006fbe:	d050      	beq.n	8007062 <__sprint_r+0xb2>
 8006fc0:	6e4c      	ldr	r4, [r1, #100]	; 0x64
 8006fc2:	f414 5f00 	tst.w	r4, #8192	; 0x2000
 8006fc6:	d050      	beq.n	800706a <__sprint_r+0xba>
 8006fc8:	6812      	ldr	r2, [r2, #0]
 8006fca:	f102 0b08 	add.w	fp, r2, #8
 8006fce:	f85b 0c04 	ldr.w	r0, [fp, #-4]
 8006fd2:	f85b 4c08 	ldr.w	r4, [fp, #-8]
 8006fd6:	ea5f 0990 	movs.w	r9, r0, lsr #2
 8006fda:	d038      	beq.n	800704e <__sprint_r+0x9e>
 8006fdc:	f109 33ff 	add.w	r3, r9, #4294967295	; 0xffffffff
 8006fe0:	4640      	mov	r0, r8
 8006fe2:	6821      	ldr	r1, [r4, #0]
 8006fe4:	463a      	mov	r2, r7
 8006fe6:	f003 0601 	and.w	r6, r3, #1
 8006fea:	f000 f8e9 	bl	80071c0 <_fputwc_r>
 8006fee:	3001      	adds	r0, #1
 8006ff0:	d022      	beq.n	8007038 <__sprint_r+0x88>
 8006ff2:	2501      	movs	r5, #1
 8006ff4:	45a9      	cmp	r9, r5
 8006ff6:	d028      	beq.n	800704a <__sprint_r+0x9a>
 8006ff8:	b196      	cbz	r6, 8007020 <__sprint_r+0x70>
 8006ffa:	4640      	mov	r0, r8
 8006ffc:	f854 1f04 	ldr.w	r1, [r4, #4]!
 8007000:	463a      	mov	r2, r7
 8007002:	f000 f8dd 	bl	80071c0 <_fputwc_r>
 8007006:	3001      	adds	r0, #1
 8007008:	d016      	beq.n	8007038 <__sprint_r+0x88>
 800700a:	2502      	movs	r5, #2
 800700c:	45a9      	cmp	r9, r5
 800700e:	d107      	bne.n	8007020 <__sprint_r+0x70>
 8007010:	e01b      	b.n	800704a <__sprint_r+0x9a>
 8007012:	6871      	ldr	r1, [r6, #4]
 8007014:	f000 f8d4 	bl	80071c0 <_fputwc_r>
 8007018:	3001      	adds	r0, #1
 800701a:	d00d      	beq.n	8007038 <__sprint_r+0x88>
 800701c:	45a9      	cmp	r9, r5
 800701e:	d014      	beq.n	800704a <__sprint_r+0x9a>
 8007020:	6861      	ldr	r1, [r4, #4]
 8007022:	463a      	mov	r2, r7
 8007024:	4640      	mov	r0, r8
 8007026:	f000 f8cb 	bl	80071c0 <_fputwc_r>
 800702a:	1d26      	adds	r6, r4, #4
 800702c:	3502      	adds	r5, #2
 800702e:	3408      	adds	r4, #8
 8007030:	3001      	adds	r0, #1
 8007032:	463a      	mov	r2, r7
 8007034:	4640      	mov	r0, r8
 8007036:	d1ec      	bne.n	8007012 <__sprint_r+0x62>
 8007038:	f04f 30ff 	mov.w	r0, #4294967295	; 0xffffffff
 800703c:	2100      	movs	r1, #0
 800703e:	f8ca 1008 	str.w	r1, [sl, #8]
 8007042:	f8ca 1004 	str.w	r1, [sl, #4]
 8007046:	e8bd 8ff8 	ldmia.w	sp!, {r3, r4, r5, r6, r7, r8, r9, sl, fp, pc}
 800704a:	f8da 3008 	ldr.w	r3, [sl, #8]
 800704e:	eba3 0389 	sub.w	r3, r3, r9, lsl #2
 8007052:	f8ca 3008 	str.w	r3, [sl, #8]
 8007056:	f10b 0b08 	add.w	fp, fp, #8
 800705a:	2b00      	cmp	r3, #0
 800705c:	d1b7      	bne.n	8006fce <__sprint_r+0x1e>
 800705e:	4618      	mov	r0, r3
 8007060:	e7ec      	b.n	800703c <__sprint_r+0x8c>
 8007062:	6053      	str	r3, [r2, #4]
 8007064:	4618      	mov	r0, r3
 8007066:	e8bd 8ff8 	ldmia.w	sp!, {r3, r4, r5, r6, r7, r8, r9, sl, fp, pc}
 800706a:	f7fe f851 	bl	8005110 <__sfvwrite_r>
 800706e:	e7e5      	b.n	800703c <__sprint_r+0x8c>

08007070 <_write_r>:
_write_r():
 8007070:	b538      	push	{r3, r4, r5, lr}
 8007072:	4c08      	ldr	r4, [pc, #32]	; (8007094 <_write_r+0x24>)
 8007074:	4605      	mov	r5, r0
 8007076:	4608      	mov	r0, r1
 8007078:	4611      	mov	r1, r2
 800707a:	461a      	mov	r2, r3
 800707c:	2300      	movs	r3, #0
 800707e:	6023      	str	r3, [r4, #0]
 8007080:	f7fa f988 	bl	8001394 <_write>
 8007084:	1c43      	adds	r3, r0, #1
 8007086:	d000      	beq.n	800708a <_write_r+0x1a>
 8007088:	bd38      	pop	{r3, r4, r5, pc}
 800708a:	6821      	ldr	r1, [r4, #0]
 800708c:	2900      	cmp	r1, #0
 800708e:	d0fb      	beq.n	8007088 <_write_r+0x18>
 8007090:	6029      	str	r1, [r5, #0]
 8007092:	bd38      	pop	{r3, r4, r5, pc}
 8007094:	200008e0 	.word	0x200008e0

08007098 <_calloc_r>:
_calloc_r():
 8007098:	b510      	push	{r4, lr}
 800709a:	fb01 f102 	mul.w	r1, r1, r2
 800709e:	f7fe faa3 	bl	80055e8 <_malloc_r>
 80070a2:	4604      	mov	r4, r0
 80070a4:	b168      	cbz	r0, 80070c2 <_calloc_r+0x2a>
 80070a6:	f850 2c04 	ldr.w	r2, [r0, #-4]
 80070aa:	f022 0103 	bic.w	r1, r2, #3
 80070ae:	1f0a      	subs	r2, r1, #4
 80070b0:	2a24      	cmp	r2, #36	; 0x24
 80070b2:	d818      	bhi.n	80070e6 <_calloc_r+0x4e>
 80070b4:	2a13      	cmp	r2, #19
 80070b6:	d806      	bhi.n	80070c6 <_calloc_r+0x2e>
 80070b8:	4603      	mov	r3, r0
 80070ba:	2000      	movs	r0, #0
 80070bc:	6018      	str	r0, [r3, #0]
 80070be:	6058      	str	r0, [r3, #4]
 80070c0:	6098      	str	r0, [r3, #8]
 80070c2:	4620      	mov	r0, r4
 80070c4:	bd10      	pop	{r4, pc}
 80070c6:	2300      	movs	r3, #0
 80070c8:	2a1b      	cmp	r2, #27
 80070ca:	6003      	str	r3, [r0, #0]
 80070cc:	6043      	str	r3, [r0, #4]
 80070ce:	d90f      	bls.n	80070f0 <_calloc_r+0x58>
 80070d0:	2a24      	cmp	r2, #36	; 0x24
 80070d2:	6083      	str	r3, [r0, #8]
 80070d4:	60c3      	str	r3, [r0, #12]
 80070d6:	bf05      	ittet	eq
 80070d8:	6103      	streq	r3, [r0, #16]
 80070da:	6143      	streq	r3, [r0, #20]
 80070dc:	f100 0310 	addne.w	r3, r0, #16
 80070e0:	f100 0318 	addeq.w	r3, r0, #24
 80070e4:	e7e9      	b.n	80070ba <_calloc_r+0x22>
 80070e6:	2100      	movs	r1, #0
 80070e8:	f7fe ff3c 	bl	8005f64 <memset>
 80070ec:	4620      	mov	r0, r4
 80070ee:	bd10      	pop	{r4, pc}
 80070f0:	f100 0308 	add.w	r3, r0, #8
 80070f4:	e7e1      	b.n	80070ba <_calloc_r+0x22>
 80070f6:	bf00      	nop

080070f8 <_close_r>:
_close_r():
 80070f8:	b538      	push	{r3, r4, r5, lr}
 80070fa:	4c07      	ldr	r4, [pc, #28]	; (8007118 <_close_r+0x20>)
 80070fc:	2300      	movs	r3, #0
 80070fe:	4605      	mov	r5, r0
 8007100:	4608      	mov	r0, r1
 8007102:	6023      	str	r3, [r4, #0]
 8007104:	f000 fa16 	bl	8007534 <_close>
 8007108:	1c43      	adds	r3, r0, #1
 800710a:	d000      	beq.n	800710e <_close_r+0x16>
 800710c:	bd38      	pop	{r3, r4, r5, pc}
 800710e:	6821      	ldr	r1, [r4, #0]
 8007110:	2900      	cmp	r1, #0
 8007112:	d0fb      	beq.n	800710c <_close_r+0x14>
 8007114:	6029      	str	r1, [r5, #0]
 8007116:	bd38      	pop	{r3, r4, r5, pc}
 8007118:	200008e0 	.word	0x200008e0

0800711c <_fclose_r>:
_fclose_r():
 800711c:	b570      	push	{r4, r5, r6, lr}
 800711e:	460c      	mov	r4, r1
 8007120:	4605      	mov	r5, r0
 8007122:	2900      	cmp	r1, #0
 8007124:	d034      	beq.n	8007190 <_fclose_r+0x74>
 8007126:	f7fd fed9 	bl	8004edc <__sfp_lock_acquire>
 800712a:	b115      	cbz	r5, 8007132 <_fclose_r+0x16>
 800712c:	6bab      	ldr	r3, [r5, #56]	; 0x38
 800712e:	2b00      	cmp	r3, #0
 8007130:	d031      	beq.n	8007196 <_fclose_r+0x7a>
 8007132:	f9b4 600c 	ldrsh.w	r6, [r4, #12]
 8007136:	b33e      	cbz	r6, 8007188 <_fclose_r+0x6c>
 8007138:	4628      	mov	r0, r5
 800713a:	4621      	mov	r1, r4
 800713c:	f7fd fdc8 	bl	8004cd0 <_fflush_r>
 8007140:	6ae2      	ldr	r2, [r4, #44]	; 0x2c
 8007142:	4606      	mov	r6, r0
 8007144:	b13a      	cbz	r2, 8007156 <_fclose_r+0x3a>
 8007146:	4628      	mov	r0, r5
 8007148:	69e1      	ldr	r1, [r4, #28]
 800714a:	4790      	blx	r2
 800714c:	ea36 0620 	bics.w	r6, r6, r0, asr #32
 8007150:	bf28      	it	cs
 8007152:	f04f 36ff 	movcs.w	r6, #4294967295	; 0xffffffff
 8007156:	89a0      	ldrh	r0, [r4, #12]
 8007158:	f000 0180 	and.w	r1, r0, #128	; 0x80
 800715c:	b20b      	sxth	r3, r1
 800715e:	bb13      	cbnz	r3, 80071a6 <_fclose_r+0x8a>
 8007160:	6b21      	ldr	r1, [r4, #48]	; 0x30
 8007162:	b141      	cbz	r1, 8007176 <_fclose_r+0x5a>
 8007164:	f104 0240 	add.w	r2, r4, #64	; 0x40
 8007168:	4291      	cmp	r1, r2
 800716a:	d002      	beq.n	8007172 <_fclose_r+0x56>
 800716c:	4628      	mov	r0, r5
 800716e:	f7fd ff05 	bl	8004f7c <_free_r>
 8007172:	2000      	movs	r0, #0
 8007174:	6320      	str	r0, [r4, #48]	; 0x30
 8007176:	6c61      	ldr	r1, [r4, #68]	; 0x44
 8007178:	b121      	cbz	r1, 8007184 <_fclose_r+0x68>
 800717a:	4628      	mov	r0, r5
 800717c:	f7fd fefe 	bl	8004f7c <_free_r>
 8007180:	2100      	movs	r1, #0
 8007182:	6461      	str	r1, [r4, #68]	; 0x44
 8007184:	2300      	movs	r3, #0
 8007186:	81a3      	strh	r3, [r4, #12]
 8007188:	f7fd feaa 	bl	8004ee0 <__sfp_lock_release>
 800718c:	4630      	mov	r0, r6
 800718e:	bd70      	pop	{r4, r5, r6, pc}
 8007190:	460e      	mov	r6, r1
 8007192:	4630      	mov	r0, r6
 8007194:	bd70      	pop	{r4, r5, r6, pc}
 8007196:	4628      	mov	r0, r5
 8007198:	f7fd fe7a 	bl	8004e90 <__sinit>
 800719c:	f9b4 600c 	ldrsh.w	r6, [r4, #12]
 80071a0:	2e00      	cmp	r6, #0
 80071a2:	d1c9      	bne.n	8007138 <_fclose_r+0x1c>
 80071a4:	e7f0      	b.n	8007188 <_fclose_r+0x6c>
 80071a6:	4628      	mov	r0, r5
 80071a8:	6921      	ldr	r1, [r4, #16]
 80071aa:	f7fd fee7 	bl	8004f7c <_free_r>
 80071ae:	e7d7      	b.n	8007160 <_fclose_r+0x44>

080071b0 <fclose>:
fclose():
 80071b0:	f240 4330 	movw	r3, #1072	; 0x430
 80071b4:	f2c2 0300 	movt	r3, #8192	; 0x2000
 80071b8:	4601      	mov	r1, r0
 80071ba:	6818      	ldr	r0, [r3, #0]
 80071bc:	f7ff bfae 	b.w	800711c <_fclose_r>

080071c0 <_fputwc_r>:
_fputwc_r():
 80071c0:	e92d 47f0 	stmdb	sp!, {r4, r5, r6, r7, r8, r9, sl, lr}
 80071c4:	8993      	ldrh	r3, [r2, #12]
 80071c6:	4614      	mov	r4, r2
 80071c8:	f403 5200 	and.w	r2, r3, #8192	; 0x2000
 80071cc:	4680      	mov	r8, r0
 80071ce:	b210      	sxth	r0, r2
 80071d0:	b082      	sub	sp, #8
 80071d2:	460f      	mov	r7, r1
 80071d4:	b930      	cbnz	r0, 80071e4 <_fputwc_r+0x24>
 80071d6:	6e61      	ldr	r1, [r4, #100]	; 0x64
 80071d8:	f443 5600 	orr.w	r6, r3, #8192	; 0x2000
 80071dc:	f441 5300 	orr.w	r3, r1, #8192	; 0x2000
 80071e0:	81a6      	strh	r6, [r4, #12]
 80071e2:	6663      	str	r3, [r4, #100]	; 0x64
 80071e4:	f7fe f980 	bl	80054e8 <__locale_mb_cur_max>
 80071e8:	2801      	cmp	r0, #1
 80071ea:	d078      	beq.n	80072de <_fputwc_r+0x11e>
 80071ec:	ae01      	add	r6, sp, #4
 80071ee:	4640      	mov	r0, r8
 80071f0:	4631      	mov	r1, r6
 80071f2:	463a      	mov	r2, r7
 80071f4:	f104 035c 	add.w	r3, r4, #92	; 0x5c
 80071f8:	f000 f966 	bl	80074c8 <_wcrtomb_r>
 80071fc:	f1b0 3fff 	cmp.w	r0, #4294967295	; 0xffffffff
 8007200:	4681      	mov	r9, r0
 8007202:	d053      	beq.n	80072ac <_fputwc_r+0xec>
 8007204:	2800      	cmp	r0, #0
 8007206:	d03d      	beq.n	8007284 <_fputwc_r+0xc4>
 8007208:	68a0      	ldr	r0, [r4, #8]
 800720a:	f109 32ff 	add.w	r2, r9, #4294967295	; 0xffffffff
 800720e:	1e43      	subs	r3, r0, #1
 8007210:	2b00      	cmp	r3, #0
 8007212:	60a3      	str	r3, [r4, #8]
 8007214:	f002 0a01 	and.w	sl, r2, #1
 8007218:	f2c0 8084 	blt.w	8007324 <_fputwc_r+0x164>
 800721c:	6825      	ldr	r5, [r4, #0]
 800721e:	7831      	ldrb	r1, [r6, #0]
 8007220:	7029      	strb	r1, [r5, #0]
 8007222:	6820      	ldr	r0, [r4, #0]
 8007224:	1c42      	adds	r2, r0, #1
 8007226:	6022      	str	r2, [r4, #0]
 8007228:	2501      	movs	r5, #1
 800722a:	454d      	cmp	r5, r9
 800722c:	d22a      	bcs.n	8007284 <_fputwc_r+0xc4>
 800722e:	f1ba 0f00 	cmp.w	sl, #0
 8007232:	d00d      	beq.n	8007250 <_fputwc_r+0x90>
 8007234:	68a1      	ldr	r1, [r4, #8]
 8007236:	1e4b      	subs	r3, r1, #1
 8007238:	2b00      	cmp	r3, #0
 800723a:	60a3      	str	r3, [r4, #8]
 800723c:	db24      	blt.n	8007288 <_fputwc_r+0xc8>
 800723e:	6820      	ldr	r0, [r4, #0]
 8007240:	5d72      	ldrb	r2, [r6, r5]
 8007242:	7002      	strb	r2, [r0, #0]
 8007244:	6821      	ldr	r1, [r4, #0]
 8007246:	194b      	adds	r3, r1, r5
 8007248:	6023      	str	r3, [r4, #0]
 800724a:	3501      	adds	r5, #1
 800724c:	454d      	cmp	r5, r9
 800724e:	d219      	bcs.n	8007284 <_fputwc_r+0xc4>
 8007250:	68a1      	ldr	r1, [r4, #8]
 8007252:	1e48      	subs	r0, r1, #1
 8007254:	2800      	cmp	r0, #0
 8007256:	60a0      	str	r0, [r4, #8]
 8007258:	db2f      	blt.n	80072ba <_fputwc_r+0xfa>
 800725a:	6823      	ldr	r3, [r4, #0]
 800725c:	5d72      	ldrb	r2, [r6, r5]
 800725e:	701a      	strb	r2, [r3, #0]
 8007260:	6821      	ldr	r1, [r4, #0]
 8007262:	1c48      	adds	r0, r1, #1
 8007264:	6020      	str	r0, [r4, #0]
 8007266:	68a3      	ldr	r3, [r4, #8]
 8007268:	3501      	adds	r5, #1
 800726a:	3b01      	subs	r3, #1
 800726c:	2b00      	cmp	r3, #0
 800726e:	60a3      	str	r3, [r4, #8]
 8007270:	db0a      	blt.n	8007288 <_fputwc_r+0xc8>
 8007272:	6821      	ldr	r1, [r4, #0]
 8007274:	5d72      	ldrb	r2, [r6, r5]
 8007276:	3501      	adds	r5, #1
 8007278:	700a      	strb	r2, [r1, #0]
 800727a:	6820      	ldr	r0, [r4, #0]
 800727c:	1c43      	adds	r3, r0, #1
 800727e:	454d      	cmp	r5, r9
 8007280:	6023      	str	r3, [r4, #0]
 8007282:	d3e5      	bcc.n	8007250 <_fputwc_r+0x90>
 8007284:	4638      	mov	r0, r7
 8007286:	e015      	b.n	80072b4 <_fputwc_r+0xf4>
 8007288:	69a0      	ldr	r0, [r4, #24]
 800728a:	4283      	cmp	r3, r0
 800728c:	db30      	blt.n	80072f0 <_fputwc_r+0x130>
 800728e:	6821      	ldr	r1, [r4, #0]
 8007290:	5d72      	ldrb	r2, [r6, r5]
 8007292:	700a      	strb	r2, [r1, #0]
 8007294:	6823      	ldr	r3, [r4, #0]
 8007296:	7819      	ldrb	r1, [r3, #0]
 8007298:	290a      	cmp	r1, #10
 800729a:	d054      	beq.n	8007346 <_fputwc_r+0x186>
 800729c:	1c5a      	adds	r2, r3, #1
 800729e:	2300      	movs	r3, #0
 80072a0:	6022      	str	r2, [r4, #0]
 80072a2:	2b00      	cmp	r3, #0
 80072a4:	d0d1      	beq.n	800724a <_fputwc_r+0x8a>
 80072a6:	f04f 30ff 	mov.w	r0, #4294967295	; 0xffffffff
 80072aa:	e003      	b.n	80072b4 <_fputwc_r+0xf4>
 80072ac:	89a2      	ldrh	r2, [r4, #12]
 80072ae:	f042 0140 	orr.w	r1, r2, #64	; 0x40
 80072b2:	81a1      	strh	r1, [r4, #12]
 80072b4:	b002      	add	sp, #8
 80072b6:	e8bd 87f0 	ldmia.w	sp!, {r4, r5, r6, r7, r8, r9, sl, pc}
 80072ba:	69a3      	ldr	r3, [r4, #24]
 80072bc:	4298      	cmp	r0, r3
 80072be:	db24      	blt.n	800730a <_fputwc_r+0x14a>
 80072c0:	6821      	ldr	r1, [r4, #0]
 80072c2:	5d72      	ldrb	r2, [r6, r5]
 80072c4:	700a      	strb	r2, [r1, #0]
 80072c6:	6820      	ldr	r0, [r4, #0]
 80072c8:	7801      	ldrb	r1, [r0, #0]
 80072ca:	290a      	cmp	r1, #10
 80072cc:	d03d      	beq.n	800734a <_fputwc_r+0x18a>
 80072ce:	3001      	adds	r0, #1
 80072d0:	2200      	movs	r2, #0
 80072d2:	6020      	str	r0, [r4, #0]
 80072d4:	2a00      	cmp	r2, #0
 80072d6:	d0c6      	beq.n	8007266 <_fputwc_r+0xa6>
 80072d8:	f04f 30ff 	mov.w	r0, #4294967295	; 0xffffffff
 80072dc:	e7ea      	b.n	80072b4 <_fputwc_r+0xf4>
 80072de:	2f00      	cmp	r7, #0
 80072e0:	d084      	beq.n	80071ec <_fputwc_r+0x2c>
 80072e2:	2fff      	cmp	r7, #255	; 0xff
 80072e4:	d882      	bhi.n	80071ec <_fputwc_r+0x2c>
 80072e6:	ae02      	add	r6, sp, #8
 80072e8:	f806 7d04 	strb.w	r7, [r6, #-4]!
 80072ec:	4681      	mov	r9, r0
 80072ee:	e78b      	b.n	8007208 <_fputwc_r+0x48>
 80072f0:	5d71      	ldrb	r1, [r6, r5]
 80072f2:	4640      	mov	r0, r8
 80072f4:	4622      	mov	r2, r4
 80072f6:	f000 f889 	bl	800740c <__swbuf_r>
 80072fa:	f1b0 31ff 	subs.w	r1, r0, #4294967295	; 0xffffffff
 80072fe:	4248      	negs	r0, r1
 8007300:	eb50 0301 	adcs.w	r3, r0, r1
 8007304:	2b00      	cmp	r3, #0
 8007306:	d0a0      	beq.n	800724a <_fputwc_r+0x8a>
 8007308:	e7cd      	b.n	80072a6 <_fputwc_r+0xe6>
 800730a:	5d71      	ldrb	r1, [r6, r5]
 800730c:	4640      	mov	r0, r8
 800730e:	4622      	mov	r2, r4
 8007310:	f000 f87c 	bl	800740c <__swbuf_r>
 8007314:	f1b0 33ff 	subs.w	r3, r0, #4294967295	; 0xffffffff
 8007318:	4259      	negs	r1, r3
 800731a:	eb51 0203 	adcs.w	r2, r1, r3
 800731e:	2a00      	cmp	r2, #0
 8007320:	d0a1      	beq.n	8007266 <_fputwc_r+0xa6>
 8007322:	e7d9      	b.n	80072d8 <_fputwc_r+0x118>
 8007324:	69a1      	ldr	r1, [r4, #24]
 8007326:	428b      	cmp	r3, r1
 8007328:	db11      	blt.n	800734e <_fputwc_r+0x18e>
 800732a:	6823      	ldr	r3, [r4, #0]
 800732c:	7830      	ldrb	r0, [r6, #0]
 800732e:	7018      	strb	r0, [r3, #0]
 8007330:	6822      	ldr	r2, [r4, #0]
 8007332:	7811      	ldrb	r1, [r2, #0]
 8007334:	290a      	cmp	r1, #10
 8007336:	d018      	beq.n	800736a <_fputwc_r+0x1aa>
 8007338:	3201      	adds	r2, #1
 800733a:	2000      	movs	r0, #0
 800733c:	6022      	str	r2, [r4, #0]
 800733e:	2800      	cmp	r0, #0
 8007340:	f43f af72 	beq.w	8007228 <_fputwc_r+0x68>
 8007344:	e7af      	b.n	80072a6 <_fputwc_r+0xe6>
 8007346:	4640      	mov	r0, r8
 8007348:	e7d4      	b.n	80072f4 <_fputwc_r+0x134>
 800734a:	4640      	mov	r0, r8
 800734c:	e7df      	b.n	800730e <_fputwc_r+0x14e>
 800734e:	7831      	ldrb	r1, [r6, #0]
 8007350:	4640      	mov	r0, r8
 8007352:	4622      	mov	r2, r4
 8007354:	f000 f85a 	bl	800740c <__swbuf_r>
 8007358:	f1b0 31ff 	subs.w	r1, r0, #4294967295	; 0xffffffff
 800735c:	424b      	negs	r3, r1
 800735e:	eb53 0001 	adcs.w	r0, r3, r1
 8007362:	2800      	cmp	r0, #0
 8007364:	f43f af60 	beq.w	8007228 <_fputwc_r+0x68>
 8007368:	e79d      	b.n	80072a6 <_fputwc_r+0xe6>
 800736a:	4640      	mov	r0, r8
 800736c:	e7f1      	b.n	8007352 <_fputwc_r+0x192>
 800736e:	bf00      	nop

08007370 <_fstat_r>:
_fstat_r():
 8007370:	b538      	push	{r3, r4, r5, lr}
 8007372:	4c08      	ldr	r4, [pc, #32]	; (8007394 <_fstat_r+0x24>)
 8007374:	2300      	movs	r3, #0
 8007376:	4605      	mov	r5, r0
 8007378:	4608      	mov	r0, r1
 800737a:	4611      	mov	r1, r2
 800737c:	6023      	str	r3, [r4, #0]
 800737e:	f000 f8e3 	bl	8007548 <_fstat>
 8007382:	1c43      	adds	r3, r0, #1
 8007384:	d000      	beq.n	8007388 <_fstat_r+0x18>
 8007386:	bd38      	pop	{r3, r4, r5, pc}
 8007388:	6821      	ldr	r1, [r4, #0]
 800738a:	2900      	cmp	r1, #0
 800738c:	d0fb      	beq.n	8007386 <_fstat_r+0x16>
 800738e:	6029      	str	r1, [r5, #0]
 8007390:	bd38      	pop	{r3, r4, r5, pc}
 8007392:	bf00      	nop
 8007394:	200008e0 	.word	0x200008e0

08007398 <_isatty_r>:
_isatty_r():
 8007398:	b538      	push	{r3, r4, r5, lr}
 800739a:	4c07      	ldr	r4, [pc, #28]	; (80073b8 <_isatty_r+0x20>)
 800739c:	2300      	movs	r3, #0
 800739e:	4605      	mov	r5, r0
 80073a0:	4608      	mov	r0, r1
 80073a2:	6023      	str	r3, [r4, #0]
 80073a4:	f000 f8da 	bl	800755c <_isatty>
 80073a8:	1c43      	adds	r3, r0, #1
 80073aa:	d000      	beq.n	80073ae <_isatty_r+0x16>
 80073ac:	bd38      	pop	{r3, r4, r5, pc}
 80073ae:	6821      	ldr	r1, [r4, #0]
 80073b0:	2900      	cmp	r1, #0
 80073b2:	d0fb      	beq.n	80073ac <_isatty_r+0x14>
 80073b4:	6029      	str	r1, [r5, #0]
 80073b6:	bd38      	pop	{r3, r4, r5, pc}
 80073b8:	200008e0 	.word	0x200008e0

080073bc <_lseek_r>:
_lseek_r():
 80073bc:	b538      	push	{r3, r4, r5, lr}
 80073be:	4c08      	ldr	r4, [pc, #32]	; (80073e0 <_lseek_r+0x24>)
 80073c0:	4605      	mov	r5, r0
 80073c2:	4608      	mov	r0, r1
 80073c4:	4611      	mov	r1, r2
 80073c6:	461a      	mov	r2, r3
 80073c8:	2300      	movs	r3, #0
 80073ca:	6023      	str	r3, [r4, #0]
 80073cc:	f000 f8ce 	bl	800756c <_lseek>
 80073d0:	1c43      	adds	r3, r0, #1
 80073d2:	d000      	beq.n	80073d6 <_lseek_r+0x1a>
 80073d4:	bd38      	pop	{r3, r4, r5, pc}
 80073d6:	6821      	ldr	r1, [r4, #0]
 80073d8:	2900      	cmp	r1, #0
 80073da:	d0fb      	beq.n	80073d4 <_lseek_r+0x18>
 80073dc:	6029      	str	r1, [r5, #0]
 80073de:	bd38      	pop	{r3, r4, r5, pc}
 80073e0:	200008e0 	.word	0x200008e0

080073e4 <_read_r>:
_read_r():
 80073e4:	b538      	push	{r3, r4, r5, lr}
 80073e6:	4c08      	ldr	r4, [pc, #32]	; (8007408 <_read_r+0x24>)
 80073e8:	4605      	mov	r5, r0
 80073ea:	4608      	mov	r0, r1
 80073ec:	4611      	mov	r1, r2
 80073ee:	461a      	mov	r2, r3
 80073f0:	2300      	movs	r3, #0
 80073f2:	6023      	str	r3, [r4, #0]
 80073f4:	f000 f8c4 	bl	8007580 <_read>
 80073f8:	1c43      	adds	r3, r0, #1
 80073fa:	d000      	beq.n	80073fe <_read_r+0x1a>
 80073fc:	bd38      	pop	{r3, r4, r5, pc}
 80073fe:	6821      	ldr	r1, [r4, #0]
 8007400:	2900      	cmp	r1, #0
 8007402:	d0fb      	beq.n	80073fc <_read_r+0x18>
 8007404:	6029      	str	r1, [r5, #0]
 8007406:	bd38      	pop	{r3, r4, r5, pc}
 8007408:	200008e0 	.word	0x200008e0

0800740c <__swbuf_r>:
__swbuf_r():
 800740c:	b570      	push	{r4, r5, r6, lr}
 800740e:	460d      	mov	r5, r1
 8007410:	4614      	mov	r4, r2
 8007412:	4606      	mov	r6, r0
 8007414:	b110      	cbz	r0, 800741c <__swbuf_r+0x10>
 8007416:	6b83      	ldr	r3, [r0, #56]	; 0x38
 8007418:	2b00      	cmp	r3, #0
 800741a:	d04a      	beq.n	80074b2 <__swbuf_r+0xa6>
 800741c:	89a3      	ldrh	r3, [r4, #12]
 800741e:	69a2      	ldr	r2, [r4, #24]
 8007420:	f003 0008 	and.w	r0, r3, #8
 8007424:	b201      	sxth	r1, r0
 8007426:	60a2      	str	r2, [r4, #8]
 8007428:	2900      	cmp	r1, #0
 800742a:	d03a      	beq.n	80074a2 <__swbuf_r+0x96>
 800742c:	6922      	ldr	r2, [r4, #16]
 800742e:	2a00      	cmp	r2, #0
 8007430:	d037      	beq.n	80074a2 <__swbuf_r+0x96>
 8007432:	f403 5000 	and.w	r0, r3, #8192	; 0x2000
 8007436:	b201      	sxth	r1, r0
 8007438:	b2ed      	uxtb	r5, r5
 800743a:	b1a9      	cbz	r1, 8007468 <__swbuf_r+0x5c>
 800743c:	6823      	ldr	r3, [r4, #0]
 800743e:	6960      	ldr	r0, [r4, #20]
 8007440:	1a9a      	subs	r2, r3, r2
 8007442:	4282      	cmp	r2, r0
 8007444:	da1c      	bge.n	8007480 <__swbuf_r+0x74>
 8007446:	1c50      	adds	r0, r2, #1
 8007448:	68a1      	ldr	r1, [r4, #8]
 800744a:	1e4a      	subs	r2, r1, #1
 800744c:	60a2      	str	r2, [r4, #8]
 800744e:	f803 5b01 	strb.w	r5, [r3], #1
 8007452:	6961      	ldr	r1, [r4, #20]
 8007454:	6023      	str	r3, [r4, #0]
 8007456:	4281      	cmp	r1, r0
 8007458:	d01a      	beq.n	8007490 <__swbuf_r+0x84>
 800745a:	89a3      	ldrh	r3, [r4, #12]
 800745c:	07db      	lsls	r3, r3, #31
 800745e:	d501      	bpl.n	8007464 <__swbuf_r+0x58>
 8007460:	2d0a      	cmp	r5, #10
 8007462:	d015      	beq.n	8007490 <__swbuf_r+0x84>
 8007464:	4628      	mov	r0, r5
 8007466:	bd70      	pop	{r4, r5, r6, pc}
 8007468:	6e60      	ldr	r0, [r4, #100]	; 0x64
 800746a:	f443 5300 	orr.w	r3, r3, #8192	; 0x2000
 800746e:	81a3      	strh	r3, [r4, #12]
 8007470:	6823      	ldr	r3, [r4, #0]
 8007472:	f420 5100 	bic.w	r1, r0, #8192	; 0x2000
 8007476:	6960      	ldr	r0, [r4, #20]
 8007478:	1a9a      	subs	r2, r3, r2
 800747a:	4282      	cmp	r2, r0
 800747c:	6661      	str	r1, [r4, #100]	; 0x64
 800747e:	dbe2      	blt.n	8007446 <__swbuf_r+0x3a>
 8007480:	4630      	mov	r0, r6
 8007482:	4621      	mov	r1, r4
 8007484:	f7fd fc24 	bl	8004cd0 <_fflush_r>
 8007488:	b940      	cbnz	r0, 800749c <__swbuf_r+0x90>
 800748a:	6823      	ldr	r3, [r4, #0]
 800748c:	2001      	movs	r0, #1
 800748e:	e7db      	b.n	8007448 <__swbuf_r+0x3c>
 8007490:	4630      	mov	r0, r6
 8007492:	4621      	mov	r1, r4
 8007494:	f7fd fc1c 	bl	8004cd0 <_fflush_r>
 8007498:	2800      	cmp	r0, #0
 800749a:	d0e3      	beq.n	8007464 <__swbuf_r+0x58>
 800749c:	f04f 35ff 	mov.w	r5, #4294967295	; 0xffffffff
 80074a0:	e7e0      	b.n	8007464 <__swbuf_r+0x58>
 80074a2:	4630      	mov	r0, r6
 80074a4:	4621      	mov	r1, r4
 80074a6:	f7fc f93f 	bl	8003728 <__swsetup_r>
 80074aa:	89a3      	ldrh	r3, [r4, #12]
 80074ac:	b920      	cbnz	r0, 80074b8 <__swbuf_r+0xac>
 80074ae:	6922      	ldr	r2, [r4, #16]
 80074b0:	e7bf      	b.n	8007432 <__swbuf_r+0x26>
 80074b2:	f7fd fced 	bl	8004e90 <__sinit>
 80074b6:	e7b1      	b.n	800741c <__swbuf_r+0x10>
 80074b8:	f043 0540 	orr.w	r5, r3, #64	; 0x40
 80074bc:	2009      	movs	r0, #9
 80074be:	81a5      	strh	r5, [r4, #12]
 80074c0:	f04f 35ff 	mov.w	r5, #4294967295	; 0xffffffff
 80074c4:	6030      	str	r0, [r6, #0]
 80074c6:	e7cd      	b.n	8007464 <__swbuf_r+0x58>

080074c8 <_wcrtomb_r>:
_wcrtomb_r():
 80074c8:	e92d 41f0 	stmdb	sp!, {r4, r5, r6, r7, r8, lr}
 80074cc:	461e      	mov	r6, r3
 80074ce:	b086      	sub	sp, #24
 80074d0:	460c      	mov	r4, r1
 80074d2:	4605      	mov	r5, r0
 80074d4:	4617      	mov	r7, r2
 80074d6:	4b0f      	ldr	r3, [pc, #60]	; (8007514 <_wcrtomb_r+0x4c>)
 80074d8:	b191      	cbz	r1, 8007500 <_wcrtomb_r+0x38>
 80074da:	f8d3 8000 	ldr.w	r8, [r3]
 80074de:	f7fd fffd 	bl	80054dc <__locale_charset>
 80074e2:	9600      	str	r6, [sp, #0]
 80074e4:	4603      	mov	r3, r0
 80074e6:	4621      	mov	r1, r4
 80074e8:	4628      	mov	r0, r5
 80074ea:	463a      	mov	r2, r7
 80074ec:	47c0      	blx	r8
 80074ee:	1c43      	adds	r3, r0, #1
 80074f0:	d103      	bne.n	80074fa <_wcrtomb_r+0x32>
 80074f2:	2100      	movs	r1, #0
 80074f4:	228a      	movs	r2, #138	; 0x8a
 80074f6:	6031      	str	r1, [r6, #0]
 80074f8:	602a      	str	r2, [r5, #0]
 80074fa:	b006      	add	sp, #24
 80074fc:	e8bd 81f0 	ldmia.w	sp!, {r4, r5, r6, r7, r8, pc}
 8007500:	681f      	ldr	r7, [r3, #0]
 8007502:	f7fd ffeb 	bl	80054dc <__locale_charset>
 8007506:	9600      	str	r6, [sp, #0]
 8007508:	4603      	mov	r3, r0
 800750a:	a903      	add	r1, sp, #12
 800750c:	4628      	mov	r0, r5
 800750e:	4622      	mov	r2, r4
 8007510:	47b8      	blx	r7
 8007512:	e7ec      	b.n	80074ee <_wcrtomb_r+0x26>
 8007514:	200008a0 	.word	0x200008a0

08007518 <__ascii_wctomb>:
__ascii_wctomb():
 8007518:	b121      	cbz	r1, 8007524 <__ascii_wctomb+0xc>
 800751a:	2aff      	cmp	r2, #255	; 0xff
 800751c:	d804      	bhi.n	8007528 <__ascii_wctomb+0x10>
 800751e:	700a      	strb	r2, [r1, #0]
 8007520:	2001      	movs	r0, #1
 8007522:	4770      	bx	lr
 8007524:	4608      	mov	r0, r1
 8007526:	4770      	bx	lr
 8007528:	238a      	movs	r3, #138	; 0x8a
 800752a:	6003      	str	r3, [r0, #0]
 800752c:	f04f 30ff 	mov.w	r0, #4294967295	; 0xffffffff
 8007530:	4770      	bx	lr
 8007532:	bf00      	nop

08007534 <_close>:
_close():
 8007534:	f640 03e0 	movw	r3, #2272	; 0x8e0
 8007538:	f2c2 0300 	movt	r3, #8192	; 0x2000
 800753c:	2258      	movs	r2, #88	; 0x58
 800753e:	601a      	str	r2, [r3, #0]
 8007540:	f04f 30ff 	mov.w	r0, #4294967295	; 0xffffffff
 8007544:	4770      	bx	lr
 8007546:	bf00      	nop

08007548 <_fstat>:
_fstat():
 8007548:	f640 03e0 	movw	r3, #2272	; 0x8e0
 800754c:	f2c2 0300 	movt	r3, #8192	; 0x2000
 8007550:	2258      	movs	r2, #88	; 0x58
 8007552:	601a      	str	r2, [r3, #0]
 8007554:	f04f 30ff 	mov.w	r0, #4294967295	; 0xffffffff
 8007558:	4770      	bx	lr
 800755a:	bf00      	nop

0800755c <_isatty>:
_isatty():
 800755c:	f640 03e0 	movw	r3, #2272	; 0x8e0
 8007560:	f2c2 0300 	movt	r3, #8192	; 0x2000
 8007564:	2258      	movs	r2, #88	; 0x58
 8007566:	601a      	str	r2, [r3, #0]
 8007568:	2000      	movs	r0, #0
 800756a:	4770      	bx	lr

0800756c <_lseek>:
_lseek():
 800756c:	f640 03e0 	movw	r3, #2272	; 0x8e0
 8007570:	f2c2 0300 	movt	r3, #8192	; 0x2000
 8007574:	2258      	movs	r2, #88	; 0x58
 8007576:	601a      	str	r2, [r3, #0]
 8007578:	f04f 30ff 	mov.w	r0, #4294967295	; 0xffffffff
 800757c:	4770      	bx	lr
 800757e:	bf00      	nop

08007580 <_read>:
_read():
 8007580:	f640 03e0 	movw	r3, #2272	; 0x8e0
 8007584:	f2c2 0300 	movt	r3, #8192	; 0x2000
 8007588:	2258      	movs	r2, #88	; 0x58
 800758a:	601a      	str	r2, [r3, #0]
 800758c:	f04f 30ff 	mov.w	r0, #4294967295	; 0xffffffff
 8007590:	4770      	bx	lr
 8007592:	bf00      	nop

08007594 <_sbrk>:
_sbrk():
 8007594:	4a09      	ldr	r2, [pc, #36]	; (80075bc <_sbrk+0x28>)
 8007596:	6813      	ldr	r3, [r2, #0]
 8007598:	b16b      	cbz	r3, 80075b6 <_sbrk+0x22>
 800759a:	1818      	adds	r0, r3, r0
 800759c:	4669      	mov	r1, sp
 800759e:	4288      	cmp	r0, r1
 80075a0:	d802      	bhi.n	80075a8 <_sbrk+0x14>
 80075a2:	6010      	str	r0, [r2, #0]
 80075a4:	4618      	mov	r0, r3
 80075a6:	4770      	bx	lr
 80075a8:	4b05      	ldr	r3, [pc, #20]	; (80075c0 <_sbrk+0x2c>)
 80075aa:	220c      	movs	r2, #12
 80075ac:	601a      	str	r2, [r3, #0]
 80075ae:	f04f 33ff 	mov.w	r3, #4294967295	; 0xffffffff
 80075b2:	4618      	mov	r0, r3
 80075b4:	4770      	bx	lr
 80075b6:	4b03      	ldr	r3, [pc, #12]	; (80075c4 <_sbrk+0x30>)
 80075b8:	6013      	str	r3, [r2, #0]
 80075ba:	e7ee      	b.n	800759a <_sbrk+0x6>
 80075bc:	200008dc 	.word	0x200008dc
 80075c0:	200008e0 	.word	0x200008e0
 80075c4:	200008e4 	.word	0x200008e4
 80075c8:	6c6c6548 	.word	0x6c6c6548
 80075cc:	5241206f 	.word	0x5241206f
 80075d0:	6f57204d 	.word	0x6f57204d
 80075d4:	21646c72 	.word	0x21646c72
 80075d8:	00000000 	.word	0x00000000
 80075dc:	6f636553 	.word	0x6f636553
 80075e0:	2520646e 	.word	0x2520646e
 80075e4:	00000a64 	.word	0x00000a64
 80075e8:	0000000a 	.word	0x0000000a

080075ec <blanks.6735>:
 80075ec:	20202020 20202020 20202020 20202020                     
 80075fc:	00464e49 00666e69 004e414e 006e616e     INF.inf.NAN.nan.
 800760c:	33323130 37363534 42413938 46454443     0123456789ABCDEF
 800761c:	00000000 33323130 37363534 62613938     ....0123456789ab
 800762c:	66656463 00000000 6c756e28 0000296c     cdef....(null)..
 800763c:	00000030                                0...

08007640 <zeroes.6736>:
 8007640:	30303030 30303030 30303030 30303030     0000000000000000
 8007650:	69666e49 7974696e 00000000 004e614e     Infinity....NaN.
 8007660:	00000043 49534f50 00000058 0000002e     C...POSIX.......

08007670 <p05.5242>:
 8007670:	00000005 00000019 0000007d 00000000     ........}.......

08007680 <__mprec_tens>:
 8007680:	00000000 3ff00000 00000000 40240000     .......?......$@
 8007690:	00000000 40590000 00000000 408f4000     ......Y@.....@.@
 80076a0:	00000000 40c38800 00000000 40f86a00     .......@.....j.@
 80076b0:	00000000 412e8480 00000000 416312d0     .......A......cA
 80076c0:	00000000 4197d784 00000000 41cdcd65     .......A....e..A
 80076d0:	20000000 4202a05f e8000000 42374876     ... _..B....vH7B
 80076e0:	a2000000 426d1a94 e5400000 42a2309c     ......mB..@..0.B
 80076f0:	1e900000 42d6bcc4 26340000 430c6bf5     .......B..4&.k.C
 8007700:	37e08000 4341c379 85d8a000 43763457     ...7y.AC....W4vC
 8007710:	674ec800 43abc16d 60913d00 43e158e4     ..Ngm..C.=.`.X.C
 8007720:	78b58c40 4415af1d d6e2ef50 444b1ae4     @..x...DP.....KD
 8007730:	064dd592 4480f0cf c7e14af6 44b52d02     ..M....D.J...-.D
 8007740:	79d99db4 44ea7843                       ...yCx.D

08007748 <__mprec_bigtens>:
 8007748:	37e08000 4341c379 b5056e17 4693b8b5     ...7y.AC.n.....F
 8007758:	e93ff9f5 4d384f03 f9301d32 5a827748     ..?..O8M2.0.Hw.Z
 8007768:	7f73bf3c 75154fdd                       <.s..O.u
